; ModuleID = '/home/andrea/Documenti/vision/Ultrascale/hls/DDR/AXIS_TO_DDR_WRITER_AXILITE/AXIS_TO_DDR_WRITER_AXILITE_prj/solution1/.autopilot/db/a.o.3.bc'
target datalayout = "e-p:64:64:64-i1:8:8-i8:8:8-i16:16:16-i32:32:32-i64:64:64-f32:32:32-f64:64:64-v64:64:64-v128:128:128-a0:0:64-s0:64:64-f80:128:128-n8:16:32:64-S128"
target triple = "x86_64-unknown-linux-gnu"

@memcpy_OC_base_ddr_a = internal unnamed_addr constant [32 x i8] c"memcpy.base_ddr_addr.buffer.gep\00" ; [#uses=1 type=[32 x i8]*]
@llvm_global_ctors_1 = appending global [0 x void ()*] zeroinitializer ; [#uses=0 type=[0 x void ()*]*]
@llvm_global_ctors_0 = appending global [0 x i32] zeroinitializer ; [#uses=0 type=[0 x i32]*]
@inner_index_V = internal global i8 0             ; [#uses=3 type=i8*]
@frame_count_inner = internal unnamed_addr global i32 0, align 4 ; [#uses=2 type=i32*]
@burstwrite_OC_region = internal unnamed_addr constant [18 x i8] c"burstwrite.region\00" ; [#uses=2 type=[18 x i8]*]
@axis_to_ddr_writer_s = internal unnamed_addr constant [19 x i8] c"axis_to_ddr_writer\00" ; [#uses=1 type=[19 x i8]*]
@FRAME_OFFSET = internal unnamed_addr global i32 307200, align 4 ; [#uses=3 type=i32*]
@FRAME_BUFFER_NUMBER = internal unnamed_addr global i8 8, align 1 ; [#uses=3 type=i8*]
@FRAME_BUFFER_DIM = internal unnamed_addr global i32 307200, align 4 ; [#uses=3 type=i32*]
@BASE_ADDRESS = internal global i29 0             ; [#uses=3 type=i29*]
@p_str8 = internal unnamed_addr constant [1 x i8] zeroinitializer ; [#uses=1 type=[1 x i8]*]
@p_str7 = private unnamed_addr constant [12 x i8] c"hls_label_0\00", align 1 ; [#uses=2 type=[12 x i8]*]
@p_str6 = private unnamed_addr constant [12 x i8] c"RAM_2P_BRAM\00", align 1 ; [#uses=1 type=[12 x i8]*]
@p_str5 = private unnamed_addr constant [8 x i8] c"ap_none\00", align 1 ; [#uses=2 type=[8 x i8]*]
@p_str4 = private unnamed_addr constant [5 x i8] c"both\00", align 1 ; [#uses=1 type=[5 x i8]*]
@p_str3 = private unnamed_addr constant [5 x i8] c"axis\00", align 1 ; [#uses=1 type=[5 x i8]*]
@p_str2 = private unnamed_addr constant [6 x i8] c"m_axi\00", align 1 ; [#uses=1 type=[6 x i8]*]
@p_str1 = private unnamed_addr constant [1 x i8] zeroinitializer, align 1 ; [#uses=72 type=[1 x i8]*]
@p_str = private unnamed_addr constant [10 x i8] c"s_axilite\00", align 1 ; [#uses=6 type=[10 x i8]*]

; [#uses=1]
declare i64 @llvm.part.select.i64(i64, i32, i32) nounwind readnone

; [#uses=1]
declare i35 @llvm.part.select.i35(i35, i32, i32) nounwind readnone

; [#uses=2]
declare i32 @llvm.part.select.i32(i32, i32, i32) nounwind readnone

; [#uses=34]
declare void @llvm.dbg.value(metadata, i64, metadata) nounwind readnone

; [#uses=1]
declare void @llvm.dbg.declare(metadata, metadata) nounwind readnone

; [#uses=0]
define void @axis_to_ddr_writer(i8* %inputStream_V, i64* %base_ddr_addr, i8* %frame_index_V, i32* %frame_count, i32 %base_address, i32 %frame_buffer_dim, i32 %frame_buffer_offset, i8 zeroext %frame_buffer_number, i1 zeroext %update_intr) {
codeRepl:
  call void (...)* @_ssdm_op_SpecBitsMap(i8* %inputStream_V), !map !67
  call void (...)* @_ssdm_op_SpecBitsMap(i64* %base_ddr_addr), !map !71
  call void (...)* @_ssdm_op_SpecBitsMap(i8* %frame_index_V), !map !77
  call void (...)* @_ssdm_op_SpecBitsMap(i32* %frame_count), !map !81
  call void (...)* @_ssdm_op_SpecBitsMap(i32 %base_address), !map !85
  call void (...)* @_ssdm_op_SpecBitsMap(i32 %frame_buffer_dim), !map !91
  call void (...)* @_ssdm_op_SpecBitsMap(i32 %frame_buffer_offset), !map !95
  call void (...)* @_ssdm_op_SpecBitsMap(i8 %frame_buffer_number), !map !99
  call void (...)* @_ssdm_op_SpecBitsMap(i1 %update_intr), !map !103
  call void (...)* @_ssdm_op_SpecTopModule([19 x i8]* @axis_to_ddr_writer_s) nounwind
  %update_intr_read = call i1 @_ssdm_op_Read.s_axilite.i1(i1 %update_intr) ; [#uses=1 type=i1]
  call void @llvm.dbg.value(metadata !{i1 %update_intr_read}, i64 0, metadata !107), !dbg !837 ; [debug line = 6:97] [debug variable = update_intr]
  %frame_buffer_number_s = call i8 @_ssdm_op_Read.s_axilite.i8(i8 %frame_buffer_number) ; [#uses=1 type=i8]
  call void @llvm.dbg.value(metadata !{i8 %frame_buffer_number_s}, i64 0, metadata !838), !dbg !839 ; [debug line = 6:71] [debug variable = frame_buffer_number]
  %frame_buffer_offset_s = call i32 @_ssdm_op_Read.s_axilite.i32(i32 %frame_buffer_offset) ; [#uses=2 type=i32]
  call void @llvm.dbg.value(metadata !{i32 %frame_buffer_offset_s}, i64 0, metadata !840), !dbg !841 ; [debug line = 6:47] [debug variable = frame_buffer_offset]
  %frame_buffer_dim_rea = call i32 @_ssdm_op_Read.s_axilite.i32(i32 %frame_buffer_dim) ; [#uses=1 type=i32]
  call void @llvm.dbg.value(metadata !{i32 %frame_buffer_dim_rea}, i64 0, metadata !842), !dbg !843 ; [debug line = 6:25] [debug variable = frame_buffer_dim]
  %base_address_read = call i32 @_ssdm_op_Read.s_axilite.i32(i32 %base_address) ; [#uses=1 type=i32]
  call void @llvm.dbg.value(metadata !{i32 %base_address_read}, i64 0, metadata !844), !dbg !845 ; [debug line = 6:7] [debug variable = base_address]
  %buffer = alloca [512 x i64], align 16          ; [#uses=3 type=[512 x i64]*]
  call void @llvm.dbg.value(metadata !{i8* %inputStream_V}, i64 0, metadata !846), !dbg !851 ; [debug line = 5:47] [debug variable = inputStream.V]
  call void @llvm.dbg.value(metadata !{i64* %base_ddr_addr}, i64 0, metadata !852), !dbg !853 ; [debug line = 5:74] [debug variable = base_ddr_addr]
  call void @llvm.dbg.value(metadata !{i8* %frame_index_V}, i64 0, metadata !854), !dbg !863 ; [debug line = 5:110] [debug variable = frame_index.V]
  call void @llvm.dbg.value(metadata !{i32* %frame_count}, i64 0, metadata !864), !dbg !865 ; [debug line = 5:137] [debug variable = frame_count]
  call void @llvm.dbg.value(metadata !{i32 %base_address}, i64 0, metadata !844), !dbg !845 ; [debug line = 6:7] [debug variable = base_address]
  call void @llvm.dbg.value(metadata !{i32 %frame_buffer_dim}, i64 0, metadata !842), !dbg !843 ; [debug line = 6:25] [debug variable = frame_buffer_dim]
  call void @llvm.dbg.value(metadata !{i32 %frame_buffer_offset}, i64 0, metadata !840), !dbg !841 ; [debug line = 6:47] [debug variable = frame_buffer_offset]
  call void @llvm.dbg.value(metadata !{i8 %frame_buffer_number}, i64 0, metadata !838), !dbg !839 ; [debug line = 6:71] [debug variable = frame_buffer_number]
  call void @llvm.dbg.value(metadata !{i1 %update_intr}, i64 0, metadata !107), !dbg !837 ; [debug line = 6:97] [debug variable = update_intr]
  call void (...)* @_ssdm_op_SpecInterface(i32 %base_address, [10 x i8]* @p_str, i32 0, i32 0, [1 x i8]* @p_str1, i32 0, i32 0, [1 x i8]* @p_str1, [1 x i8]* @p_str1, [1 x i8]* @p_str1, i32 0, i32 0, i32 0, i32 0, [1 x i8]* @p_str1, [1 x i8]* @p_str1) nounwind, !dbg !866 ; [debug line = 8:1]
  call void (...)* @_ssdm_op_SpecInterface(i32 0, [10 x i8]* @p_str, i32 0, i32 0, [1 x i8]* @p_str1, i32 0, i32 0, [1 x i8]* @p_str1, [1 x i8]* @p_str1, [1 x i8]* @p_str1, i32 0, i32 0, i32 0, i32 0, [1 x i8]* @p_str1, [1 x i8]* @p_str1) nounwind, !dbg !868 ; [debug line = 9:1]
  call void (...)* @_ssdm_op_SpecInterface(i1 %update_intr, [10 x i8]* @p_str, i32 0, i32 0, [1 x i8]* @p_str1, i32 0, i32 0, [1 x i8]* @p_str1, [1 x i8]* @p_str1, [1 x i8]* @p_str1, i32 0, i32 0, i32 0, i32 0, [1 x i8]* @p_str1, [1 x i8]* @p_str1) nounwind, !dbg !869 ; [debug line = 10:1]
  call void (...)* @_ssdm_op_SpecInterface(i32 %frame_buffer_offset, [10 x i8]* @p_str, i32 0, i32 0, [1 x i8]* @p_str1, i32 0, i32 0, [1 x i8]* @p_str1, [1 x i8]* @p_str1, [1 x i8]* @p_str1, i32 0, i32 0, i32 0, i32 0, [1 x i8]* @p_str1, [1 x i8]* @p_str1) nounwind, !dbg !870 ; [debug line = 11:1]
  call void (...)* @_ssdm_op_SpecInterface(i32 %frame_buffer_dim, [10 x i8]* @p_str, i32 0, i32 0, [1 x i8]* @p_str1, i32 0, i32 0, [1 x i8]* @p_str1, [1 x i8]* @p_str1, [1 x i8]* @p_str1, i32 0, i32 0, i32 0, i32 0, [1 x i8]* @p_str1, [1 x i8]* @p_str1) nounwind, !dbg !871 ; [debug line = 12:1]
  call void (...)* @_ssdm_op_SpecInterface(i8 %frame_buffer_number, [10 x i8]* @p_str, i32 0, i32 0, [1 x i8]* @p_str1, i32 0, i32 0, [1 x i8]* @p_str1, [1 x i8]* @p_str1, [1 x i8]* @p_str1, i32 0, i32 0, i32 0, i32 0, [1 x i8]* @p_str1, [1 x i8]* @p_str1) nounwind, !dbg !872 ; [debug line = 13:1]
  call void (...)* @_ssdm_op_SpecInterface(i64* %base_ddr_addr, [6 x i8]* @p_str2, i32 0, i32 0, [1 x i8]* @p_str1, i32 0, i32 32, [1 x i8]* @p_str1, [1 x i8]* @p_str1, [1 x i8]* @p_str1, i32 16, i32 16, i32 16, i32 16, [1 x i8]* @p_str1, [1 x i8]* @p_str1) nounwind, !dbg !873 ; [debug line = 23:1]
  call void (...)* @_ssdm_op_SpecInterface(i8* %inputStream_V, [5 x i8]* @p_str3, i32 1, i32 1, [5 x i8]* @p_str4, i32 0, i32 0, [1 x i8]* @p_str1, [1 x i8]* @p_str1, [1 x i8]* @p_str1, i32 0, i32 0, i32 0, i32 0, [1 x i8]* @p_str1, [1 x i8]* @p_str1) nounwind, !dbg !874 ; [debug line = 24:1]
  call void (...)* @_ssdm_op_SpecInterface(i32* %frame_count, [8 x i8]* @p_str5, i32 0, i32 0, [1 x i8]* @p_str1, i32 0, i32 0, [1 x i8]* @p_str1, [1 x i8]* @p_str1, [1 x i8]* @p_str1, i32 0, i32 0, i32 0, i32 0, [1 x i8]* @p_str1, [1 x i8]* @p_str1) nounwind, !dbg !875 ; [debug line = 25:1]
  call void (...)* @_ssdm_op_SpecInterface(i8* %frame_index_V, [8 x i8]* @p_str5, i32 0, i32 0, [1 x i8]* @p_str1, i32 0, i32 0, [1 x i8]* @p_str1, [1 x i8]* @p_str1, [1 x i8]* @p_str1, i32 0, i32 0, i32 0, i32 0, [1 x i8]* @p_str1, [1 x i8]* @p_str1) nounwind, !dbg !876 ; [debug line = 26:1]
  call void @llvm.dbg.declare(metadata !{[512 x i64]* %buffer}, metadata !877), !dbg !881 ; [debug line = 46:6] [debug variable = buffer]
  call void (...)* @_ssdm_op_SpecMemCore([512 x i64]* %buffer, [1 x i8]* @p_str1, [12 x i8]* @p_str6, [1 x i8]* @p_str1, i32 -1, [1 x i8]* @p_str1, [1 x i8]* @p_str1, [1 x i8]* @p_str1, [1 x i8]* @p_str1, [1 x i8]* @p_str1), !dbg !882 ; [debug line = 47:1]
  call void (...)* @_ssdm_op_SpecReset(i8* @inner_index_V, i32 1, [1 x i8]* @p_str1) nounwind, !dbg !883 ; [debug line = 52:1]
  call void @llvm.dbg.value(metadata !{i8* %frame_index_V}, i64 0, metadata !884), !dbg !887 ; [debug line = 267:46@58:2] [debug variable = ssdm_int<8 + 1024 * 0, false>.V]
  %t_V = load i8* @inner_index_V, align 1, !dbg !889 ; [#uses=4 type=i8] [debug line = 268:5@58:2]
  call void @llvm.dbg.value(metadata !{i8 %t_V}, i64 0, metadata !891), !dbg !895 ; [debug line = 1908:26@146:7] [debug variable = t.V]
  call void @_ssdm_op_Write.ap_none.volatile.i8P(i8* %frame_index_V, i8 %t_V), !dbg !889 ; [debug line = 268:5@58:2]
  call void (...)* @_ssdm_op_SpecReset(i32* @FRAME_BUFFER_DIM, i32 0, [1 x i8]* @p_str1) nounwind, !dbg !897 ; [debug line = 61:1]
  %FRAME_OFFSET_load = load i32* @FRAME_OFFSET, align 4, !dbg !898 ; [#uses=1 type=i32] [debug line = 63:1]
  call void (...)* @_ssdm_op_SpecReset(i32* @FRAME_OFFSET, i32 0, [1 x i8]* @p_str1) nounwind, !dbg !898 ; [debug line = 63:1]
  call void (...)* @_ssdm_op_SpecReset(i8* @FRAME_BUFFER_NUMBER, i32 0, [1 x i8]* @p_str1) nounwind, !dbg !899 ; [debug line = 65:1]
  %BASE_ADDRESS_load = load i29* @BASE_ADDRESS, align 4 ; [#uses=1 type=i29]
  call void (...)* @_ssdm_op_SpecReset(i29* @BASE_ADDRESS, i32 0, [1 x i8]* @p_str1) nounwind, !dbg !900 ; [debug line = 67:1]
  br i1 %update_intr_read, label %0, label %._crit_edge98, !dbg !901 ; [debug line = 72:2]

; <label>:0                                       ; preds = %codeRepl
  store i32 %frame_buffer_dim_rea, i32* @FRAME_BUFFER_DIM, align 4, !dbg !902 ; [debug line = 75:3]
  store i8 %frame_buffer_number_s, i8* @FRAME_BUFFER_NUMBER, align 1, !dbg !904 ; [debug line = 76:3]
  store i32 %frame_buffer_offset_s, i32* @FRAME_OFFSET, align 4, !dbg !905 ; [debug line = 77:3]
  %tmp_3_cast4 = call i29 @_ssdm_op_PartSelect.i29.i32.i32.i32(i32 %base_address_read, i32 3, i32 31) ; [#uses=2 type=i29]
  store i29 %tmp_3_cast4, i29* @BASE_ADDRESS, align 4, !dbg !906 ; [debug line = 78:3]
  br label %._crit_edge98, !dbg !907              ; [debug line = 79:2]

._crit_edge98:                                    ; preds = %0, %codeRepl
  %i_op_assign = phi i32 [ %frame_buffer_offset_s, %0 ], [ %FRAME_OFFSET_load, %codeRepl ] ; [#uses=1 type=i32]
  %i_op_assign_1 = phi i29 [ %tmp_3_cast4, %0 ], [ %BASE_ADDRESS_load, %codeRepl ] ; [#uses=1 type=i29]
  %i_op_assign_1_cast = zext i29 %i_op_assign_1 to i32, !dbg !908 ; [#uses=1 type=i32] [debug line = 3524:0@83:30]
  call void @llvm.dbg.value(metadata !{i32 %i_op_assign}, i64 0, metadata !1796), !dbg !908 ; [debug line = 3524:0@83:30] [debug variable = i_op]
  call void @llvm.dbg.value(metadata !{i32 %i_op_assign}, i64 0, metadata !1797), !dbg !1799 ; [debug line = 1522:75@3524:0@83:30] [debug variable = op]
  call void @llvm.dbg.value(metadata !{i32 %i_op_assign}, i64 0, metadata !1802), !dbg !1804 ; [debug line = 1522:75@1522:95@3524:0@83:30] [debug variable = op]
  %lhs_V_cast = zext i8 %t_V to i35, !dbg !1806   ; [#uses=1 type=i35] [debug line = 1506:93@1506:109@3423:0@3524:0@83:30]
  %rhs_V_cast = zext i32 %i_op_assign to i35, !dbg !1817 ; [#uses=1 type=i35] [debug line = 1506:93@1506:109@3423:0@3524:0@83:30]
  %r_V = mul i35 %rhs_V_cast, %lhs_V_cast, !dbg !1811 ; [#uses=1 type=i35] [debug line = 3423:0@3524:0@83:30]
  call void @llvm.dbg.value(metadata !{i35 %r_V}, i64 0, metadata !1822), !dbg !1811 ; [debug line = 3423:0@3524:0@83:30] [debug variable = r.V]
  call void @llvm.dbg.value(metadata !{i29 %i_op_assign_1}, i64 0, metadata !1829), !dbg !2110 ; [debug line = 3524:0@83:30] [debug variable = i_op]
  call void @llvm.dbg.value(metadata !{i29 %i_op_assign_1}, i64 0, metadata !1797), !dbg !2111 ; [debug line = 1522:75@3524:0@83:30] [debug variable = op]
  call void @llvm.dbg.value(metadata !{i29 %i_op_assign_1}, i64 0, metadata !1802), !dbg !2114 ; [debug line = 1522:75@1522:95@3524:0@83:30] [debug variable = op]
  %tmp_8 = call i32 @_ssdm_op_PartSelect.i32.i35.i32.i32(i35 %r_V, i32 3, i32 34), !dbg !1795 ; [#uses=1 type=i32] [debug line = 83:30]
  %offset = add i32 %tmp_8, %i_op_assign_1_cast, !dbg !1795 ; [#uses=1 type=i32] [debug line = 83:30]
  call void @llvm.dbg.value(metadata !{i32 %offset}, i64 0, metadata !2116), !dbg !1795 ; [debug line = 83:30] [debug variable = offset]
  br label %1, !dbg !2117                         ; [debug line = 90:17]

; <label>:1                                       ; preds = %memcpy.tail, %._crit_edge98
  %offset1 = phi i32 [ %offset, %._crit_edge98 ], [ %offset_1, %memcpy.tail ] ; [#uses=2 type=i32]
  %idx = phi i32 [ 0, %._crit_edge98 ], [ %idx_1, %memcpy.tail ] ; [#uses=2 type=i32]
  %FRAME_BUFFER_DIM_loa = load i32* @FRAME_BUFFER_DIM, align 4, !dbg !2117 ; [#uses=1 type=i32] [debug line = 90:17]
  %tmp_s = call i20 @_ssdm_op_PartSelect.i20.i32.i32.i32(i32 %FRAME_BUFFER_DIM_loa, i32 12, i32 31), !dbg !2117 ; [#uses=1 type=i20] [debug line = 90:17]
  %tmp_3 = zext i20 %tmp_s to i32, !dbg !2117     ; [#uses=1 type=i32] [debug line = 90:17]
  %tmp_1 = icmp ult i32 %idx, %tmp_3, !dbg !2117  ; [#uses=1 type=i1] [debug line = 90:17]
  %idx_1 = add nsw i32 %idx, 1, !dbg !2119        ; [#uses=1 type=i32] [debug line = 90:50]
  br i1 %tmp_1, label %.preheader.preheader, label %._crit_edge99, !dbg !2117 ; [debug line = 90:17]

.preheader.preheader:                             ; preds = %1
  br label %.preheader

.preheader:                                       ; preds = %ifFalse, %.preheader.preheader
  %indvar_flatten = phi i13 [ %indvar_flatten_next, %ifFalse ], [ 0, %.preheader.preheader ] ; [#uses=2 type=i13]
  %j = phi i10 [ %j_mid2, %ifFalse ], [ 0, %.preheader.preheader ] ; [#uses=2 type=i10]
  %temp = phi i64 [ %temp_2, %ifFalse ], [ 0, %.preheader.preheader ] ; [#uses=1 type=i64]
  %i = phi i4 [ %i_1, %ifFalse ], [ 0, %.preheader.preheader ] ; [#uses=2 type=i4]
  %exitcond_flatten = icmp eq i13 %indvar_flatten, -4096 ; [#uses=1 type=i1]
  %indvar_flatten_next = add i13 %indvar_flatten, 1 ; [#uses=1 type=i13]
  br i1 %exitcond_flatten, label %2, label %.preheader95

ifTrue:                                           ; preds = %.preheader95
  %tmp_10 = zext i10 %j_mid2 to i64, !dbg !2120   ; [#uses=1 type=i64] [debug line = 134:4]
  %buffer_addr = getelementptr inbounds [512 x i64]* %buffer, i64 0, i64 %tmp_10, !dbg !2120 ; [#uses=1 type=i64*] [debug line = 134:4]
  store i64 %temp_2, i64* %buffer_addr, align 8, !dbg !2120 ; [debug line = 134:4]
  br label %ifFalse

ifFalse:                                          ; preds = %.preheader95, %ifTrue
  br label %.preheader

.preheader95:                                     ; preds = %.preheader
  %j_s = add i10 %j, 1, !dbg !2124                ; [#uses=1 type=i10] [debug line = 97:42]
  %tmp_4 = icmp eq i4 %i, -8, !dbg !2125          ; [#uses=3 type=i1] [debug line = 105:17]
  %j_mid2 = select i1 %tmp_4, i10 %j_s, i10 %j    ; [#uses=2 type=i10]
  %tmp_6 = call i32 (...)* @_ssdm_op_SpecRegionBegin([12 x i8]* @p_str7), !dbg !2127 ; [#uses=1 type=i32] [debug line = 106:5]
  call void (...)* @_ssdm_op_SpecPipeline(i32 1, i32 1, i32 1, i32 0, [1 x i8]* @p_str1) nounwind, !dbg !2129 ; [debug line = 122:1]
  call void @llvm.dbg.value(metadata !{i8* %inputStream_V}, i64 0, metadata !2130), !dbg !2135 ; [debug line = 129:56@123:13] [debug variable = stream<unsigned char>.V]
  %tmp = call i8 @_ssdm_op_Read.axis.volatile.i8P(i8* %inputStream_V), !dbg !2137 ; [#uses=1 type=i8] [debug line = 131:9@123:13]
  call void @llvm.dbg.value(metadata !{i8 %tmp}, i64 0, metadata !2139), !dbg !2137 ; [debug line = 131:9@123:13] [debug variable = tmp]
  %tmp_11 = call i56 @_ssdm_op_PartSelect.i56.i64.i32.i32(i64 %temp, i32 8, i32 63), !dbg !2140 ; [#uses=1 type=i56] [debug line = 128:6]
  %temp_1 = select i1 %tmp_4, i56 0, i56 %tmp_11  ; [#uses=1 type=i56]
  call void @llvm.dbg.value(metadata !{i56 %temp_1}, i64 0, metadata !2142), !dbg !2140 ; [debug line = 128:6] [debug variable = temp]
  %temp_2 = call i64 @_ssdm_op_BitConcatenate.i64.i8.i56(i8 %tmp, i56 %temp_1), !dbg !2143 ; [#uses=2 type=i64] [debug line = 129:6]
  call void @llvm.dbg.value(metadata !{i64 %temp_2}, i64 0, metadata !2142), !dbg !2143 ; [debug line = 129:6] [debug variable = temp]
  %empty = call i32 (...)* @_ssdm_op_SpecRegionEnd([12 x i8]* @p_str7, i32 %tmp_6), !dbg !2144 ; [#uses=0 type=i32] [debug line = 133:4]
  %i_op = add i4 %i, 1, !dbg !2145                ; [#uses=1 type=i4] [debug line = 105:54]
  %i_1 = select i1 %tmp_4, i4 1, i4 %i_op, !dbg !2145 ; [#uses=2 type=i4] [debug line = 105:54]
  call void @llvm.dbg.value(metadata !{i4 %i_1}, i64 0, metadata !2146), !dbg !2145 ; [debug line = 105:54] [debug variable = i]
  %ifzero = icmp eq i4 %i_1, -8                   ; [#uses=1 type=i1]
  br i1 %ifzero, label %ifTrue, label %ifFalse

; <label>:2                                       ; preds = %.preheader
  %tmp_9 = sext i32 %offset1 to i64, !dbg !2147   ; [#uses=1 type=i64] [debug line = 138:3]
  %base_ddr_addr_addr = getelementptr inbounds i64* %base_ddr_addr, i64 %tmp_9, !dbg !2147 ; [#uses=3 type=i64*] [debug line = 138:3]
  %base_ddr_addr_addr_1 = call i1 @_ssdm_op_WriteReq.m_axi.i64P(i64* %base_ddr_addr_addr, i32 512), !dbg !2147 ; [#uses=0 type=i1] [debug line = 138:3]
  br label %burst.wr.header

burst.wr.header:                                  ; preds = %burst.wr.body, %2
  %indvar = phi i10 [ 0, %2 ], [ %indvar_next, %burst.wr.body ] ; [#uses=3 type=i10]
  %exitcond = icmp eq i10 %indvar, -512           ; [#uses=1 type=i1]
  %empty_9 = call i32 (...)* @_ssdm_op_SpecLoopTripCount(i64 512, i64 512, i64 512) ; [#uses=0 type=i32]
  %indvar_next = add i10 %indvar, 1               ; [#uses=1 type=i10]
  br i1 %exitcond, label %memcpy.tail, label %burst.wr.body

burst.wr.body:                                    ; preds = %burst.wr.header
  %burstwrite_rbegin = call i32 (...)* @_ssdm_op_SpecRegionBegin([18 x i8]* @burstwrite_OC_region) nounwind ; [#uses=1 type=i32]
  call void (...)* @_ssdm_op_SpecPipeline(i32 1, i32 1, i32 1, i32 0, [1 x i8]* @p_str8)
  %empty_10 = call i32 (...)* @_ssdm_op_SpecLoopName([32 x i8]* @memcpy_OC_base_ddr_a) nounwind ; [#uses=0 type=i32]
  %indvar1 = zext i10 %indvar to i64              ; [#uses=1 type=i64]
  %buffer_addr_1 = getelementptr [512 x i64]* %buffer, i64 0, i64 %indvar1, !dbg !2147 ; [#uses=1 type=i64*] [debug line = 138:3]
  %buffer_load = load i64* %buffer_addr_1, align 8, !dbg !2147 ; [#uses=1 type=i64] [debug line = 138:3]
  call void @_ssdm_op_Write.m_axi.i64P(i64* %base_ddr_addr_addr, i64 %buffer_load, i8 -1), !dbg !2147 ; [debug line = 138:3]
  %burstwrite_rend = call i32 (...)* @_ssdm_op_SpecRegionEnd([18 x i8]* @burstwrite_OC_region, i32 %burstwrite_rbegin) nounwind ; [#uses=0 type=i32]
  br label %burst.wr.header

memcpy.tail:                                      ; preds = %burst.wr.header
  %base_ddr_addr_addr_1_1 = call i1 @_ssdm_op_WriteResp.m_axi.i64P(i64* %base_ddr_addr_addr), !dbg !2147 ; [#uses=0 type=i1] [debug line = 138:3]
  %offset_1 = add i32 %offset1, 512, !dbg !2148   ; [#uses=1 type=i32] [debug line = 140:3]
  call void @llvm.dbg.value(metadata !{i32 %offset_1}, i64 0, metadata !2116), !dbg !2148 ; [debug line = 140:3] [debug variable = offset]
  call void @llvm.dbg.value(metadata !{i32 %idx_1}, i64 0, metadata !2149), !dbg !2119 ; [debug line = 90:50] [debug variable = idx]
  br label %1, !dbg !2119                         ; [debug line = 90:50]

._crit_edge99:                                    ; preds = %1
  %FRAME_BUFFER_NUMBER_s = load i8* @FRAME_BUFFER_NUMBER, align 1, !dbg !2150 ; [#uses=1 type=i8] [debug line = 144:6]
  %tmp_2_cast = zext i8 %FRAME_BUFFER_NUMBER_s to i9, !dbg !2150 ; [#uses=1 type=i9] [debug line = 144:6]
  %op2_assign = add i9 %tmp_2_cast, -1, !dbg !2150 ; [#uses=1 type=i9] [debug line = 144:6]
  call void @llvm.dbg.value(metadata !{i9 %op2_assign}, i64 0, metadata !2151), !dbg !2155 ; [debug line = 3559:0@144:6] [debug variable = op2]
  call void @llvm.dbg.value(metadata !{i9 %op2_assign}, i64 0, metadata !2156), !dbg !2409 ; [debug line = 1521:66@3559:0@144:6] [debug variable = op]
  call void @llvm.dbg.value(metadata !{i9 %op2_assign}, i64 0, metadata !2412), !dbg !2414 ; [debug line = 1521:66@1521:86@3559:0@144:6] [debug variable = op]
  %tmp_4_cast = zext i8 %t_V to i9, !dbg !2416    ; [#uses=1 type=i9] [debug line = 2034:5@3559:0@144:6]
  %tmp_5 = icmp eq i9 %tmp_4_cast, %op2_assign, !dbg !2416 ; [#uses=1 type=i1] [debug line = 2034:5@3559:0@144:6]
  %tmp_7 = add i8 %t_V, 1, !dbg !2421             ; [#uses=1 type=i8] [debug line = 1879:145@1909:5@146:7]
  %p_tmp_7 = select i1 %tmp_5, i8 0, i8 %tmp_7, !dbg !2150 ; [#uses=1 type=i8] [debug line = 144:6]
  store i8 %p_tmp_7, i8* @inner_index_V, align 1, !dbg !2679 ; [debug line = 281:5@145:3]
  %frame_count_inner_lo = load i32* @frame_count_inner, align 4, !dbg !2683 ; [#uses=1 type=i32] [debug line = 153:2]
  %tmp_2 = add nsw i32 %frame_count_inner_lo, 1, !dbg !2683 ; [#uses=2 type=i32] [debug line = 153:2]
  store i32 %tmp_2, i32* @frame_count_inner, align 4, !dbg !2683 ; [debug line = 153:2]
  call void @_ssdm_op_Write.ap_none.i32P(i32* %frame_count, i32 %tmp_2), !dbg !2684 ; [debug line = 154:2]
  ret void, !dbg !2685                            ; [debug line = 156:1]
}

; [#uses=1]
define weak i1 @_ssdm_op_WriteResp.m_axi.i64P(i64*) {
entry:
  ret i1 true
}

; [#uses=1]
define weak i1 @_ssdm_op_WriteReq.m_axi.i64P(i64*, i32) {
entry:
  ret i1 true
}

; [#uses=1]
define weak void @_ssdm_op_Write.m_axi.i64P(i64*, i64, i8) {
entry:
  ret void
}

; [#uses=1]
define weak void @_ssdm_op_Write.ap_none.volatile.i8P(i8*, i8) {
entry:
  store i8 %1, i8* %0
  ret void
}

; [#uses=1]
define weak void @_ssdm_op_Write.ap_none.i32P(i32*, i32) {
entry:
  store i32 %1, i32* %0
  ret void
}

; [#uses=1]
define weak void @_ssdm_op_SpecTopModule(...) {
entry:
  ret void
}

; [#uses=5]
define weak void @_ssdm_op_SpecReset(...) nounwind {
entry:
  ret void
}

; [#uses=2]
define weak i32 @_ssdm_op_SpecRegionEnd(...) {
entry:
  ret i32 0
}

; [#uses=2]
define weak i32 @_ssdm_op_SpecRegionBegin(...) {
entry:
  ret i32 0
}

; [#uses=2]
define weak void @_ssdm_op_SpecPipeline(...) nounwind {
entry:
  ret void
}

; [#uses=1]
define weak void @_ssdm_op_SpecMemCore(...) {
entry:
  ret void
}

; [#uses=1]
define weak i32 @_ssdm_op_SpecLoopTripCount(...) {
entry:
  ret i32 0
}

; [#uses=1]
define weak i32 @_ssdm_op_SpecLoopName(...) {
entry:
  ret i32 0
}

; [#uses=10]
define weak void @_ssdm_op_SpecInterface(...) nounwind {
entry:
  ret void
}

; [#uses=9]
define weak void @_ssdm_op_SpecBitsMap(...) {
entry:
  ret void
}

; [#uses=1]
define weak i8 @_ssdm_op_Read.s_axilite.i8(i8) {
entry:
  ret i8 %0
}

; [#uses=3]
define weak i32 @_ssdm_op_Read.s_axilite.i32(i32) {
entry:
  ret i32 %0
}

; [#uses=1]
define weak i1 @_ssdm_op_Read.s_axilite.i1(i1) {
entry:
  ret i1 %0
}

; [#uses=1]
define weak i8 @_ssdm_op_Read.axis.volatile.i8P(i8*) {
entry:
  %empty = load i8* %0                            ; [#uses=1 type=i8]
  ret i8 %empty
}

; [#uses=1]
define weak i56 @_ssdm_op_PartSelect.i56.i64.i32.i32(i64, i32, i32) nounwind readnone {
entry:
  %empty = call i64 @llvm.part.select.i64(i64 %0, i32 %1, i32 %2) ; [#uses=1 type=i64]
  %empty_11 = trunc i64 %empty to i56             ; [#uses=1 type=i56]
  ret i56 %empty_11
}

; [#uses=1]
define weak i32 @_ssdm_op_PartSelect.i32.i35.i32.i32(i35, i32, i32) nounwind readnone {
entry:
  %empty = call i35 @llvm.part.select.i35(i35 %0, i32 %1, i32 %2) ; [#uses=1 type=i35]
  %empty_12 = trunc i35 %empty to i32             ; [#uses=1 type=i32]
  ret i32 %empty_12
}

; [#uses=1]
define weak i29 @_ssdm_op_PartSelect.i29.i32.i32.i32(i32, i32, i32) nounwind readnone {
entry:
  %empty = call i32 @llvm.part.select.i32(i32 %0, i32 %1, i32 %2) ; [#uses=1 type=i32]
  %empty_13 = trunc i32 %empty to i29             ; [#uses=1 type=i29]
  ret i29 %empty_13
}

; [#uses=1]
define weak i20 @_ssdm_op_PartSelect.i20.i32.i32.i32(i32, i32, i32) nounwind readnone {
entry:
  %empty = call i32 @llvm.part.select.i32(i32 %0, i32 %1, i32 %2) ; [#uses=1 type=i32]
  %empty_14 = trunc i32 %empty to i20             ; [#uses=1 type=i20]
  ret i20 %empty_14
}

; [#uses=1]
define weak i64 @_ssdm_op_BitConcatenate.i64.i8.i56(i8, i56) nounwind readnone {
entry:
  %empty = zext i8 %0 to i64                      ; [#uses=1 type=i64]
  %empty_15 = zext i56 %1 to i64                  ; [#uses=1 type=i64]
  %empty_16 = shl i64 %empty, 56                  ; [#uses=1 type=i64]
  %empty_17 = or i64 %empty_16, %empty_15         ; [#uses=1 type=i64]
  ret i64 %empty_17
}

!opencl.kernels = !{!0, !7, !13, !13, !15, !21, !24, !26, !13, !13, !15, !32, !15, !15, !34, !37, !37, !15, !39, !15, !15, !15, !41, !41, !43, !43, !45, !48, !48, !15, !50, !15, !15, !15, !52, !54, !43, !43, !56, !56, !24, !58, !58, !15, !15}
!hls.encrypted.func = !{}
!llvm.map.gv = !{!60}

!0 = metadata !{null, metadata !1, metadata !2, metadata !3, metadata !4, metadata !5, metadata !6}
!1 = metadata !{metadata !"kernel_arg_addr_space", i32 0, i32 1, i32 1, i32 1, i32 0, i32 0, i32 0, i32 0, i32 0}
!2 = metadata !{metadata !"kernel_arg_access_qual", metadata !"none", metadata !"none", metadata !"none", metadata !"none", metadata !"none", metadata !"none", metadata !"none", metadata !"none", metadata !"none"}
!3 = metadata !{metadata !"kernel_arg_type", metadata !"hls::stream<DATA_IN> &", metadata !"u64*", metadata !"ap_uint<8>*", metadata !"uint*", metadata !"u32", metadata !"u32", metadata !"u32", metadata !"u8", metadata !"_Bool"}
!4 = metadata !{metadata !"kernel_arg_type_qual", metadata !"", metadata !"volatile", metadata !"volatile", metadata !"", metadata !"", metadata !"", metadata !"", metadata !"", metadata !""}
!5 = metadata !{metadata !"kernel_arg_name", metadata !"inputStream", metadata !"base_ddr_addr", metadata !"frame_index", metadata !"frame_count", metadata !"base_address", metadata !"frame_buffer_dim", metadata !"frame_buffer_offset", metadata !"frame_buffer_number", metadata !"update_intr"}
!6 = metadata !{metadata !"reqd_work_group_size", i32 1, i32 1, i32 1}
!7 = metadata !{null, metadata !8, metadata !9, metadata !10, metadata !11, metadata !12, metadata !6}
!8 = metadata !{metadata !"kernel_arg_addr_space", i32 0}
!9 = metadata !{metadata !"kernel_arg_access_qual", metadata !"none"}
!10 = metadata !{metadata !"kernel_arg_type", metadata !"int"}
!11 = metadata !{metadata !"kernel_arg_type_qual", metadata !""}
!12 = metadata !{metadata !"kernel_arg_name", metadata !""}
!13 = metadata !{null, metadata !8, metadata !9, metadata !10, metadata !11, metadata !14, metadata !6}
!14 = metadata !{metadata !"kernel_arg_name", metadata !"op"}
!15 = metadata !{null, metadata !16, metadata !17, metadata !18, metadata !19, metadata !20, metadata !6}
!16 = metadata !{metadata !"kernel_arg_addr_space"}
!17 = metadata !{metadata !"kernel_arg_access_qual"}
!18 = metadata !{metadata !"kernel_arg_type"}
!19 = metadata !{metadata !"kernel_arg_type_qual"}
!20 = metadata !{metadata !"kernel_arg_name"}
!21 = metadata !{null, metadata !8, metadata !9, metadata !22, metadata !11, metadata !23, metadata !6}
!22 = metadata !{metadata !"kernel_arg_type", metadata !"const ap_int_base<1, false> &"}
!23 = metadata !{metadata !"kernel_arg_name", metadata !"op2"}
!24 = metadata !{null, metadata !8, metadata !9, metadata !25, metadata !11, metadata !23, metadata !6}
!25 = metadata !{metadata !"kernel_arg_type", metadata !"const ap_uint<8> &"}
!26 = metadata !{null, metadata !27, metadata !28, metadata !29, metadata !30, metadata !31, metadata !6}
!27 = metadata !{metadata !"kernel_arg_addr_space", i32 0, i32 0}
!28 = metadata !{metadata !"kernel_arg_access_qual", metadata !"none", metadata !"none"}
!29 = metadata !{metadata !"kernel_arg_type", metadata !"const ap_int_base<8, false> &", metadata !"int"}
!30 = metadata !{metadata !"kernel_arg_type_qual", metadata !"", metadata !""}
!31 = metadata !{metadata !"kernel_arg_name", metadata !"op", metadata !"op2"}
!32 = metadata !{null, metadata !8, metadata !9, metadata !33, metadata !11, metadata !23, metadata !6}
!33 = metadata !{metadata !"kernel_arg_type", metadata !"const ap_int_base<32, true> &"}
!34 = metadata !{null, metadata !27, metadata !28, metadata !35, metadata !30, metadata !36, metadata !6}
!35 = metadata !{metadata !"kernel_arg_type", metadata !"uint", metadata !"const ap_int_base<40, false> &"}
!36 = metadata !{metadata !"kernel_arg_name", metadata !"i_op", metadata !"op"}
!37 = metadata !{null, metadata !8, metadata !9, metadata !38, metadata !11, metadata !14, metadata !6}
!38 = metadata !{metadata !"kernel_arg_type", metadata !"uint"}
!39 = metadata !{null, metadata !27, metadata !28, metadata !40, metadata !30, metadata !31, metadata !6}
!40 = metadata !{metadata !"kernel_arg_type", metadata !"const ap_int_base<32, false> &", metadata !"const ap_int_base<40, false> &"}
!41 = metadata !{null, metadata !8, metadata !9, metadata !42, metadata !11, metadata !14, metadata !6}
!42 = metadata !{metadata !"kernel_arg_type", metadata !"const ap_int_base<40, false> &"}
!43 = metadata !{null, metadata !8, metadata !9, metadata !44, metadata !11, metadata !14, metadata !6}
!44 = metadata !{metadata !"kernel_arg_type", metadata !"const ap_int_base<32, false> &"}
!45 = metadata !{null, metadata !27, metadata !28, metadata !46, metadata !30, metadata !47, metadata !6}
!46 = metadata !{metadata !"kernel_arg_type", metadata !"const ap_int_base<40, false> &", metadata !"ulong"}
!47 = metadata !{metadata !"kernel_arg_name", metadata !"op", metadata !"i_op"}
!48 = metadata !{null, metadata !8, metadata !9, metadata !49, metadata !11, metadata !14, metadata !6}
!49 = metadata !{metadata !"kernel_arg_type", metadata !"ulong"}
!50 = metadata !{null, metadata !27, metadata !28, metadata !51, metadata !30, metadata !31, metadata !6}
!51 = metadata !{metadata !"kernel_arg_type", metadata !"const ap_int_base<40, false> &", metadata !"const ap_int_base<64, false> &"}
!52 = metadata !{null, metadata !27, metadata !28, metadata !53, metadata !30, metadata !47, metadata !6}
!53 = metadata !{metadata !"kernel_arg_type", metadata !"const ap_int_base<8, false> &", metadata !"uint"}
!54 = metadata !{null, metadata !27, metadata !28, metadata !55, metadata !30, metadata !31, metadata !6}
!55 = metadata !{metadata !"kernel_arg_type", metadata !"const ap_int_base<8, false> &", metadata !"const ap_int_base<32, false> &"}
!56 = metadata !{null, metadata !8, metadata !9, metadata !57, metadata !11, metadata !14, metadata !6}
!57 = metadata !{metadata !"kernel_arg_type", metadata !"const ap_int_base<8, false> &"}
!58 = metadata !{null, metadata !8, metadata !9, metadata !10, metadata !11, metadata !59, metadata !6}
!59 = metadata !{metadata !"kernel_arg_name", metadata !"val"}
!60 = metadata !{metadata !61, [0 x i32]* @llvm_global_ctors_0}
!61 = metadata !{metadata !62}
!62 = metadata !{i32 0, i32 31, metadata !63}
!63 = metadata !{metadata !64}
!64 = metadata !{metadata !"llvm.global_ctors.0", metadata !65, metadata !"", i32 0, i32 31}
!65 = metadata !{metadata !66}
!66 = metadata !{i32 0, i32 0, i32 1}
!67 = metadata !{metadata !68}
!68 = metadata !{i32 0, i32 7, metadata !69}
!69 = metadata !{metadata !70}
!70 = metadata !{metadata !"inputStream.V", metadata !65, metadata !"unsigned char", i32 0, i32 7}
!71 = metadata !{metadata !72}
!72 = metadata !{i32 0, i32 63, metadata !73}
!73 = metadata !{metadata !74}
!74 = metadata !{metadata !"base_ddr_addr", metadata !75, metadata !"long long unsigned int", i32 0, i32 63}
!75 = metadata !{metadata !76}
!76 = metadata !{i32 0, i32 31, i32 1}
!77 = metadata !{metadata !78}
!78 = metadata !{i32 0, i32 7, metadata !79}
!79 = metadata !{metadata !80}
!80 = metadata !{metadata !"frame_index.V", metadata !65, metadata !"uint8", i32 0, i32 7}
!81 = metadata !{metadata !82}
!82 = metadata !{i32 0, i32 31, metadata !83}
!83 = metadata !{metadata !84}
!84 = metadata !{metadata !"frame_count", metadata !65, metadata !"unsigned int", i32 0, i32 31}
!85 = metadata !{metadata !86}
!86 = metadata !{i32 0, i32 31, metadata !87}
!87 = metadata !{metadata !88}
!88 = metadata !{metadata !"base_address", metadata !89, metadata !"unsigned int", i32 0, i32 31}
!89 = metadata !{metadata !90}
!90 = metadata !{i32 0, i32 0, i32 0}
!91 = metadata !{metadata !92}
!92 = metadata !{i32 0, i32 31, metadata !93}
!93 = metadata !{metadata !94}
!94 = metadata !{metadata !"frame_buffer_dim", metadata !89, metadata !"unsigned int", i32 0, i32 31}
!95 = metadata !{metadata !96}
!96 = metadata !{i32 0, i32 31, metadata !97}
!97 = metadata !{metadata !98}
!98 = metadata !{metadata !"frame_buffer_offset", metadata !89, metadata !"unsigned int", i32 0, i32 31}
!99 = metadata !{metadata !100}
!100 = metadata !{i32 0, i32 7, metadata !101}
!101 = metadata !{metadata !102}
!102 = metadata !{metadata !"frame_buffer_number", metadata !89, metadata !"unsigned char", i32 0, i32 7}
!103 = metadata !{metadata !104}
!104 = metadata !{i32 0, i32 0, metadata !105}
!105 = metadata !{metadata !106}
!106 = metadata !{metadata !"update_intr", metadata !89, metadata !"bool", i32 0, i32 0}
!107 = metadata !{i32 786689, metadata !108, metadata !"update_intr", metadata !109, i32 150994950, metadata !151, i32 0, i32 0} ; [ DW_TAG_arg_variable ]
!108 = metadata !{i32 786478, i32 0, metadata !109, metadata !"axis_to_ddr_writer", metadata !"axis_to_ddr_writer", metadata !"_Z18axis_to_ddr_writerRN3hls6streamIhEEPVyPV7ap_uintILi8EEPjjjjhb", metadata !109, i32 5, metadata !110, i1 false, i1 true, i32 0, i32 0, null, i32 256, i1 false, null, null, null, metadata !123, i32 7} ; [ DW_TAG_subprogram ]
!109 = metadata !{i32 786473, metadata !"axis_to_ddr_writer.cpp", metadata !"/home/andrea/Documenti/vision/Ultrascale/hls/DDR/AXIS_TO_DDR_WRITER_AXILITE", null} ; [ DW_TAG_file_type ]
!110 = metadata !{i32 786453, i32 0, metadata !"", i32 0, i32 0, i64 0, i64 0, i64 0, i32 0, null, metadata !111, i32 0, i32 0} ; [ DW_TAG_subroutine_type ]
!111 = metadata !{null, metadata !112, metadata !171, metadata !175, metadata !834, metadata !835, metadata !835, metadata !835, metadata !836, metadata !151}
!112 = metadata !{i32 786448, null, null, null, i32 0, i64 0, i64 0, i64 0, i32 0, metadata !113} ; [ DW_TAG_reference_type ]
!113 = metadata !{i32 786434, metadata !114, metadata !"stream<unsigned char>", metadata !115, i32 79, i64 8, i64 8, i32 0, i32 0, null, metadata !116, i32 0, null, metadata !169} ; [ DW_TAG_class_type ]
!114 = metadata !{i32 786489, null, metadata !"hls", metadata !115, i32 69} ; [ DW_TAG_namespace ]
!115 = metadata !{i32 786473, metadata !"/opt/Xilinx/Vivado/2018.1/common/technology/autopilot/hls_stream.h", metadata !"/home/andrea/Documenti/vision/Ultrascale/hls/DDR/AXIS_TO_DDR_WRITER_AXILITE", null} ; [ DW_TAG_file_type ]
!116 = metadata !{metadata !117, metadata !119, metadata !125, metadata !131, metadata !136, metadata !139, metadata !143, metadata !148, metadata !153, metadata !154, metadata !155, metadata !158, metadata !161, metadata !162, metadata !165}
!117 = metadata !{i32 786445, metadata !113, metadata !"V", metadata !115, i32 163, i64 8, i64 8, i64 0, i32 0, metadata !118} ; [ DW_TAG_member ]
!118 = metadata !{i32 786468, null, metadata !"unsigned char", null, i32 0, i64 8, i64 8, i64 0, i32 0, i32 8} ; [ DW_TAG_base_type ]
!119 = metadata !{i32 786478, i32 0, metadata !113, metadata !"stream", metadata !"stream", metadata !"", metadata !115, i32 83, metadata !120, i1 false, i1 false, i32 0, i32 0, null, i32 256, i1 false, null, null, i32 0, metadata !123, i32 83} ; [ DW_TAG_subprogram ]
!120 = metadata !{i32 786453, i32 0, metadata !"", i32 0, i32 0, i64 0, i64 0, i64 0, i32 0, null, metadata !121, i32 0, i32 0} ; [ DW_TAG_subroutine_type ]
!121 = metadata !{null, metadata !122}
!122 = metadata !{i32 786447, i32 0, metadata !"", i32 0, i32 0, i64 64, i64 64, i64 0, i32 64, metadata !113} ; [ DW_TAG_pointer_type ]
!123 = metadata !{metadata !124}
!124 = metadata !{i32 786468}                     ; [ DW_TAG_base_type ]
!125 = metadata !{i32 786478, i32 0, metadata !113, metadata !"stream", metadata !"stream", metadata !"", metadata !115, i32 86, metadata !126, i1 false, i1 false, i32 0, i32 0, null, i32 256, i1 false, null, null, i32 0, metadata !123, i32 86} ; [ DW_TAG_subprogram ]
!126 = metadata !{i32 786453, i32 0, metadata !"", i32 0, i32 0, i64 0, i64 0, i64 0, i32 0, null, metadata !127, i32 0, i32 0} ; [ DW_TAG_subroutine_type ]
!127 = metadata !{null, metadata !122, metadata !128}
!128 = metadata !{i32 786447, null, metadata !"", null, i32 0, i64 64, i64 64, i64 0, i32 0, metadata !129} ; [ DW_TAG_pointer_type ]
!129 = metadata !{i32 786470, null, metadata !"", null, i32 0, i64 0, i64 0, i64 0, i32 0, metadata !130} ; [ DW_TAG_const_type ]
!130 = metadata !{i32 786468, null, metadata !"char", null, i32 0, i64 8, i64 8, i64 0, i32 0, i32 6} ; [ DW_TAG_base_type ]
!131 = metadata !{i32 786478, i32 0, metadata !113, metadata !"stream", metadata !"stream", metadata !"", metadata !115, i32 91, metadata !132, i1 false, i1 false, i32 0, i32 0, null, i32 257, i1 false, null, null, i32 0, metadata !123, i32 91} ; [ DW_TAG_subprogram ]
!132 = metadata !{i32 786453, i32 0, metadata !"", i32 0, i32 0, i64 0, i64 0, i64 0, i32 0, null, metadata !133, i32 0, i32 0} ; [ DW_TAG_subroutine_type ]
!133 = metadata !{null, metadata !122, metadata !134}
!134 = metadata !{i32 786448, null, null, null, i32 0, i64 0, i64 0, i64 0, i32 0, metadata !135} ; [ DW_TAG_reference_type ]
!135 = metadata !{i32 786470, null, metadata !"", null, i32 0, i64 0, i64 0, i64 0, i32 0, metadata !113} ; [ DW_TAG_const_type ]
!136 = metadata !{i32 786478, i32 0, metadata !113, metadata !"operator=", metadata !"operator=", metadata !"_ZN3hls6streamIhEaSERKS1_", metadata !115, i32 94, metadata !137, i1 false, i1 false, i32 0, i32 0, null, i32 257, i1 false, null, null, i32 0, metadata !123, i32 94} ; [ DW_TAG_subprogram ]
!137 = metadata !{i32 786453, i32 0, metadata !"", i32 0, i32 0, i64 0, i64 0, i64 0, i32 0, null, metadata !138, i32 0, i32 0} ; [ DW_TAG_subroutine_type ]
!138 = metadata !{metadata !112, metadata !122, metadata !134}
!139 = metadata !{i32 786478, i32 0, metadata !113, metadata !"operator>>", metadata !"operator>>", metadata !"_ZN3hls6streamIhErsERh", metadata !115, i32 101, metadata !140, i1 false, i1 false, i32 0, i32 0, null, i32 256, i1 false, null, null, i32 0, metadata !123, i32 101} ; [ DW_TAG_subprogram ]
!140 = metadata !{i32 786453, i32 0, metadata !"", i32 0, i32 0, i64 0, i64 0, i64 0, i32 0, null, metadata !141, i32 0, i32 0} ; [ DW_TAG_subroutine_type ]
!141 = metadata !{null, metadata !122, metadata !142}
!142 = metadata !{i32 786448, null, null, null, i32 0, i64 0, i64 0, i64 0, i32 0, metadata !118} ; [ DW_TAG_reference_type ]
!143 = metadata !{i32 786478, i32 0, metadata !113, metadata !"operator<<", metadata !"operator<<", metadata !"_ZN3hls6streamIhElsERKh", metadata !115, i32 105, metadata !144, i1 false, i1 false, i32 0, i32 0, null, i32 256, i1 false, null, null, i32 0, metadata !123, i32 105} ; [ DW_TAG_subprogram ]
!144 = metadata !{i32 786453, i32 0, metadata !"", i32 0, i32 0, i64 0, i64 0, i64 0, i32 0, null, metadata !145, i32 0, i32 0} ; [ DW_TAG_subroutine_type ]
!145 = metadata !{null, metadata !122, metadata !146}
!146 = metadata !{i32 786448, null, null, null, i32 0, i64 0, i64 0, i64 0, i32 0, metadata !147} ; [ DW_TAG_reference_type ]
!147 = metadata !{i32 786470, null, metadata !"", null, i32 0, i64 0, i64 0, i64 0, i32 0, metadata !118} ; [ DW_TAG_const_type ]
!148 = metadata !{i32 786478, i32 0, metadata !113, metadata !"empty", metadata !"empty", metadata !"_ZNK3hls6streamIhE5emptyEv", metadata !115, i32 112, metadata !149, i1 false, i1 false, i32 0, i32 0, null, i32 256, i1 false, null, null, i32 0, metadata !123, i32 112} ; [ DW_TAG_subprogram ]
!149 = metadata !{i32 786453, i32 0, metadata !"", i32 0, i32 0, i64 0, i64 0, i64 0, i32 0, null, metadata !150, i32 0, i32 0} ; [ DW_TAG_subroutine_type ]
!150 = metadata !{metadata !151, metadata !152}
!151 = metadata !{i32 786468, null, metadata !"bool", null, i32 0, i64 8, i64 8, i64 0, i32 0, i32 2} ; [ DW_TAG_base_type ]
!152 = metadata !{i32 786447, i32 0, metadata !"", i32 0, i32 0, i64 64, i64 64, i64 0, i32 64, metadata !135} ; [ DW_TAG_pointer_type ]
!153 = metadata !{i32 786478, i32 0, metadata !113, metadata !"full", metadata !"full", metadata !"_ZNK3hls6streamIhE4fullEv", metadata !115, i32 117, metadata !149, i1 false, i1 false, i32 0, i32 0, null, i32 256, i1 false, null, null, i32 0, metadata !123, i32 117} ; [ DW_TAG_subprogram ]
!154 = metadata !{i32 786478, i32 0, metadata !113, metadata !"read", metadata !"read", metadata !"_ZN3hls6streamIhE4readERh", metadata !115, i32 123, metadata !140, i1 false, i1 false, i32 0, i32 0, null, i32 256, i1 false, null, null, i32 0, metadata !123, i32 123} ; [ DW_TAG_subprogram ]
!155 = metadata !{i32 786478, i32 0, metadata !113, metadata !"read", metadata !"read", metadata !"_ZN3hls6streamIhE4readEv", metadata !115, i32 129, metadata !156, i1 false, i1 false, i32 0, i32 0, null, i32 256, i1 false, null, null, i32 0, metadata !123, i32 129} ; [ DW_TAG_subprogram ]
!156 = metadata !{i32 786453, i32 0, metadata !"", i32 0, i32 0, i64 0, i64 0, i64 0, i32 0, null, metadata !157, i32 0, i32 0} ; [ DW_TAG_subroutine_type ]
!157 = metadata !{metadata !118, metadata !122}
!158 = metadata !{i32 786478, i32 0, metadata !113, metadata !"read_nb", metadata !"read_nb", metadata !"_ZN3hls6streamIhE7read_nbERh", metadata !115, i32 136, metadata !159, i1 false, i1 false, i32 0, i32 0, null, i32 256, i1 false, null, null, i32 0, metadata !123, i32 136} ; [ DW_TAG_subprogram ]
!159 = metadata !{i32 786453, i32 0, metadata !"", i32 0, i32 0, i64 0, i64 0, i64 0, i32 0, null, metadata !160, i32 0, i32 0} ; [ DW_TAG_subroutine_type ]
!160 = metadata !{metadata !151, metadata !122, metadata !142}
!161 = metadata !{i32 786478, i32 0, metadata !113, metadata !"write", metadata !"write", metadata !"_ZN3hls6streamIhE5writeERKh", metadata !115, i32 144, metadata !144, i1 false, i1 false, i32 0, i32 0, null, i32 256, i1 false, null, null, i32 0, metadata !123, i32 144} ; [ DW_TAG_subprogram ]
!162 = metadata !{i32 786478, i32 0, metadata !113, metadata !"write_nb", metadata !"write_nb", metadata !"_ZN3hls6streamIhE8write_nbERKh", metadata !115, i32 150, metadata !163, i1 false, i1 false, i32 0, i32 0, null, i32 256, i1 false, null, null, i32 0, metadata !123, i32 150} ; [ DW_TAG_subprogram ]
!163 = metadata !{i32 786453, i32 0, metadata !"", i32 0, i32 0, i64 0, i64 0, i64 0, i32 0, null, metadata !164, i32 0, i32 0} ; [ DW_TAG_subroutine_type ]
!164 = metadata !{metadata !151, metadata !122, metadata !146}
!165 = metadata !{i32 786478, i32 0, metadata !113, metadata !"size", metadata !"size", metadata !"_ZN3hls6streamIhE4sizeEv", metadata !115, i32 157, metadata !166, i1 false, i1 false, i32 0, i32 0, null, i32 256, i1 false, null, null, i32 0, metadata !123, i32 157} ; [ DW_TAG_subprogram ]
!166 = metadata !{i32 786453, i32 0, metadata !"", i32 0, i32 0, i64 0, i64 0, i64 0, i32 0, null, metadata !167, i32 0, i32 0} ; [ DW_TAG_subroutine_type ]
!167 = metadata !{metadata !168, metadata !122}
!168 = metadata !{i32 786468, null, metadata !"unsigned int", null, i32 0, i64 32, i64 32, i64 0, i32 0, i32 7} ; [ DW_TAG_base_type ]
!169 = metadata !{metadata !170}
!170 = metadata !{i32 786479, null, metadata !"__STREAM_T__", metadata !118, null, i32 0, i32 0} ; [ DW_TAG_template_type_parameter ]
!171 = metadata !{i32 786447, null, metadata !"", null, i32 0, i64 64, i64 64, i64 0, i32 0, metadata !172} ; [ DW_TAG_pointer_type ]
!172 = metadata !{i32 786485, null, metadata !"", null, i32 0, i64 0, i64 0, i64 0, i32 0, metadata !173} ; [ DW_TAG_volatile_type ]
!173 = metadata !{i32 786454, null, metadata !"u64", metadata !109, i32 7, i64 0, i64 0, i64 0, i32 0, metadata !174} ; [ DW_TAG_typedef ]
!174 = metadata !{i32 786468, null, metadata !"long long unsigned int", null, i32 0, i64 64, i64 64, i64 0, i32 0, i32 7} ; [ DW_TAG_base_type ]
!175 = metadata !{i32 786447, null, metadata !"", null, i32 0, i64 64, i64 64, i64 0, i32 0, metadata !176} ; [ DW_TAG_pointer_type ]
!176 = metadata !{i32 786485, null, metadata !"", null, i32 0, i64 0, i64 0, i64 0, i32 0, metadata !177} ; [ DW_TAG_volatile_type ]
!177 = metadata !{i32 786434, null, metadata !"ap_uint<8>", metadata !178, i32 183, i64 8, i64 8, i32 0, i32 0, null, metadata !179, i32 0, null, metadata !833} ; [ DW_TAG_class_type ]
!178 = metadata !{i32 786473, metadata !"/opt/Xilinx/Vivado/2018.1/common/technology/autopilot/ap_int.h", metadata !"/home/andrea/Documenti/vision/Ultrascale/hls/DDR/AXIS_TO_DDR_WRITER_AXILITE", null} ; [ DW_TAG_file_type ]
!179 = metadata !{metadata !180, metadata !751, metadata !755, metadata !761, metadata !766, metadata !769, metadata !772, metadata !775, metadata !778, metadata !781, metadata !784, metadata !787, metadata !790, metadata !793, metadata !796, metadata !799, metadata !802, metadata !805, metadata !808, metadata !811, metadata !814, metadata !817, metadata !821, metadata !824, metadata !828, metadata !831, metadata !832}
!180 = metadata !{i32 786460, metadata !177, null, metadata !178, i32 0, i64 0, i64 0, i64 0, i32 0, metadata !181} ; [ DW_TAG_inheritance ]
!181 = metadata !{i32 786434, null, metadata !"ap_int_base<8, false, true>", metadata !182, i32 1453, i64 8, i64 8, i32 0, i32 0, null, metadata !183, i32 0, null, metadata !750} ; [ DW_TAG_class_type ]
!182 = metadata !{i32 786473, metadata !"/opt/Xilinx/Vivado/2018.1/common/technology/autopilot/ap_int_syn.h", metadata !"/home/andrea/Documenti/vision/Ultrascale/hls/DDR/AXIS_TO_DDR_WRITER_AXILITE", null} ; [ DW_TAG_file_type ]
!183 = metadata !{metadata !184, metadata !203, metadata !207, metadata !215, metadata !221, metadata !224, metadata !228, metadata !231, metadata !235, metadata !239, metadata !242, metadata !245, metadata !249, metadata !253, metadata !258, metadata !262, metadata !267, metadata !271, metadata !275, metadata !278, metadata !281, metadata !285, metadata !288, metadata !291, metadata !292, metadata !296, metadata !299, metadata !302, metadata !305, metadata !308, metadata !311, metadata !314, metadata !317, metadata !320, metadata !323, metadata !326, metadata !329, metadata !339, metadata !342, metadata !345, metadata !348, metadata !351, metadata !354, metadata !357, metadata !360, metadata !363, metadata !366, metadata !369, metadata !372, metadata !375, metadata !376, metadata !380, metadata !383, metadata !384, metadata !385, metadata !386, metadata !387, metadata !388, metadata !391, metadata !392, metadata !395, metadata !396, metadata !397, metadata !398, metadata !399, metadata !400, metadata !403, metadata !404, metadata !405, metadata !408, metadata !409, metadata !412, metadata !413, metadata !707, metadata !713, metadata !714, metadata !717, metadata !718, metadata !722, metadata !723, metadata !724, metadata !725, metadata !728, metadata !729, metadata !730, metadata !731, metadata !732, metadata !733, metadata !734, metadata !735, metadata !736, metadata !737, metadata !738, metadata !739, metadata !742, metadata !745, metadata !748, metadata !749}
!184 = metadata !{i32 786460, metadata !181, null, metadata !182, i32 0, i64 0, i64 0, i64 0, i32 0, metadata !185} ; [ DW_TAG_inheritance ]
!185 = metadata !{i32 786434, null, metadata !"ssdm_int<8 + 1024 * 0, false>", metadata !186, i32 10, i64 8, i64 8, i32 0, i32 0, null, metadata !187, i32 0, null, metadata !199} ; [ DW_TAG_class_type ]
!186 = metadata !{i32 786473, metadata !"/opt/Xilinx/Vivado/2018.1/common/technology/autopilot/etc/autopilot_dt.def", metadata !"/home/andrea/Documenti/vision/Ultrascale/hls/DDR/AXIS_TO_DDR_WRITER_AXILITE", null} ; [ DW_TAG_file_type ]
!187 = metadata !{metadata !188, metadata !190, metadata !194}
!188 = metadata !{i32 786445, metadata !185, metadata !"V", metadata !186, i32 10, i64 8, i64 8, i64 0, i32 0, metadata !189} ; [ DW_TAG_member ]
!189 = metadata !{i32 786468, null, metadata !"uint8", null, i32 0, i64 8, i64 8, i64 0, i32 0, i32 7} ; [ DW_TAG_base_type ]
!190 = metadata !{i32 786478, i32 0, metadata !185, metadata !"ssdm_int", metadata !"ssdm_int", metadata !"", metadata !186, i32 10, metadata !191, i1 false, i1 false, i32 0, i32 0, null, i32 256, i1 false, null, null, i32 0, metadata !123, i32 10} ; [ DW_TAG_subprogram ]
!191 = metadata !{i32 786453, i32 0, metadata !"", i32 0, i32 0, i64 0, i64 0, i64 0, i32 0, null, metadata !192, i32 0, i32 0} ; [ DW_TAG_subroutine_type ]
!192 = metadata !{null, metadata !193}
!193 = metadata !{i32 786447, i32 0, metadata !"", i32 0, i32 0, i64 64, i64 64, i64 0, i32 64, metadata !185} ; [ DW_TAG_pointer_type ]
!194 = metadata !{i32 786478, i32 0, metadata !185, metadata !"ssdm_int", metadata !"ssdm_int", metadata !"", metadata !186, i32 10, metadata !195, i1 false, i1 false, i32 0, i32 0, null, i32 320, i1 false, null, null, i32 0, metadata !123, i32 10} ; [ DW_TAG_subprogram ]
!195 = metadata !{i32 786453, i32 0, metadata !"", i32 0, i32 0, i64 0, i64 0, i64 0, i32 0, null, metadata !196, i32 0, i32 0} ; [ DW_TAG_subroutine_type ]
!196 = metadata !{null, metadata !193, metadata !197}
!197 = metadata !{i32 786448, null, null, null, i32 0, i64 0, i64 0, i64 0, i32 0, metadata !198} ; [ DW_TAG_reference_type ]
!198 = metadata !{i32 786470, null, metadata !"", null, i32 0, i64 0, i64 0, i64 0, i32 0, metadata !185} ; [ DW_TAG_const_type ]
!199 = metadata !{metadata !200, metadata !202}
!200 = metadata !{i32 786480, null, metadata !"_AP_N", metadata !201, i64 8, null, i32 0, i32 0} ; [ DW_TAG_template_value_parameter ]
!201 = metadata !{i32 786468, null, metadata !"int", null, i32 0, i64 32, i64 32, i64 0, i32 0, i32 5} ; [ DW_TAG_base_type ]
!202 = metadata !{i32 786480, null, metadata !"_AP_S", metadata !151, i64 0, null, i32 0, i32 0} ; [ DW_TAG_template_value_parameter ]
!203 = metadata !{i32 786478, i32 0, metadata !181, metadata !"ap_int_base", metadata !"ap_int_base", metadata !"", metadata !182, i32 1494, metadata !204, i1 false, i1 false, i32 0, i32 0, null, i32 256, i1 false, null, null, i32 0, metadata !123, i32 1494} ; [ DW_TAG_subprogram ]
!204 = metadata !{i32 786453, i32 0, metadata !"", i32 0, i32 0, i64 0, i64 0, i64 0, i32 0, null, metadata !205, i32 0, i32 0} ; [ DW_TAG_subroutine_type ]
!205 = metadata !{null, metadata !206}
!206 = metadata !{i32 786447, i32 0, metadata !"", i32 0, i32 0, i64 64, i64 64, i64 0, i32 64, metadata !181} ; [ DW_TAG_pointer_type ]
!207 = metadata !{i32 786478, i32 0, metadata !181, metadata !"ap_int_base<8, false>", metadata !"ap_int_base<8, false>", metadata !"", metadata !182, i32 1506, metadata !208, i1 false, i1 false, i32 0, i32 0, null, i32 256, i1 false, null, metadata !212, i32 0, metadata !123, i32 1506} ; [ DW_TAG_subprogram ]
!208 = metadata !{i32 786453, i32 0, metadata !"", i32 0, i32 0, i64 0, i64 0, i64 0, i32 0, null, metadata !209, i32 0, i32 0} ; [ DW_TAG_subroutine_type ]
!209 = metadata !{null, metadata !206, metadata !210}
!210 = metadata !{i32 786448, null, null, null, i32 0, i64 0, i64 0, i64 0, i32 0, metadata !211} ; [ DW_TAG_reference_type ]
!211 = metadata !{i32 786470, null, metadata !"", null, i32 0, i64 0, i64 0, i64 0, i32 0, metadata !181} ; [ DW_TAG_const_type ]
!212 = metadata !{metadata !213, metadata !214}
!213 = metadata !{i32 786480, null, metadata !"_AP_W2", metadata !201, i64 8, null, i32 0, i32 0} ; [ DW_TAG_template_value_parameter ]
!214 = metadata !{i32 786480, null, metadata !"_AP_S2", metadata !151, i64 0, null, i32 0, i32 0} ; [ DW_TAG_template_value_parameter ]
!215 = metadata !{i32 786478, i32 0, metadata !181, metadata !"ap_int_base<8, false>", metadata !"ap_int_base<8, false>", metadata !"", metadata !182, i32 1509, metadata !216, i1 false, i1 false, i32 0, i32 0, null, i32 256, i1 false, null, metadata !212, i32 0, metadata !123, i32 1509} ; [ DW_TAG_subprogram ]
!216 = metadata !{i32 786453, i32 0, metadata !"", i32 0, i32 0, i64 0, i64 0, i64 0, i32 0, null, metadata !217, i32 0, i32 0} ; [ DW_TAG_subroutine_type ]
!217 = metadata !{null, metadata !206, metadata !218}
!218 = metadata !{i32 786448, null, null, null, i32 0, i64 0, i64 0, i64 0, i32 0, metadata !219} ; [ DW_TAG_reference_type ]
!219 = metadata !{i32 786470, null, metadata !"", null, i32 0, i64 0, i64 0, i64 0, i32 0, metadata !220} ; [ DW_TAG_const_type ]
!220 = metadata !{i32 786485, null, metadata !"", null, i32 0, i64 0, i64 0, i64 0, i32 0, metadata !181} ; [ DW_TAG_volatile_type ]
!221 = metadata !{i32 786478, i32 0, metadata !181, metadata !"ap_int_base", metadata !"ap_int_base", metadata !"", metadata !182, i32 1516, metadata !222, i1 false, i1 false, i32 0, i32 0, null, i32 384, i1 false, null, null, i32 0, metadata !123, i32 1516} ; [ DW_TAG_subprogram ]
!222 = metadata !{i32 786453, i32 0, metadata !"", i32 0, i32 0, i64 0, i64 0, i64 0, i32 0, null, metadata !223, i32 0, i32 0} ; [ DW_TAG_subroutine_type ]
!223 = metadata !{null, metadata !206, metadata !151}
!224 = metadata !{i32 786478, i32 0, metadata !181, metadata !"ap_int_base", metadata !"ap_int_base", metadata !"", metadata !182, i32 1517, metadata !225, i1 false, i1 false, i32 0, i32 0, null, i32 384, i1 false, null, null, i32 0, metadata !123, i32 1517} ; [ DW_TAG_subprogram ]
!225 = metadata !{i32 786453, i32 0, metadata !"", i32 0, i32 0, i64 0, i64 0, i64 0, i32 0, null, metadata !226, i32 0, i32 0} ; [ DW_TAG_subroutine_type ]
!226 = metadata !{null, metadata !206, metadata !227}
!227 = metadata !{i32 786468, null, metadata !"signed char", null, i32 0, i64 8, i64 8, i64 0, i32 0, i32 6} ; [ DW_TAG_base_type ]
!228 = metadata !{i32 786478, i32 0, metadata !181, metadata !"ap_int_base", metadata !"ap_int_base", metadata !"", metadata !182, i32 1518, metadata !229, i1 false, i1 false, i32 0, i32 0, null, i32 384, i1 false, null, null, i32 0, metadata !123, i32 1518} ; [ DW_TAG_subprogram ]
!229 = metadata !{i32 786453, i32 0, metadata !"", i32 0, i32 0, i64 0, i64 0, i64 0, i32 0, null, metadata !230, i32 0, i32 0} ; [ DW_TAG_subroutine_type ]
!230 = metadata !{null, metadata !206, metadata !118}
!231 = metadata !{i32 786478, i32 0, metadata !181, metadata !"ap_int_base", metadata !"ap_int_base", metadata !"", metadata !182, i32 1519, metadata !232, i1 false, i1 false, i32 0, i32 0, null, i32 384, i1 false, null, null, i32 0, metadata !123, i32 1519} ; [ DW_TAG_subprogram ]
!232 = metadata !{i32 786453, i32 0, metadata !"", i32 0, i32 0, i64 0, i64 0, i64 0, i32 0, null, metadata !233, i32 0, i32 0} ; [ DW_TAG_subroutine_type ]
!233 = metadata !{null, metadata !206, metadata !234}
!234 = metadata !{i32 786468, null, metadata !"short", null, i32 0, i64 16, i64 16, i64 0, i32 0, i32 5} ; [ DW_TAG_base_type ]
!235 = metadata !{i32 786478, i32 0, metadata !181, metadata !"ap_int_base", metadata !"ap_int_base", metadata !"", metadata !182, i32 1520, metadata !236, i1 false, i1 false, i32 0, i32 0, null, i32 384, i1 false, null, null, i32 0, metadata !123, i32 1520} ; [ DW_TAG_subprogram ]
!236 = metadata !{i32 786453, i32 0, metadata !"", i32 0, i32 0, i64 0, i64 0, i64 0, i32 0, null, metadata !237, i32 0, i32 0} ; [ DW_TAG_subroutine_type ]
!237 = metadata !{null, metadata !206, metadata !238}
!238 = metadata !{i32 786468, null, metadata !"unsigned short", null, i32 0, i64 16, i64 16, i64 0, i32 0, i32 7} ; [ DW_TAG_base_type ]
!239 = metadata !{i32 786478, i32 0, metadata !181, metadata !"ap_int_base", metadata !"ap_int_base", metadata !"", metadata !182, i32 1521, metadata !240, i1 false, i1 false, i32 0, i32 0, null, i32 384, i1 false, null, null, i32 0, metadata !123, i32 1521} ; [ DW_TAG_subprogram ]
!240 = metadata !{i32 786453, i32 0, metadata !"", i32 0, i32 0, i64 0, i64 0, i64 0, i32 0, null, metadata !241, i32 0, i32 0} ; [ DW_TAG_subroutine_type ]
!241 = metadata !{null, metadata !206, metadata !201}
!242 = metadata !{i32 786478, i32 0, metadata !181, metadata !"ap_int_base", metadata !"ap_int_base", metadata !"", metadata !182, i32 1522, metadata !243, i1 false, i1 false, i32 0, i32 0, null, i32 384, i1 false, null, null, i32 0, metadata !123, i32 1522} ; [ DW_TAG_subprogram ]
!243 = metadata !{i32 786453, i32 0, metadata !"", i32 0, i32 0, i64 0, i64 0, i64 0, i32 0, null, metadata !244, i32 0, i32 0} ; [ DW_TAG_subroutine_type ]
!244 = metadata !{null, metadata !206, metadata !168}
!245 = metadata !{i32 786478, i32 0, metadata !181, metadata !"ap_int_base", metadata !"ap_int_base", metadata !"", metadata !182, i32 1523, metadata !246, i1 false, i1 false, i32 0, i32 0, null, i32 384, i1 false, null, null, i32 0, metadata !123, i32 1523} ; [ DW_TAG_subprogram ]
!246 = metadata !{i32 786453, i32 0, metadata !"", i32 0, i32 0, i64 0, i64 0, i64 0, i32 0, null, metadata !247, i32 0, i32 0} ; [ DW_TAG_subroutine_type ]
!247 = metadata !{null, metadata !206, metadata !248}
!248 = metadata !{i32 786468, null, metadata !"long int", null, i32 0, i64 64, i64 64, i64 0, i32 0, i32 5} ; [ DW_TAG_base_type ]
!249 = metadata !{i32 786478, i32 0, metadata !181, metadata !"ap_int_base", metadata !"ap_int_base", metadata !"", metadata !182, i32 1524, metadata !250, i1 false, i1 false, i32 0, i32 0, null, i32 384, i1 false, null, null, i32 0, metadata !123, i32 1524} ; [ DW_TAG_subprogram ]
!250 = metadata !{i32 786453, i32 0, metadata !"", i32 0, i32 0, i64 0, i64 0, i64 0, i32 0, null, metadata !251, i32 0, i32 0} ; [ DW_TAG_subroutine_type ]
!251 = metadata !{null, metadata !206, metadata !252}
!252 = metadata !{i32 786468, null, metadata !"long unsigned int", null, i32 0, i64 64, i64 64, i64 0, i32 0, i32 7} ; [ DW_TAG_base_type ]
!253 = metadata !{i32 786478, i32 0, metadata !181, metadata !"ap_int_base", metadata !"ap_int_base", metadata !"", metadata !182, i32 1525, metadata !254, i1 false, i1 false, i32 0, i32 0, null, i32 384, i1 false, null, null, i32 0, metadata !123, i32 1525} ; [ DW_TAG_subprogram ]
!254 = metadata !{i32 786453, i32 0, metadata !"", i32 0, i32 0, i64 0, i64 0, i64 0, i32 0, null, metadata !255, i32 0, i32 0} ; [ DW_TAG_subroutine_type ]
!255 = metadata !{null, metadata !206, metadata !256}
!256 = metadata !{i32 786454, null, metadata !"ap_slong", metadata !182, i32 112, i64 0, i64 0, i64 0, i32 0, metadata !257} ; [ DW_TAG_typedef ]
!257 = metadata !{i32 786468, null, metadata !"long long int", null, i32 0, i64 64, i64 64, i64 0, i32 0, i32 5} ; [ DW_TAG_base_type ]
!258 = metadata !{i32 786478, i32 0, metadata !181, metadata !"ap_int_base", metadata !"ap_int_base", metadata !"", metadata !182, i32 1526, metadata !259, i1 false, i1 false, i32 0, i32 0, null, i32 384, i1 false, null, null, i32 0, metadata !123, i32 1526} ; [ DW_TAG_subprogram ]
!259 = metadata !{i32 786453, i32 0, metadata !"", i32 0, i32 0, i64 0, i64 0, i64 0, i32 0, null, metadata !260, i32 0, i32 0} ; [ DW_TAG_subroutine_type ]
!260 = metadata !{null, metadata !206, metadata !261}
!261 = metadata !{i32 786454, null, metadata !"ap_ulong", metadata !182, i32 111, i64 0, i64 0, i64 0, i32 0, metadata !174} ; [ DW_TAG_typedef ]
!262 = metadata !{i32 786478, i32 0, metadata !181, metadata !"ap_int_base", metadata !"ap_int_base", metadata !"", metadata !182, i32 1527, metadata !263, i1 false, i1 false, i32 0, i32 0, null, i32 384, i1 false, null, null, i32 0, metadata !123, i32 1527} ; [ DW_TAG_subprogram ]
!263 = metadata !{i32 786453, i32 0, metadata !"", i32 0, i32 0, i64 0, i64 0, i64 0, i32 0, null, metadata !264, i32 0, i32 0} ; [ DW_TAG_subroutine_type ]
!264 = metadata !{null, metadata !206, metadata !265}
!265 = metadata !{i32 786454, null, metadata !"half", metadata !182, i32 54, i64 0, i64 0, i64 0, i32 0, metadata !266} ; [ DW_TAG_typedef ]
!266 = metadata !{i32 786468, null, metadata !"half", null, i32 0, i64 16, i64 16, i64 0, i32 0, i32 4} ; [ DW_TAG_base_type ]
!267 = metadata !{i32 786478, i32 0, metadata !181, metadata !"ap_int_base", metadata !"ap_int_base", metadata !"", metadata !182, i32 1528, metadata !268, i1 false, i1 false, i32 0, i32 0, null, i32 384, i1 false, null, null, i32 0, metadata !123, i32 1528} ; [ DW_TAG_subprogram ]
!268 = metadata !{i32 786453, i32 0, metadata !"", i32 0, i32 0, i64 0, i64 0, i64 0, i32 0, null, metadata !269, i32 0, i32 0} ; [ DW_TAG_subroutine_type ]
!269 = metadata !{null, metadata !206, metadata !270}
!270 = metadata !{i32 786468, null, metadata !"float", null, i32 0, i64 32, i64 32, i64 0, i32 0, i32 4} ; [ DW_TAG_base_type ]
!271 = metadata !{i32 786478, i32 0, metadata !181, metadata !"ap_int_base", metadata !"ap_int_base", metadata !"", metadata !182, i32 1529, metadata !272, i1 false, i1 false, i32 0, i32 0, null, i32 384, i1 false, null, null, i32 0, metadata !123, i32 1529} ; [ DW_TAG_subprogram ]
!272 = metadata !{i32 786453, i32 0, metadata !"", i32 0, i32 0, i64 0, i64 0, i64 0, i32 0, null, metadata !273, i32 0, i32 0} ; [ DW_TAG_subroutine_type ]
!273 = metadata !{null, metadata !206, metadata !274}
!274 = metadata !{i32 786468, null, metadata !"double", null, i32 0, i64 64, i64 64, i64 0, i32 0, i32 4} ; [ DW_TAG_base_type ]
!275 = metadata !{i32 786478, i32 0, metadata !181, metadata !"ap_int_base", metadata !"ap_int_base", metadata !"", metadata !182, i32 1556, metadata !276, i1 false, i1 false, i32 0, i32 0, null, i32 256, i1 false, null, null, i32 0, metadata !123, i32 1556} ; [ DW_TAG_subprogram ]
!276 = metadata !{i32 786453, i32 0, metadata !"", i32 0, i32 0, i64 0, i64 0, i64 0, i32 0, null, metadata !277, i32 0, i32 0} ; [ DW_TAG_subroutine_type ]
!277 = metadata !{null, metadata !206, metadata !128}
!278 = metadata !{i32 786478, i32 0, metadata !181, metadata !"ap_int_base", metadata !"ap_int_base", metadata !"", metadata !182, i32 1563, metadata !279, i1 false, i1 false, i32 0, i32 0, null, i32 256, i1 false, null, null, i32 0, metadata !123, i32 1563} ; [ DW_TAG_subprogram ]
!279 = metadata !{i32 786453, i32 0, metadata !"", i32 0, i32 0, i64 0, i64 0, i64 0, i32 0, null, metadata !280, i32 0, i32 0} ; [ DW_TAG_subroutine_type ]
!280 = metadata !{null, metadata !206, metadata !128, metadata !227}
!281 = metadata !{i32 786478, i32 0, metadata !181, metadata !"read", metadata !"read", metadata !"_ZNV11ap_int_baseILi8ELb0ELb1EE4readEv", metadata !182, i32 1584, metadata !282, i1 false, i1 false, i32 0, i32 0, null, i32 256, i1 false, null, null, i32 0, metadata !123, i32 1584} ; [ DW_TAG_subprogram ]
!282 = metadata !{i32 786453, i32 0, metadata !"", i32 0, i32 0, i64 0, i64 0, i64 0, i32 0, null, metadata !283, i32 0, i32 0} ; [ DW_TAG_subroutine_type ]
!283 = metadata !{metadata !181, metadata !284}
!284 = metadata !{i32 786447, i32 0, metadata !"", i32 0, i32 0, i64 64, i64 64, i64 0, i32 64, metadata !220} ; [ DW_TAG_pointer_type ]
!285 = metadata !{i32 786478, i32 0, metadata !181, metadata !"write", metadata !"write", metadata !"_ZNV11ap_int_baseILi8ELb0ELb1EE5writeERKS0_", metadata !182, i32 1590, metadata !286, i1 false, i1 false, i32 0, i32 0, null, i32 256, i1 false, null, null, i32 0, metadata !123, i32 1590} ; [ DW_TAG_subprogram ]
!286 = metadata !{i32 786453, i32 0, metadata !"", i32 0, i32 0, i64 0, i64 0, i64 0, i32 0, null, metadata !287, i32 0, i32 0} ; [ DW_TAG_subroutine_type ]
!287 = metadata !{null, metadata !284, metadata !210}
!288 = metadata !{i32 786478, i32 0, metadata !181, metadata !"operator=", metadata !"operator=", metadata !"_ZNV11ap_int_baseILi8ELb0ELb1EEaSERVKS0_", metadata !182, i32 1602, metadata !289, i1 false, i1 false, i32 0, i32 0, null, i32 256, i1 false, null, null, i32 0, metadata !123, i32 1602} ; [ DW_TAG_subprogram ]
!289 = metadata !{i32 786453, i32 0, metadata !"", i32 0, i32 0, i64 0, i64 0, i64 0, i32 0, null, metadata !290, i32 0, i32 0} ; [ DW_TAG_subroutine_type ]
!290 = metadata !{null, metadata !284, metadata !218}
!291 = metadata !{i32 786478, i32 0, metadata !181, metadata !"operator=", metadata !"operator=", metadata !"_ZNV11ap_int_baseILi8ELb0ELb1EEaSERKS0_", metadata !182, i32 1611, metadata !286, i1 false, i1 false, i32 0, i32 0, null, i32 256, i1 false, null, null, i32 0, metadata !123, i32 1611} ; [ DW_TAG_subprogram ]
!292 = metadata !{i32 786478, i32 0, metadata !181, metadata !"operator=", metadata !"operator=", metadata !"_ZN11ap_int_baseILi8ELb0ELb1EEaSERVKS0_", metadata !182, i32 1634, metadata !293, i1 false, i1 false, i32 0, i32 0, null, i32 256, i1 false, null, null, i32 0, metadata !123, i32 1634} ; [ DW_TAG_subprogram ]
!293 = metadata !{i32 786453, i32 0, metadata !"", i32 0, i32 0, i64 0, i64 0, i64 0, i32 0, null, metadata !294, i32 0, i32 0} ; [ DW_TAG_subroutine_type ]
!294 = metadata !{metadata !295, metadata !206, metadata !218}
!295 = metadata !{i32 786448, null, null, null, i32 0, i64 0, i64 0, i64 0, i32 0, metadata !181} ; [ DW_TAG_reference_type ]
!296 = metadata !{i32 786478, i32 0, metadata !181, metadata !"operator=", metadata !"operator=", metadata !"_ZN11ap_int_baseILi8ELb0ELb1EEaSERKS0_", metadata !182, i32 1639, metadata !297, i1 false, i1 false, i32 0, i32 0, null, i32 256, i1 false, null, null, i32 0, metadata !123, i32 1639} ; [ DW_TAG_subprogram ]
!297 = metadata !{i32 786453, i32 0, metadata !"", i32 0, i32 0, i64 0, i64 0, i64 0, i32 0, null, metadata !298, i32 0, i32 0} ; [ DW_TAG_subroutine_type ]
!298 = metadata !{metadata !295, metadata !206, metadata !210}
!299 = metadata !{i32 786478, i32 0, metadata !181, metadata !"operator=", metadata !"operator=", metadata !"_ZN11ap_int_baseILi8ELb0ELb1EEaSEPKc", metadata !182, i32 1643, metadata !300, i1 false, i1 false, i32 0, i32 0, null, i32 256, i1 false, null, null, i32 0, metadata !123, i32 1643} ; [ DW_TAG_subprogram ]
!300 = metadata !{i32 786453, i32 0, metadata !"", i32 0, i32 0, i64 0, i64 0, i64 0, i32 0, null, metadata !301, i32 0, i32 0} ; [ DW_TAG_subroutine_type ]
!301 = metadata !{metadata !295, metadata !206, metadata !128}
!302 = metadata !{i32 786478, i32 0, metadata !181, metadata !"set", metadata !"set", metadata !"_ZN11ap_int_baseILi8ELb0ELb1EE3setEPKca", metadata !182, i32 1651, metadata !303, i1 false, i1 false, i32 0, i32 0, null, i32 256, i1 false, null, null, i32 0, metadata !123, i32 1651} ; [ DW_TAG_subprogram ]
!303 = metadata !{i32 786453, i32 0, metadata !"", i32 0, i32 0, i64 0, i64 0, i64 0, i32 0, null, metadata !304, i32 0, i32 0} ; [ DW_TAG_subroutine_type ]
!304 = metadata !{metadata !295, metadata !206, metadata !128, metadata !227}
!305 = metadata !{i32 786478, i32 0, metadata !181, metadata !"operator=", metadata !"operator=", metadata !"_ZN11ap_int_baseILi8ELb0ELb1EEaSEa", metadata !182, i32 1665, metadata !306, i1 false, i1 false, i32 0, i32 0, null, i32 256, i1 false, null, null, i32 0, metadata !123, i32 1665} ; [ DW_TAG_subprogram ]
!306 = metadata !{i32 786453, i32 0, metadata !"", i32 0, i32 0, i64 0, i64 0, i64 0, i32 0, null, metadata !307, i32 0, i32 0} ; [ DW_TAG_subroutine_type ]
!307 = metadata !{metadata !295, metadata !206, metadata !227}
!308 = metadata !{i32 786478, i32 0, metadata !181, metadata !"operator=", metadata !"operator=", metadata !"_ZN11ap_int_baseILi8ELb0ELb1EEaSEh", metadata !182, i32 1666, metadata !309, i1 false, i1 false, i32 0, i32 0, null, i32 256, i1 false, null, null, i32 0, metadata !123, i32 1666} ; [ DW_TAG_subprogram ]
!309 = metadata !{i32 786453, i32 0, metadata !"", i32 0, i32 0, i64 0, i64 0, i64 0, i32 0, null, metadata !310, i32 0, i32 0} ; [ DW_TAG_subroutine_type ]
!310 = metadata !{metadata !295, metadata !206, metadata !118}
!311 = metadata !{i32 786478, i32 0, metadata !181, metadata !"operator=", metadata !"operator=", metadata !"_ZN11ap_int_baseILi8ELb0ELb1EEaSEs", metadata !182, i32 1667, metadata !312, i1 false, i1 false, i32 0, i32 0, null, i32 256, i1 false, null, null, i32 0, metadata !123, i32 1667} ; [ DW_TAG_subprogram ]
!312 = metadata !{i32 786453, i32 0, metadata !"", i32 0, i32 0, i64 0, i64 0, i64 0, i32 0, null, metadata !313, i32 0, i32 0} ; [ DW_TAG_subroutine_type ]
!313 = metadata !{metadata !295, metadata !206, metadata !234}
!314 = metadata !{i32 786478, i32 0, metadata !181, metadata !"operator=", metadata !"operator=", metadata !"_ZN11ap_int_baseILi8ELb0ELb1EEaSEt", metadata !182, i32 1668, metadata !315, i1 false, i1 false, i32 0, i32 0, null, i32 256, i1 false, null, null, i32 0, metadata !123, i32 1668} ; [ DW_TAG_subprogram ]
!315 = metadata !{i32 786453, i32 0, metadata !"", i32 0, i32 0, i64 0, i64 0, i64 0, i32 0, null, metadata !316, i32 0, i32 0} ; [ DW_TAG_subroutine_type ]
!316 = metadata !{metadata !295, metadata !206, metadata !238}
!317 = metadata !{i32 786478, i32 0, metadata !181, metadata !"operator=", metadata !"operator=", metadata !"_ZN11ap_int_baseILi8ELb0ELb1EEaSEi", metadata !182, i32 1669, metadata !318, i1 false, i1 false, i32 0, i32 0, null, i32 256, i1 false, null, null, i32 0, metadata !123, i32 1669} ; [ DW_TAG_subprogram ]
!318 = metadata !{i32 786453, i32 0, metadata !"", i32 0, i32 0, i64 0, i64 0, i64 0, i32 0, null, metadata !319, i32 0, i32 0} ; [ DW_TAG_subroutine_type ]
!319 = metadata !{metadata !295, metadata !206, metadata !201}
!320 = metadata !{i32 786478, i32 0, metadata !181, metadata !"operator=", metadata !"operator=", metadata !"_ZN11ap_int_baseILi8ELb0ELb1EEaSEj", metadata !182, i32 1670, metadata !321, i1 false, i1 false, i32 0, i32 0, null, i32 256, i1 false, null, null, i32 0, metadata !123, i32 1670} ; [ DW_TAG_subprogram ]
!321 = metadata !{i32 786453, i32 0, metadata !"", i32 0, i32 0, i64 0, i64 0, i64 0, i32 0, null, metadata !322, i32 0, i32 0} ; [ DW_TAG_subroutine_type ]
!322 = metadata !{metadata !295, metadata !206, metadata !168}
!323 = metadata !{i32 786478, i32 0, metadata !181, metadata !"operator=", metadata !"operator=", metadata !"_ZN11ap_int_baseILi8ELb0ELb1EEaSEx", metadata !182, i32 1671, metadata !324, i1 false, i1 false, i32 0, i32 0, null, i32 256, i1 false, null, null, i32 0, metadata !123, i32 1671} ; [ DW_TAG_subprogram ]
!324 = metadata !{i32 786453, i32 0, metadata !"", i32 0, i32 0, i64 0, i64 0, i64 0, i32 0, null, metadata !325, i32 0, i32 0} ; [ DW_TAG_subroutine_type ]
!325 = metadata !{metadata !295, metadata !206, metadata !256}
!326 = metadata !{i32 786478, i32 0, metadata !181, metadata !"operator=", metadata !"operator=", metadata !"_ZN11ap_int_baseILi8ELb0ELb1EEaSEy", metadata !182, i32 1672, metadata !327, i1 false, i1 false, i32 0, i32 0, null, i32 256, i1 false, null, null, i32 0, metadata !123, i32 1672} ; [ DW_TAG_subprogram ]
!327 = metadata !{i32 786453, i32 0, metadata !"", i32 0, i32 0, i64 0, i64 0, i64 0, i32 0, null, metadata !328, i32 0, i32 0} ; [ DW_TAG_subroutine_type ]
!328 = metadata !{metadata !295, metadata !206, metadata !261}
!329 = metadata !{i32 786478, i32 0, metadata !181, metadata !"operator unsigned char", metadata !"operator unsigned char", metadata !"_ZNK11ap_int_baseILi8ELb0ELb1EEcvhEv", metadata !182, i32 1710, metadata !330, i1 false, i1 false, i32 0, i32 0, null, i32 256, i1 false, null, null, i32 0, metadata !123, i32 1710} ; [ DW_TAG_subprogram ]
!330 = metadata !{i32 786453, i32 0, metadata !"", i32 0, i32 0, i64 0, i64 0, i64 0, i32 0, null, metadata !331, i32 0, i32 0} ; [ DW_TAG_subroutine_type ]
!331 = metadata !{metadata !332, metadata !338}
!332 = metadata !{i32 786454, metadata !181, metadata !"RetType", metadata !182, i32 1458, i64 0, i64 0, i64 0, i32 0, metadata !333} ; [ DW_TAG_typedef ]
!333 = metadata !{i32 786454, metadata !334, metadata !"Type", metadata !182, i32 1426, i64 0, i64 0, i64 0, i32 0, metadata !118} ; [ DW_TAG_typedef ]
!334 = metadata !{i32 786434, null, metadata !"retval<1, false>", metadata !182, i32 1425, i64 8, i64 8, i32 0, i32 0, null, metadata !335, i32 0, null, metadata !336} ; [ DW_TAG_class_type ]
!335 = metadata !{i32 0}
!336 = metadata !{metadata !337, metadata !202}
!337 = metadata !{i32 786480, null, metadata !"_AP_N", metadata !201, i64 1, null, i32 0, i32 0} ; [ DW_TAG_template_value_parameter ]
!338 = metadata !{i32 786447, i32 0, metadata !"", i32 0, i32 0, i64 64, i64 64, i64 0, i32 64, metadata !211} ; [ DW_TAG_pointer_type ]
!339 = metadata !{i32 786478, i32 0, metadata !181, metadata !"to_bool", metadata !"to_bool", metadata !"_ZNK11ap_int_baseILi8ELb0ELb1EE7to_boolEv", metadata !182, i32 1716, metadata !340, i1 false, i1 false, i32 0, i32 0, null, i32 256, i1 false, null, null, i32 0, metadata !123, i32 1716} ; [ DW_TAG_subprogram ]
!340 = metadata !{i32 786453, i32 0, metadata !"", i32 0, i32 0, i64 0, i64 0, i64 0, i32 0, null, metadata !341, i32 0, i32 0} ; [ DW_TAG_subroutine_type ]
!341 = metadata !{metadata !151, metadata !338}
!342 = metadata !{i32 786478, i32 0, metadata !181, metadata !"to_uchar", metadata !"to_uchar", metadata !"_ZNK11ap_int_baseILi8ELb0ELb1EE8to_ucharEv", metadata !182, i32 1717, metadata !343, i1 false, i1 false, i32 0, i32 0, null, i32 256, i1 false, null, null, i32 0, metadata !123, i32 1717} ; [ DW_TAG_subprogram ]
!343 = metadata !{i32 786453, i32 0, metadata !"", i32 0, i32 0, i64 0, i64 0, i64 0, i32 0, null, metadata !344, i32 0, i32 0} ; [ DW_TAG_subroutine_type ]
!344 = metadata !{metadata !118, metadata !338}
!345 = metadata !{i32 786478, i32 0, metadata !181, metadata !"to_char", metadata !"to_char", metadata !"_ZNK11ap_int_baseILi8ELb0ELb1EE7to_charEv", metadata !182, i32 1718, metadata !346, i1 false, i1 false, i32 0, i32 0, null, i32 256, i1 false, null, null, i32 0, metadata !123, i32 1718} ; [ DW_TAG_subprogram ]
!346 = metadata !{i32 786453, i32 0, metadata !"", i32 0, i32 0, i64 0, i64 0, i64 0, i32 0, null, metadata !347, i32 0, i32 0} ; [ DW_TAG_subroutine_type ]
!347 = metadata !{metadata !227, metadata !338}
!348 = metadata !{i32 786478, i32 0, metadata !181, metadata !"to_ushort", metadata !"to_ushort", metadata !"_ZNK11ap_int_baseILi8ELb0ELb1EE9to_ushortEv", metadata !182, i32 1719, metadata !349, i1 false, i1 false, i32 0, i32 0, null, i32 256, i1 false, null, null, i32 0, metadata !123, i32 1719} ; [ DW_TAG_subprogram ]
!349 = metadata !{i32 786453, i32 0, metadata !"", i32 0, i32 0, i64 0, i64 0, i64 0, i32 0, null, metadata !350, i32 0, i32 0} ; [ DW_TAG_subroutine_type ]
!350 = metadata !{metadata !238, metadata !338}
!351 = metadata !{i32 786478, i32 0, metadata !181, metadata !"to_short", metadata !"to_short", metadata !"_ZNK11ap_int_baseILi8ELb0ELb1EE8to_shortEv", metadata !182, i32 1720, metadata !352, i1 false, i1 false, i32 0, i32 0, null, i32 256, i1 false, null, null, i32 0, metadata !123, i32 1720} ; [ DW_TAG_subprogram ]
!352 = metadata !{i32 786453, i32 0, metadata !"", i32 0, i32 0, i64 0, i64 0, i64 0, i32 0, null, metadata !353, i32 0, i32 0} ; [ DW_TAG_subroutine_type ]
!353 = metadata !{metadata !234, metadata !338}
!354 = metadata !{i32 786478, i32 0, metadata !181, metadata !"to_int", metadata !"to_int", metadata !"_ZNK11ap_int_baseILi8ELb0ELb1EE6to_intEv", metadata !182, i32 1721, metadata !355, i1 false, i1 false, i32 0, i32 0, null, i32 256, i1 false, null, null, i32 0, metadata !123, i32 1721} ; [ DW_TAG_subprogram ]
!355 = metadata !{i32 786453, i32 0, metadata !"", i32 0, i32 0, i64 0, i64 0, i64 0, i32 0, null, metadata !356, i32 0, i32 0} ; [ DW_TAG_subroutine_type ]
!356 = metadata !{metadata !201, metadata !338}
!357 = metadata !{i32 786478, i32 0, metadata !181, metadata !"to_uint", metadata !"to_uint", metadata !"_ZNK11ap_int_baseILi8ELb0ELb1EE7to_uintEv", metadata !182, i32 1722, metadata !358, i1 false, i1 false, i32 0, i32 0, null, i32 256, i1 false, null, null, i32 0, metadata !123, i32 1722} ; [ DW_TAG_subprogram ]
!358 = metadata !{i32 786453, i32 0, metadata !"", i32 0, i32 0, i64 0, i64 0, i64 0, i32 0, null, metadata !359, i32 0, i32 0} ; [ DW_TAG_subroutine_type ]
!359 = metadata !{metadata !168, metadata !338}
!360 = metadata !{i32 786478, i32 0, metadata !181, metadata !"to_long", metadata !"to_long", metadata !"_ZNK11ap_int_baseILi8ELb0ELb1EE7to_longEv", metadata !182, i32 1723, metadata !361, i1 false, i1 false, i32 0, i32 0, null, i32 256, i1 false, null, null, i32 0, metadata !123, i32 1723} ; [ DW_TAG_subprogram ]
!361 = metadata !{i32 786453, i32 0, metadata !"", i32 0, i32 0, i64 0, i64 0, i64 0, i32 0, null, metadata !362, i32 0, i32 0} ; [ DW_TAG_subroutine_type ]
!362 = metadata !{metadata !248, metadata !338}
!363 = metadata !{i32 786478, i32 0, metadata !181, metadata !"to_ulong", metadata !"to_ulong", metadata !"_ZNK11ap_int_baseILi8ELb0ELb1EE8to_ulongEv", metadata !182, i32 1724, metadata !364, i1 false, i1 false, i32 0, i32 0, null, i32 256, i1 false, null, null, i32 0, metadata !123, i32 1724} ; [ DW_TAG_subprogram ]
!364 = metadata !{i32 786453, i32 0, metadata !"", i32 0, i32 0, i64 0, i64 0, i64 0, i32 0, null, metadata !365, i32 0, i32 0} ; [ DW_TAG_subroutine_type ]
!365 = metadata !{metadata !252, metadata !338}
!366 = metadata !{i32 786478, i32 0, metadata !181, metadata !"to_int64", metadata !"to_int64", metadata !"_ZNK11ap_int_baseILi8ELb0ELb1EE8to_int64Ev", metadata !182, i32 1725, metadata !367, i1 false, i1 false, i32 0, i32 0, null, i32 256, i1 false, null, null, i32 0, metadata !123, i32 1725} ; [ DW_TAG_subprogram ]
!367 = metadata !{i32 786453, i32 0, metadata !"", i32 0, i32 0, i64 0, i64 0, i64 0, i32 0, null, metadata !368, i32 0, i32 0} ; [ DW_TAG_subroutine_type ]
!368 = metadata !{metadata !256, metadata !338}
!369 = metadata !{i32 786478, i32 0, metadata !181, metadata !"to_uint64", metadata !"to_uint64", metadata !"_ZNK11ap_int_baseILi8ELb0ELb1EE9to_uint64Ev", metadata !182, i32 1726, metadata !370, i1 false, i1 false, i32 0, i32 0, null, i32 256, i1 false, null, null, i32 0, metadata !123, i32 1726} ; [ DW_TAG_subprogram ]
!370 = metadata !{i32 786453, i32 0, metadata !"", i32 0, i32 0, i64 0, i64 0, i64 0, i32 0, null, metadata !371, i32 0, i32 0} ; [ DW_TAG_subroutine_type ]
!371 = metadata !{metadata !261, metadata !338}
!372 = metadata !{i32 786478, i32 0, metadata !181, metadata !"to_double", metadata !"to_double", metadata !"_ZNK11ap_int_baseILi8ELb0ELb1EE9to_doubleEv", metadata !182, i32 1727, metadata !373, i1 false, i1 false, i32 0, i32 0, null, i32 256, i1 false, null, null, i32 0, metadata !123, i32 1727} ; [ DW_TAG_subprogram ]
!373 = metadata !{i32 786453, i32 0, metadata !"", i32 0, i32 0, i64 0, i64 0, i64 0, i32 0, null, metadata !374, i32 0, i32 0} ; [ DW_TAG_subroutine_type ]
!374 = metadata !{metadata !274, metadata !338}
!375 = metadata !{i32 786478, i32 0, metadata !181, metadata !"length", metadata !"length", metadata !"_ZNK11ap_int_baseILi8ELb0ELb1EE6lengthEv", metadata !182, i32 1741, metadata !355, i1 false, i1 false, i32 0, i32 0, null, i32 256, i1 false, null, null, i32 0, metadata !123, i32 1741} ; [ DW_TAG_subprogram ]
!376 = metadata !{i32 786478, i32 0, metadata !181, metadata !"length", metadata !"length", metadata !"_ZNVK11ap_int_baseILi8ELb0ELb1EE6lengthEv", metadata !182, i32 1742, metadata !377, i1 false, i1 false, i32 0, i32 0, null, i32 256, i1 false, null, null, i32 0, metadata !123, i32 1742} ; [ DW_TAG_subprogram ]
!377 = metadata !{i32 786453, i32 0, metadata !"", i32 0, i32 0, i64 0, i64 0, i64 0, i32 0, null, metadata !378, i32 0, i32 0} ; [ DW_TAG_subroutine_type ]
!378 = metadata !{metadata !201, metadata !379}
!379 = metadata !{i32 786447, i32 0, metadata !"", i32 0, i32 0, i64 64, i64 64, i64 0, i32 64, metadata !219} ; [ DW_TAG_pointer_type ]
!380 = metadata !{i32 786478, i32 0, metadata !181, metadata !"reverse", metadata !"reverse", metadata !"_ZN11ap_int_baseILi8ELb0ELb1EE7reverseEv", metadata !182, i32 1747, metadata !381, i1 false, i1 false, i32 0, i32 0, null, i32 256, i1 false, null, null, i32 0, metadata !123, i32 1747} ; [ DW_TAG_subprogram ]
!381 = metadata !{i32 786453, i32 0, metadata !"", i32 0, i32 0, i64 0, i64 0, i64 0, i32 0, null, metadata !382, i32 0, i32 0} ; [ DW_TAG_subroutine_type ]
!382 = metadata !{metadata !295, metadata !206}
!383 = metadata !{i32 786478, i32 0, metadata !181, metadata !"iszero", metadata !"iszero", metadata !"_ZNK11ap_int_baseILi8ELb0ELb1EE6iszeroEv", metadata !182, i32 1753, metadata !340, i1 false, i1 false, i32 0, i32 0, null, i32 256, i1 false, null, null, i32 0, metadata !123, i32 1753} ; [ DW_TAG_subprogram ]
!384 = metadata !{i32 786478, i32 0, metadata !181, metadata !"is_zero", metadata !"is_zero", metadata !"_ZNK11ap_int_baseILi8ELb0ELb1EE7is_zeroEv", metadata !182, i32 1758, metadata !340, i1 false, i1 false, i32 0, i32 0, null, i32 256, i1 false, null, null, i32 0, metadata !123, i32 1758} ; [ DW_TAG_subprogram ]
!385 = metadata !{i32 786478, i32 0, metadata !181, metadata !"sign", metadata !"sign", metadata !"_ZNK11ap_int_baseILi8ELb0ELb1EE4signEv", metadata !182, i32 1763, metadata !340, i1 false, i1 false, i32 0, i32 0, null, i32 256, i1 false, null, null, i32 0, metadata !123, i32 1763} ; [ DW_TAG_subprogram ]
!386 = metadata !{i32 786478, i32 0, metadata !181, metadata !"clear", metadata !"clear", metadata !"_ZN11ap_int_baseILi8ELb0ELb1EE5clearEi", metadata !182, i32 1771, metadata !240, i1 false, i1 false, i32 0, i32 0, null, i32 256, i1 false, null, null, i32 0, metadata !123, i32 1771} ; [ DW_TAG_subprogram ]
!387 = metadata !{i32 786478, i32 0, metadata !181, metadata !"invert", metadata !"invert", metadata !"_ZN11ap_int_baseILi8ELb0ELb1EE6invertEi", metadata !182, i32 1777, metadata !240, i1 false, i1 false, i32 0, i32 0, null, i32 256, i1 false, null, null, i32 0, metadata !123, i32 1777} ; [ DW_TAG_subprogram ]
!388 = metadata !{i32 786478, i32 0, metadata !181, metadata !"test", metadata !"test", metadata !"_ZNK11ap_int_baseILi8ELb0ELb1EE4testEi", metadata !182, i32 1785, metadata !389, i1 false, i1 false, i32 0, i32 0, null, i32 256, i1 false, null, null, i32 0, metadata !123, i32 1785} ; [ DW_TAG_subprogram ]
!389 = metadata !{i32 786453, i32 0, metadata !"", i32 0, i32 0, i64 0, i64 0, i64 0, i32 0, null, metadata !390, i32 0, i32 0} ; [ DW_TAG_subroutine_type ]
!390 = metadata !{metadata !151, metadata !338, metadata !201}
!391 = metadata !{i32 786478, i32 0, metadata !181, metadata !"set", metadata !"set", metadata !"_ZN11ap_int_baseILi8ELb0ELb1EE3setEi", metadata !182, i32 1791, metadata !240, i1 false, i1 false, i32 0, i32 0, null, i32 256, i1 false, null, null, i32 0, metadata !123, i32 1791} ; [ DW_TAG_subprogram ]
!392 = metadata !{i32 786478, i32 0, metadata !181, metadata !"set", metadata !"set", metadata !"_ZN11ap_int_baseILi8ELb0ELb1EE3setEib", metadata !182, i32 1797, metadata !393, i1 false, i1 false, i32 0, i32 0, null, i32 256, i1 false, null, null, i32 0, metadata !123, i32 1797} ; [ DW_TAG_subprogram ]
!393 = metadata !{i32 786453, i32 0, metadata !"", i32 0, i32 0, i64 0, i64 0, i64 0, i32 0, null, metadata !394, i32 0, i32 0} ; [ DW_TAG_subroutine_type ]
!394 = metadata !{null, metadata !206, metadata !201, metadata !151}
!395 = metadata !{i32 786478, i32 0, metadata !181, metadata !"lrotate", metadata !"lrotate", metadata !"_ZN11ap_int_baseILi8ELb0ELb1EE7lrotateEi", metadata !182, i32 1804, metadata !240, i1 false, i1 false, i32 0, i32 0, null, i32 256, i1 false, null, null, i32 0, metadata !123, i32 1804} ; [ DW_TAG_subprogram ]
!396 = metadata !{i32 786478, i32 0, metadata !181, metadata !"rrotate", metadata !"rrotate", metadata !"_ZN11ap_int_baseILi8ELb0ELb1EE7rrotateEi", metadata !182, i32 1813, metadata !240, i1 false, i1 false, i32 0, i32 0, null, i32 256, i1 false, null, null, i32 0, metadata !123, i32 1813} ; [ DW_TAG_subprogram ]
!397 = metadata !{i32 786478, i32 0, metadata !181, metadata !"set_bit", metadata !"set_bit", metadata !"_ZN11ap_int_baseILi8ELb0ELb1EE7set_bitEib", metadata !182, i32 1821, metadata !393, i1 false, i1 false, i32 0, i32 0, null, i32 256, i1 false, null, null, i32 0, metadata !123, i32 1821} ; [ DW_TAG_subprogram ]
!398 = metadata !{i32 786478, i32 0, metadata !181, metadata !"get_bit", metadata !"get_bit", metadata !"_ZNK11ap_int_baseILi8ELb0ELb1EE7get_bitEi", metadata !182, i32 1826, metadata !389, i1 false, i1 false, i32 0, i32 0, null, i32 256, i1 false, null, null, i32 0, metadata !123, i32 1826} ; [ DW_TAG_subprogram ]
!399 = metadata !{i32 786478, i32 0, metadata !181, metadata !"b_not", metadata !"b_not", metadata !"_ZN11ap_int_baseILi8ELb0ELb1EE5b_notEv", metadata !182, i32 1831, metadata !204, i1 false, i1 false, i32 0, i32 0, null, i32 256, i1 false, null, null, i32 0, metadata !123, i32 1831} ; [ DW_TAG_subprogram ]
!400 = metadata !{i32 786478, i32 0, metadata !181, metadata !"countLeadingZeros", metadata !"countLeadingZeros", metadata !"_ZN11ap_int_baseILi8ELb0ELb1EE17countLeadingZerosEv", metadata !182, i32 1838, metadata !401, i1 false, i1 false, i32 0, i32 0, null, i32 256, i1 false, null, null, i32 0, metadata !123, i32 1838} ; [ DW_TAG_subprogram ]
!401 = metadata !{i32 786453, i32 0, metadata !"", i32 0, i32 0, i64 0, i64 0, i64 0, i32 0, null, metadata !402, i32 0, i32 0} ; [ DW_TAG_subroutine_type ]
!402 = metadata !{metadata !201, metadata !206}
!403 = metadata !{i32 786478, i32 0, metadata !181, metadata !"operator++", metadata !"operator++", metadata !"_ZN11ap_int_baseILi8ELb0ELb1EEppEv", metadata !182, i32 1895, metadata !381, i1 false, i1 false, i32 0, i32 0, null, i32 256, i1 false, null, null, i32 0, metadata !123, i32 1895} ; [ DW_TAG_subprogram ]
!404 = metadata !{i32 786478, i32 0, metadata !181, metadata !"operator--", metadata !"operator--", metadata !"_ZN11ap_int_baseILi8ELb0ELb1EEmmEv", metadata !182, i32 1899, metadata !381, i1 false, i1 false, i32 0, i32 0, null, i32 256, i1 false, null, null, i32 0, metadata !123, i32 1899} ; [ DW_TAG_subprogram ]
!405 = metadata !{i32 786478, i32 0, metadata !181, metadata !"operator++", metadata !"operator++", metadata !"_ZN11ap_int_baseILi8ELb0ELb1EEppEi", metadata !182, i32 1907, metadata !406, i1 false, i1 false, i32 0, i32 0, null, i32 256, i1 false, null, null, i32 0, metadata !123, i32 1907} ; [ DW_TAG_subprogram ]
!406 = metadata !{i32 786453, i32 0, metadata !"", i32 0, i32 0, i64 0, i64 0, i64 0, i32 0, null, metadata !407, i32 0, i32 0} ; [ DW_TAG_subroutine_type ]
!407 = metadata !{metadata !211, metadata !206, metadata !201}
!408 = metadata !{i32 786478, i32 0, metadata !181, metadata !"operator--", metadata !"operator--", metadata !"_ZN11ap_int_baseILi8ELb0ELb1EEmmEi", metadata !182, i32 1912, metadata !406, i1 false, i1 false, i32 0, i32 0, null, i32 256, i1 false, null, null, i32 0, metadata !123, i32 1912} ; [ DW_TAG_subprogram ]
!409 = metadata !{i32 786478, i32 0, metadata !181, metadata !"operator+", metadata !"operator+", metadata !"_ZNK11ap_int_baseILi8ELb0ELb1EEpsEv", metadata !182, i32 1921, metadata !410, i1 false, i1 false, i32 0, i32 0, null, i32 256, i1 false, null, null, i32 0, metadata !123, i32 1921} ; [ DW_TAG_subprogram ]
!410 = metadata !{i32 786453, i32 0, metadata !"", i32 0, i32 0, i64 0, i64 0, i64 0, i32 0, null, metadata !411, i32 0, i32 0} ; [ DW_TAG_subroutine_type ]
!411 = metadata !{metadata !181, metadata !338}
!412 = metadata !{i32 786478, i32 0, metadata !181, metadata !"operator!", metadata !"operator!", metadata !"_ZNK11ap_int_baseILi8ELb0ELb1EEntEv", metadata !182, i32 1927, metadata !340, i1 false, i1 false, i32 0, i32 0, null, i32 256, i1 false, null, null, i32 0, metadata !123, i32 1927} ; [ DW_TAG_subprogram ]
!413 = metadata !{i32 786478, i32 0, metadata !181, metadata !"operator-", metadata !"operator-", metadata !"_ZNK11ap_int_baseILi8ELb0ELb1EEngEv", metadata !182, i32 1932, metadata !414, i1 false, i1 false, i32 0, i32 0, null, i32 256, i1 false, null, null, i32 0, metadata !123, i32 1932} ; [ DW_TAG_subprogram ]
!414 = metadata !{i32 786453, i32 0, metadata !"", i32 0, i32 0, i64 0, i64 0, i64 0, i32 0, null, metadata !415, i32 0, i32 0} ; [ DW_TAG_subroutine_type ]
!415 = metadata !{metadata !416, metadata !338}
!416 = metadata !{i32 786434, null, metadata !"ap_int_base<9, true, true>", metadata !182, i32 1453, i64 16, i64 16, i32 0, i32 0, null, metadata !417, i32 0, null, metadata !706} ; [ DW_TAG_class_type ]
!417 = metadata !{metadata !418, metadata !430, metadata !434, metadata !437, metadata !440, metadata !443, metadata !446, metadata !449, metadata !452, metadata !455, metadata !458, metadata !461, metadata !464, metadata !467, metadata !470, metadata !473, metadata !476, metadata !479, metadata !482, metadata !487, metadata !492, metadata !497, metadata !498, metadata !502, metadata !505, metadata !508, metadata !511, metadata !514, metadata !517, metadata !520, metadata !523, metadata !526, metadata !529, metadata !532, metadata !535, metadata !544, metadata !547, metadata !550, metadata !553, metadata !556, metadata !559, metadata !562, metadata !565, metadata !568, metadata !571, metadata !574, metadata !577, metadata !580, metadata !581, metadata !585, metadata !588, metadata !589, metadata !590, metadata !591, metadata !592, metadata !593, metadata !596, metadata !597, metadata !600, metadata !601, metadata !602, metadata !603, metadata !604, metadata !605, metadata !608, metadata !609, metadata !610, metadata !613, metadata !614, metadata !617, metadata !618, metadata !625, metadata !631, metadata !632, metadata !635, metadata !636, metadata !673, metadata !674, metadata !675, metadata !676, metadata !679, metadata !680, metadata !681, metadata !682, metadata !683, metadata !684, metadata !685, metadata !686, metadata !687, metadata !688, metadata !689, metadata !690, metadata !700, metadata !703}
!418 = metadata !{i32 786460, metadata !416, null, metadata !182, i32 0, i64 0, i64 0, i64 0, i32 0, metadata !419} ; [ DW_TAG_inheritance ]
!419 = metadata !{i32 786434, null, metadata !"ssdm_int<9 + 1024 * 0, true>", metadata !186, i32 11, i64 16, i64 16, i32 0, i32 0, null, metadata !420, i32 0, null, metadata !427} ; [ DW_TAG_class_type ]
!420 = metadata !{metadata !421, metadata !423}
!421 = metadata !{i32 786445, metadata !419, metadata !"V", metadata !186, i32 11, i64 9, i64 16, i64 0, i32 0, metadata !422} ; [ DW_TAG_member ]
!422 = metadata !{i32 786468, null, metadata !"int9", null, i32 0, i64 9, i64 16, i64 0, i32 0, i32 5} ; [ DW_TAG_base_type ]
!423 = metadata !{i32 786478, i32 0, metadata !419, metadata !"ssdm_int", metadata !"ssdm_int", metadata !"", metadata !186, i32 11, metadata !424, i1 false, i1 false, i32 0, i32 0, null, i32 256, i1 false, null, null, i32 0, metadata !123, i32 11} ; [ DW_TAG_subprogram ]
!424 = metadata !{i32 786453, i32 0, metadata !"", i32 0, i32 0, i64 0, i64 0, i64 0, i32 0, null, metadata !425, i32 0, i32 0} ; [ DW_TAG_subroutine_type ]
!425 = metadata !{null, metadata !426}
!426 = metadata !{i32 786447, i32 0, metadata !"", i32 0, i32 0, i64 64, i64 64, i64 0, i32 64, metadata !419} ; [ DW_TAG_pointer_type ]
!427 = metadata !{metadata !428, metadata !429}
!428 = metadata !{i32 786480, null, metadata !"_AP_N", metadata !201, i64 9, null, i32 0, i32 0} ; [ DW_TAG_template_value_parameter ]
!429 = metadata !{i32 786480, null, metadata !"_AP_S", metadata !151, i64 1, null, i32 0, i32 0} ; [ DW_TAG_template_value_parameter ]
!430 = metadata !{i32 786478, i32 0, metadata !416, metadata !"ap_int_base", metadata !"ap_int_base", metadata !"", metadata !182, i32 1494, metadata !431, i1 false, i1 false, i32 0, i32 0, null, i32 256, i1 false, null, null, i32 0, metadata !123, i32 1494} ; [ DW_TAG_subprogram ]
!431 = metadata !{i32 786453, i32 0, metadata !"", i32 0, i32 0, i64 0, i64 0, i64 0, i32 0, null, metadata !432, i32 0, i32 0} ; [ DW_TAG_subroutine_type ]
!432 = metadata !{null, metadata !433}
!433 = metadata !{i32 786447, i32 0, metadata !"", i32 0, i32 0, i64 64, i64 64, i64 0, i32 64, metadata !416} ; [ DW_TAG_pointer_type ]
!434 = metadata !{i32 786478, i32 0, metadata !416, metadata !"ap_int_base", metadata !"ap_int_base", metadata !"", metadata !182, i32 1516, metadata !435, i1 false, i1 false, i32 0, i32 0, null, i32 384, i1 false, null, null, i32 0, metadata !123, i32 1516} ; [ DW_TAG_subprogram ]
!435 = metadata !{i32 786453, i32 0, metadata !"", i32 0, i32 0, i64 0, i64 0, i64 0, i32 0, null, metadata !436, i32 0, i32 0} ; [ DW_TAG_subroutine_type ]
!436 = metadata !{null, metadata !433, metadata !151}
!437 = metadata !{i32 786478, i32 0, metadata !416, metadata !"ap_int_base", metadata !"ap_int_base", metadata !"", metadata !182, i32 1517, metadata !438, i1 false, i1 false, i32 0, i32 0, null, i32 384, i1 false, null, null, i32 0, metadata !123, i32 1517} ; [ DW_TAG_subprogram ]
!438 = metadata !{i32 786453, i32 0, metadata !"", i32 0, i32 0, i64 0, i64 0, i64 0, i32 0, null, metadata !439, i32 0, i32 0} ; [ DW_TAG_subroutine_type ]
!439 = metadata !{null, metadata !433, metadata !227}
!440 = metadata !{i32 786478, i32 0, metadata !416, metadata !"ap_int_base", metadata !"ap_int_base", metadata !"", metadata !182, i32 1518, metadata !441, i1 false, i1 false, i32 0, i32 0, null, i32 384, i1 false, null, null, i32 0, metadata !123, i32 1518} ; [ DW_TAG_subprogram ]
!441 = metadata !{i32 786453, i32 0, metadata !"", i32 0, i32 0, i64 0, i64 0, i64 0, i32 0, null, metadata !442, i32 0, i32 0} ; [ DW_TAG_subroutine_type ]
!442 = metadata !{null, metadata !433, metadata !118}
!443 = metadata !{i32 786478, i32 0, metadata !416, metadata !"ap_int_base", metadata !"ap_int_base", metadata !"", metadata !182, i32 1519, metadata !444, i1 false, i1 false, i32 0, i32 0, null, i32 384, i1 false, null, null, i32 0, metadata !123, i32 1519} ; [ DW_TAG_subprogram ]
!444 = metadata !{i32 786453, i32 0, metadata !"", i32 0, i32 0, i64 0, i64 0, i64 0, i32 0, null, metadata !445, i32 0, i32 0} ; [ DW_TAG_subroutine_type ]
!445 = metadata !{null, metadata !433, metadata !234}
!446 = metadata !{i32 786478, i32 0, metadata !416, metadata !"ap_int_base", metadata !"ap_int_base", metadata !"", metadata !182, i32 1520, metadata !447, i1 false, i1 false, i32 0, i32 0, null, i32 384, i1 false, null, null, i32 0, metadata !123, i32 1520} ; [ DW_TAG_subprogram ]
!447 = metadata !{i32 786453, i32 0, metadata !"", i32 0, i32 0, i64 0, i64 0, i64 0, i32 0, null, metadata !448, i32 0, i32 0} ; [ DW_TAG_subroutine_type ]
!448 = metadata !{null, metadata !433, metadata !238}
!449 = metadata !{i32 786478, i32 0, metadata !416, metadata !"ap_int_base", metadata !"ap_int_base", metadata !"", metadata !182, i32 1521, metadata !450, i1 false, i1 false, i32 0, i32 0, null, i32 384, i1 false, null, null, i32 0, metadata !123, i32 1521} ; [ DW_TAG_subprogram ]
!450 = metadata !{i32 786453, i32 0, metadata !"", i32 0, i32 0, i64 0, i64 0, i64 0, i32 0, null, metadata !451, i32 0, i32 0} ; [ DW_TAG_subroutine_type ]
!451 = metadata !{null, metadata !433, metadata !201}
!452 = metadata !{i32 786478, i32 0, metadata !416, metadata !"ap_int_base", metadata !"ap_int_base", metadata !"", metadata !182, i32 1522, metadata !453, i1 false, i1 false, i32 0, i32 0, null, i32 384, i1 false, null, null, i32 0, metadata !123, i32 1522} ; [ DW_TAG_subprogram ]
!453 = metadata !{i32 786453, i32 0, metadata !"", i32 0, i32 0, i64 0, i64 0, i64 0, i32 0, null, metadata !454, i32 0, i32 0} ; [ DW_TAG_subroutine_type ]
!454 = metadata !{null, metadata !433, metadata !168}
!455 = metadata !{i32 786478, i32 0, metadata !416, metadata !"ap_int_base", metadata !"ap_int_base", metadata !"", metadata !182, i32 1523, metadata !456, i1 false, i1 false, i32 0, i32 0, null, i32 384, i1 false, null, null, i32 0, metadata !123, i32 1523} ; [ DW_TAG_subprogram ]
!456 = metadata !{i32 786453, i32 0, metadata !"", i32 0, i32 0, i64 0, i64 0, i64 0, i32 0, null, metadata !457, i32 0, i32 0} ; [ DW_TAG_subroutine_type ]
!457 = metadata !{null, metadata !433, metadata !248}
!458 = metadata !{i32 786478, i32 0, metadata !416, metadata !"ap_int_base", metadata !"ap_int_base", metadata !"", metadata !182, i32 1524, metadata !459, i1 false, i1 false, i32 0, i32 0, null, i32 384, i1 false, null, null, i32 0, metadata !123, i32 1524} ; [ DW_TAG_subprogram ]
!459 = metadata !{i32 786453, i32 0, metadata !"", i32 0, i32 0, i64 0, i64 0, i64 0, i32 0, null, metadata !460, i32 0, i32 0} ; [ DW_TAG_subroutine_type ]
!460 = metadata !{null, metadata !433, metadata !252}
!461 = metadata !{i32 786478, i32 0, metadata !416, metadata !"ap_int_base", metadata !"ap_int_base", metadata !"", metadata !182, i32 1525, metadata !462, i1 false, i1 false, i32 0, i32 0, null, i32 384, i1 false, null, null, i32 0, metadata !123, i32 1525} ; [ DW_TAG_subprogram ]
!462 = metadata !{i32 786453, i32 0, metadata !"", i32 0, i32 0, i64 0, i64 0, i64 0, i32 0, null, metadata !463, i32 0, i32 0} ; [ DW_TAG_subroutine_type ]
!463 = metadata !{null, metadata !433, metadata !256}
!464 = metadata !{i32 786478, i32 0, metadata !416, metadata !"ap_int_base", metadata !"ap_int_base", metadata !"", metadata !182, i32 1526, metadata !465, i1 false, i1 false, i32 0, i32 0, null, i32 384, i1 false, null, null, i32 0, metadata !123, i32 1526} ; [ DW_TAG_subprogram ]
!465 = metadata !{i32 786453, i32 0, metadata !"", i32 0, i32 0, i64 0, i64 0, i64 0, i32 0, null, metadata !466, i32 0, i32 0} ; [ DW_TAG_subroutine_type ]
!466 = metadata !{null, metadata !433, metadata !261}
!467 = metadata !{i32 786478, i32 0, metadata !416, metadata !"ap_int_base", metadata !"ap_int_base", metadata !"", metadata !182, i32 1527, metadata !468, i1 false, i1 false, i32 0, i32 0, null, i32 384, i1 false, null, null, i32 0, metadata !123, i32 1527} ; [ DW_TAG_subprogram ]
!468 = metadata !{i32 786453, i32 0, metadata !"", i32 0, i32 0, i64 0, i64 0, i64 0, i32 0, null, metadata !469, i32 0, i32 0} ; [ DW_TAG_subroutine_type ]
!469 = metadata !{null, metadata !433, metadata !265}
!470 = metadata !{i32 786478, i32 0, metadata !416, metadata !"ap_int_base", metadata !"ap_int_base", metadata !"", metadata !182, i32 1528, metadata !471, i1 false, i1 false, i32 0, i32 0, null, i32 384, i1 false, null, null, i32 0, metadata !123, i32 1528} ; [ DW_TAG_subprogram ]
!471 = metadata !{i32 786453, i32 0, metadata !"", i32 0, i32 0, i64 0, i64 0, i64 0, i32 0, null, metadata !472, i32 0, i32 0} ; [ DW_TAG_subroutine_type ]
!472 = metadata !{null, metadata !433, metadata !270}
!473 = metadata !{i32 786478, i32 0, metadata !416, metadata !"ap_int_base", metadata !"ap_int_base", metadata !"", metadata !182, i32 1529, metadata !474, i1 false, i1 false, i32 0, i32 0, null, i32 384, i1 false, null, null, i32 0, metadata !123, i32 1529} ; [ DW_TAG_subprogram ]
!474 = metadata !{i32 786453, i32 0, metadata !"", i32 0, i32 0, i64 0, i64 0, i64 0, i32 0, null, metadata !475, i32 0, i32 0} ; [ DW_TAG_subroutine_type ]
!475 = metadata !{null, metadata !433, metadata !274}
!476 = metadata !{i32 786478, i32 0, metadata !416, metadata !"ap_int_base", metadata !"ap_int_base", metadata !"", metadata !182, i32 1556, metadata !477, i1 false, i1 false, i32 0, i32 0, null, i32 256, i1 false, null, null, i32 0, metadata !123, i32 1556} ; [ DW_TAG_subprogram ]
!477 = metadata !{i32 786453, i32 0, metadata !"", i32 0, i32 0, i64 0, i64 0, i64 0, i32 0, null, metadata !478, i32 0, i32 0} ; [ DW_TAG_subroutine_type ]
!478 = metadata !{null, metadata !433, metadata !128}
!479 = metadata !{i32 786478, i32 0, metadata !416, metadata !"ap_int_base", metadata !"ap_int_base", metadata !"", metadata !182, i32 1563, metadata !480, i1 false, i1 false, i32 0, i32 0, null, i32 256, i1 false, null, null, i32 0, metadata !123, i32 1563} ; [ DW_TAG_subprogram ]
!480 = metadata !{i32 786453, i32 0, metadata !"", i32 0, i32 0, i64 0, i64 0, i64 0, i32 0, null, metadata !481, i32 0, i32 0} ; [ DW_TAG_subroutine_type ]
!481 = metadata !{null, metadata !433, metadata !128, metadata !227}
!482 = metadata !{i32 786478, i32 0, metadata !416, metadata !"read", metadata !"read", metadata !"_ZNV11ap_int_baseILi9ELb1ELb1EE4readEv", metadata !182, i32 1584, metadata !483, i1 false, i1 false, i32 0, i32 0, null, i32 256, i1 false, null, null, i32 0, metadata !123, i32 1584} ; [ DW_TAG_subprogram ]
!483 = metadata !{i32 786453, i32 0, metadata !"", i32 0, i32 0, i64 0, i64 0, i64 0, i32 0, null, metadata !484, i32 0, i32 0} ; [ DW_TAG_subroutine_type ]
!484 = metadata !{metadata !416, metadata !485}
!485 = metadata !{i32 786447, i32 0, metadata !"", i32 0, i32 0, i64 64, i64 64, i64 0, i32 64, metadata !486} ; [ DW_TAG_pointer_type ]
!486 = metadata !{i32 786485, null, metadata !"", null, i32 0, i64 0, i64 0, i64 0, i32 0, metadata !416} ; [ DW_TAG_volatile_type ]
!487 = metadata !{i32 786478, i32 0, metadata !416, metadata !"write", metadata !"write", metadata !"_ZNV11ap_int_baseILi9ELb1ELb1EE5writeERKS0_", metadata !182, i32 1590, metadata !488, i1 false, i1 false, i32 0, i32 0, null, i32 256, i1 false, null, null, i32 0, metadata !123, i32 1590} ; [ DW_TAG_subprogram ]
!488 = metadata !{i32 786453, i32 0, metadata !"", i32 0, i32 0, i64 0, i64 0, i64 0, i32 0, null, metadata !489, i32 0, i32 0} ; [ DW_TAG_subroutine_type ]
!489 = metadata !{null, metadata !485, metadata !490}
!490 = metadata !{i32 786448, null, null, null, i32 0, i64 0, i64 0, i64 0, i32 0, metadata !491} ; [ DW_TAG_reference_type ]
!491 = metadata !{i32 786470, null, metadata !"", null, i32 0, i64 0, i64 0, i64 0, i32 0, metadata !416} ; [ DW_TAG_const_type ]
!492 = metadata !{i32 786478, i32 0, metadata !416, metadata !"operator=", metadata !"operator=", metadata !"_ZNV11ap_int_baseILi9ELb1ELb1EEaSERVKS0_", metadata !182, i32 1602, metadata !493, i1 false, i1 false, i32 0, i32 0, null, i32 256, i1 false, null, null, i32 0, metadata !123, i32 1602} ; [ DW_TAG_subprogram ]
!493 = metadata !{i32 786453, i32 0, metadata !"", i32 0, i32 0, i64 0, i64 0, i64 0, i32 0, null, metadata !494, i32 0, i32 0} ; [ DW_TAG_subroutine_type ]
!494 = metadata !{null, metadata !485, metadata !495}
!495 = metadata !{i32 786448, null, null, null, i32 0, i64 0, i64 0, i64 0, i32 0, metadata !496} ; [ DW_TAG_reference_type ]
!496 = metadata !{i32 786470, null, metadata !"", null, i32 0, i64 0, i64 0, i64 0, i32 0, metadata !486} ; [ DW_TAG_const_type ]
!497 = metadata !{i32 786478, i32 0, metadata !416, metadata !"operator=", metadata !"operator=", metadata !"_ZNV11ap_int_baseILi9ELb1ELb1EEaSERKS0_", metadata !182, i32 1611, metadata !488, i1 false, i1 false, i32 0, i32 0, null, i32 256, i1 false, null, null, i32 0, metadata !123, i32 1611} ; [ DW_TAG_subprogram ]
!498 = metadata !{i32 786478, i32 0, metadata !416, metadata !"operator=", metadata !"operator=", metadata !"_ZN11ap_int_baseILi9ELb1ELb1EEaSERVKS0_", metadata !182, i32 1634, metadata !499, i1 false, i1 false, i32 0, i32 0, null, i32 256, i1 false, null, null, i32 0, metadata !123, i32 1634} ; [ DW_TAG_subprogram ]
!499 = metadata !{i32 786453, i32 0, metadata !"", i32 0, i32 0, i64 0, i64 0, i64 0, i32 0, null, metadata !500, i32 0, i32 0} ; [ DW_TAG_subroutine_type ]
!500 = metadata !{metadata !501, metadata !433, metadata !495}
!501 = metadata !{i32 786448, null, null, null, i32 0, i64 0, i64 0, i64 0, i32 0, metadata !416} ; [ DW_TAG_reference_type ]
!502 = metadata !{i32 786478, i32 0, metadata !416, metadata !"operator=", metadata !"operator=", metadata !"_ZN11ap_int_baseILi9ELb1ELb1EEaSERKS0_", metadata !182, i32 1639, metadata !503, i1 false, i1 false, i32 0, i32 0, null, i32 256, i1 false, null, null, i32 0, metadata !123, i32 1639} ; [ DW_TAG_subprogram ]
!503 = metadata !{i32 786453, i32 0, metadata !"", i32 0, i32 0, i64 0, i64 0, i64 0, i32 0, null, metadata !504, i32 0, i32 0} ; [ DW_TAG_subroutine_type ]
!504 = metadata !{metadata !501, metadata !433, metadata !490}
!505 = metadata !{i32 786478, i32 0, metadata !416, metadata !"operator=", metadata !"operator=", metadata !"_ZN11ap_int_baseILi9ELb1ELb1EEaSEPKc", metadata !182, i32 1643, metadata !506, i1 false, i1 false, i32 0, i32 0, null, i32 256, i1 false, null, null, i32 0, metadata !123, i32 1643} ; [ DW_TAG_subprogram ]
!506 = metadata !{i32 786453, i32 0, metadata !"", i32 0, i32 0, i64 0, i64 0, i64 0, i32 0, null, metadata !507, i32 0, i32 0} ; [ DW_TAG_subroutine_type ]
!507 = metadata !{metadata !501, metadata !433, metadata !128}
!508 = metadata !{i32 786478, i32 0, metadata !416, metadata !"set", metadata !"set", metadata !"_ZN11ap_int_baseILi9ELb1ELb1EE3setEPKca", metadata !182, i32 1651, metadata !509, i1 false, i1 false, i32 0, i32 0, null, i32 256, i1 false, null, null, i32 0, metadata !123, i32 1651} ; [ DW_TAG_subprogram ]
!509 = metadata !{i32 786453, i32 0, metadata !"", i32 0, i32 0, i64 0, i64 0, i64 0, i32 0, null, metadata !510, i32 0, i32 0} ; [ DW_TAG_subroutine_type ]
!510 = metadata !{metadata !501, metadata !433, metadata !128, metadata !227}
!511 = metadata !{i32 786478, i32 0, metadata !416, metadata !"operator=", metadata !"operator=", metadata !"_ZN11ap_int_baseILi9ELb1ELb1EEaSEa", metadata !182, i32 1665, metadata !512, i1 false, i1 false, i32 0, i32 0, null, i32 256, i1 false, null, null, i32 0, metadata !123, i32 1665} ; [ DW_TAG_subprogram ]
!512 = metadata !{i32 786453, i32 0, metadata !"", i32 0, i32 0, i64 0, i64 0, i64 0, i32 0, null, metadata !513, i32 0, i32 0} ; [ DW_TAG_subroutine_type ]
!513 = metadata !{metadata !501, metadata !433, metadata !227}
!514 = metadata !{i32 786478, i32 0, metadata !416, metadata !"operator=", metadata !"operator=", metadata !"_ZN11ap_int_baseILi9ELb1ELb1EEaSEh", metadata !182, i32 1666, metadata !515, i1 false, i1 false, i32 0, i32 0, null, i32 256, i1 false, null, null, i32 0, metadata !123, i32 1666} ; [ DW_TAG_subprogram ]
!515 = metadata !{i32 786453, i32 0, metadata !"", i32 0, i32 0, i64 0, i64 0, i64 0, i32 0, null, metadata !516, i32 0, i32 0} ; [ DW_TAG_subroutine_type ]
!516 = metadata !{metadata !501, metadata !433, metadata !118}
!517 = metadata !{i32 786478, i32 0, metadata !416, metadata !"operator=", metadata !"operator=", metadata !"_ZN11ap_int_baseILi9ELb1ELb1EEaSEs", metadata !182, i32 1667, metadata !518, i1 false, i1 false, i32 0, i32 0, null, i32 256, i1 false, null, null, i32 0, metadata !123, i32 1667} ; [ DW_TAG_subprogram ]
!518 = metadata !{i32 786453, i32 0, metadata !"", i32 0, i32 0, i64 0, i64 0, i64 0, i32 0, null, metadata !519, i32 0, i32 0} ; [ DW_TAG_subroutine_type ]
!519 = metadata !{metadata !501, metadata !433, metadata !234}
!520 = metadata !{i32 786478, i32 0, metadata !416, metadata !"operator=", metadata !"operator=", metadata !"_ZN11ap_int_baseILi9ELb1ELb1EEaSEt", metadata !182, i32 1668, metadata !521, i1 false, i1 false, i32 0, i32 0, null, i32 256, i1 false, null, null, i32 0, metadata !123, i32 1668} ; [ DW_TAG_subprogram ]
!521 = metadata !{i32 786453, i32 0, metadata !"", i32 0, i32 0, i64 0, i64 0, i64 0, i32 0, null, metadata !522, i32 0, i32 0} ; [ DW_TAG_subroutine_type ]
!522 = metadata !{metadata !501, metadata !433, metadata !238}
!523 = metadata !{i32 786478, i32 0, metadata !416, metadata !"operator=", metadata !"operator=", metadata !"_ZN11ap_int_baseILi9ELb1ELb1EEaSEi", metadata !182, i32 1669, metadata !524, i1 false, i1 false, i32 0, i32 0, null, i32 256, i1 false, null, null, i32 0, metadata !123, i32 1669} ; [ DW_TAG_subprogram ]
!524 = metadata !{i32 786453, i32 0, metadata !"", i32 0, i32 0, i64 0, i64 0, i64 0, i32 0, null, metadata !525, i32 0, i32 0} ; [ DW_TAG_subroutine_type ]
!525 = metadata !{metadata !501, metadata !433, metadata !201}
!526 = metadata !{i32 786478, i32 0, metadata !416, metadata !"operator=", metadata !"operator=", metadata !"_ZN11ap_int_baseILi9ELb1ELb1EEaSEj", metadata !182, i32 1670, metadata !527, i1 false, i1 false, i32 0, i32 0, null, i32 256, i1 false, null, null, i32 0, metadata !123, i32 1670} ; [ DW_TAG_subprogram ]
!527 = metadata !{i32 786453, i32 0, metadata !"", i32 0, i32 0, i64 0, i64 0, i64 0, i32 0, null, metadata !528, i32 0, i32 0} ; [ DW_TAG_subroutine_type ]
!528 = metadata !{metadata !501, metadata !433, metadata !168}
!529 = metadata !{i32 786478, i32 0, metadata !416, metadata !"operator=", metadata !"operator=", metadata !"_ZN11ap_int_baseILi9ELb1ELb1EEaSEx", metadata !182, i32 1671, metadata !530, i1 false, i1 false, i32 0, i32 0, null, i32 256, i1 false, null, null, i32 0, metadata !123, i32 1671} ; [ DW_TAG_subprogram ]
!530 = metadata !{i32 786453, i32 0, metadata !"", i32 0, i32 0, i64 0, i64 0, i64 0, i32 0, null, metadata !531, i32 0, i32 0} ; [ DW_TAG_subroutine_type ]
!531 = metadata !{metadata !501, metadata !433, metadata !256}
!532 = metadata !{i32 786478, i32 0, metadata !416, metadata !"operator=", metadata !"operator=", metadata !"_ZN11ap_int_baseILi9ELb1ELb1EEaSEy", metadata !182, i32 1672, metadata !533, i1 false, i1 false, i32 0, i32 0, null, i32 256, i1 false, null, null, i32 0, metadata !123, i32 1672} ; [ DW_TAG_subprogram ]
!533 = metadata !{i32 786453, i32 0, metadata !"", i32 0, i32 0, i64 0, i64 0, i64 0, i32 0, null, metadata !534, i32 0, i32 0} ; [ DW_TAG_subroutine_type ]
!534 = metadata !{metadata !501, metadata !433, metadata !261}
!535 = metadata !{i32 786478, i32 0, metadata !416, metadata !"operator short", metadata !"operator short", metadata !"_ZNK11ap_int_baseILi9ELb1ELb1EEcvsEv", metadata !182, i32 1710, metadata !536, i1 false, i1 false, i32 0, i32 0, null, i32 256, i1 false, null, null, i32 0, metadata !123, i32 1710} ; [ DW_TAG_subprogram ]
!536 = metadata !{i32 786453, i32 0, metadata !"", i32 0, i32 0, i64 0, i64 0, i64 0, i32 0, null, metadata !537, i32 0, i32 0} ; [ DW_TAG_subroutine_type ]
!537 = metadata !{metadata !538, metadata !543}
!538 = metadata !{i32 786454, metadata !416, metadata !"RetType", metadata !182, i32 1458, i64 0, i64 0, i64 0, i32 0, metadata !539} ; [ DW_TAG_typedef ]
!539 = metadata !{i32 786454, metadata !540, metadata !"Type", metadata !182, i32 1429, i64 0, i64 0, i64 0, i32 0, metadata !234} ; [ DW_TAG_typedef ]
!540 = metadata !{i32 786434, null, metadata !"retval<2, true>", metadata !182, i32 1428, i64 8, i64 8, i32 0, i32 0, null, metadata !335, i32 0, null, metadata !541} ; [ DW_TAG_class_type ]
!541 = metadata !{metadata !542, metadata !429}
!542 = metadata !{i32 786480, null, metadata !"_AP_N", metadata !201, i64 2, null, i32 0, i32 0} ; [ DW_TAG_template_value_parameter ]
!543 = metadata !{i32 786447, i32 0, metadata !"", i32 0, i32 0, i64 64, i64 64, i64 0, i32 64, metadata !491} ; [ DW_TAG_pointer_type ]
!544 = metadata !{i32 786478, i32 0, metadata !416, metadata !"to_bool", metadata !"to_bool", metadata !"_ZNK11ap_int_baseILi9ELb1ELb1EE7to_boolEv", metadata !182, i32 1716, metadata !545, i1 false, i1 false, i32 0, i32 0, null, i32 256, i1 false, null, null, i32 0, metadata !123, i32 1716} ; [ DW_TAG_subprogram ]
!545 = metadata !{i32 786453, i32 0, metadata !"", i32 0, i32 0, i64 0, i64 0, i64 0, i32 0, null, metadata !546, i32 0, i32 0} ; [ DW_TAG_subroutine_type ]
!546 = metadata !{metadata !151, metadata !543}
!547 = metadata !{i32 786478, i32 0, metadata !416, metadata !"to_uchar", metadata !"to_uchar", metadata !"_ZNK11ap_int_baseILi9ELb1ELb1EE8to_ucharEv", metadata !182, i32 1717, metadata !548, i1 false, i1 false, i32 0, i32 0, null, i32 256, i1 false, null, null, i32 0, metadata !123, i32 1717} ; [ DW_TAG_subprogram ]
!548 = metadata !{i32 786453, i32 0, metadata !"", i32 0, i32 0, i64 0, i64 0, i64 0, i32 0, null, metadata !549, i32 0, i32 0} ; [ DW_TAG_subroutine_type ]
!549 = metadata !{metadata !118, metadata !543}
!550 = metadata !{i32 786478, i32 0, metadata !416, metadata !"to_char", metadata !"to_char", metadata !"_ZNK11ap_int_baseILi9ELb1ELb1EE7to_charEv", metadata !182, i32 1718, metadata !551, i1 false, i1 false, i32 0, i32 0, null, i32 256, i1 false, null, null, i32 0, metadata !123, i32 1718} ; [ DW_TAG_subprogram ]
!551 = metadata !{i32 786453, i32 0, metadata !"", i32 0, i32 0, i64 0, i64 0, i64 0, i32 0, null, metadata !552, i32 0, i32 0} ; [ DW_TAG_subroutine_type ]
!552 = metadata !{metadata !227, metadata !543}
!553 = metadata !{i32 786478, i32 0, metadata !416, metadata !"to_ushort", metadata !"to_ushort", metadata !"_ZNK11ap_int_baseILi9ELb1ELb1EE9to_ushortEv", metadata !182, i32 1719, metadata !554, i1 false, i1 false, i32 0, i32 0, null, i32 256, i1 false, null, null, i32 0, metadata !123, i32 1719} ; [ DW_TAG_subprogram ]
!554 = metadata !{i32 786453, i32 0, metadata !"", i32 0, i32 0, i64 0, i64 0, i64 0, i32 0, null, metadata !555, i32 0, i32 0} ; [ DW_TAG_subroutine_type ]
!555 = metadata !{metadata !238, metadata !543}
!556 = metadata !{i32 786478, i32 0, metadata !416, metadata !"to_short", metadata !"to_short", metadata !"_ZNK11ap_int_baseILi9ELb1ELb1EE8to_shortEv", metadata !182, i32 1720, metadata !557, i1 false, i1 false, i32 0, i32 0, null, i32 256, i1 false, null, null, i32 0, metadata !123, i32 1720} ; [ DW_TAG_subprogram ]
!557 = metadata !{i32 786453, i32 0, metadata !"", i32 0, i32 0, i64 0, i64 0, i64 0, i32 0, null, metadata !558, i32 0, i32 0} ; [ DW_TAG_subroutine_type ]
!558 = metadata !{metadata !234, metadata !543}
!559 = metadata !{i32 786478, i32 0, metadata !416, metadata !"to_int", metadata !"to_int", metadata !"_ZNK11ap_int_baseILi9ELb1ELb1EE6to_intEv", metadata !182, i32 1721, metadata !560, i1 false, i1 false, i32 0, i32 0, null, i32 256, i1 false, null, null, i32 0, metadata !123, i32 1721} ; [ DW_TAG_subprogram ]
!560 = metadata !{i32 786453, i32 0, metadata !"", i32 0, i32 0, i64 0, i64 0, i64 0, i32 0, null, metadata !561, i32 0, i32 0} ; [ DW_TAG_subroutine_type ]
!561 = metadata !{metadata !201, metadata !543}
!562 = metadata !{i32 786478, i32 0, metadata !416, metadata !"to_uint", metadata !"to_uint", metadata !"_ZNK11ap_int_baseILi9ELb1ELb1EE7to_uintEv", metadata !182, i32 1722, metadata !563, i1 false, i1 false, i32 0, i32 0, null, i32 256, i1 false, null, null, i32 0, metadata !123, i32 1722} ; [ DW_TAG_subprogram ]
!563 = metadata !{i32 786453, i32 0, metadata !"", i32 0, i32 0, i64 0, i64 0, i64 0, i32 0, null, metadata !564, i32 0, i32 0} ; [ DW_TAG_subroutine_type ]
!564 = metadata !{metadata !168, metadata !543}
!565 = metadata !{i32 786478, i32 0, metadata !416, metadata !"to_long", metadata !"to_long", metadata !"_ZNK11ap_int_baseILi9ELb1ELb1EE7to_longEv", metadata !182, i32 1723, metadata !566, i1 false, i1 false, i32 0, i32 0, null, i32 256, i1 false, null, null, i32 0, metadata !123, i32 1723} ; [ DW_TAG_subprogram ]
!566 = metadata !{i32 786453, i32 0, metadata !"", i32 0, i32 0, i64 0, i64 0, i64 0, i32 0, null, metadata !567, i32 0, i32 0} ; [ DW_TAG_subroutine_type ]
!567 = metadata !{metadata !248, metadata !543}
!568 = metadata !{i32 786478, i32 0, metadata !416, metadata !"to_ulong", metadata !"to_ulong", metadata !"_ZNK11ap_int_baseILi9ELb1ELb1EE8to_ulongEv", metadata !182, i32 1724, metadata !569, i1 false, i1 false, i32 0, i32 0, null, i32 256, i1 false, null, null, i32 0, metadata !123, i32 1724} ; [ DW_TAG_subprogram ]
!569 = metadata !{i32 786453, i32 0, metadata !"", i32 0, i32 0, i64 0, i64 0, i64 0, i32 0, null, metadata !570, i32 0, i32 0} ; [ DW_TAG_subroutine_type ]
!570 = metadata !{metadata !252, metadata !543}
!571 = metadata !{i32 786478, i32 0, metadata !416, metadata !"to_int64", metadata !"to_int64", metadata !"_ZNK11ap_int_baseILi9ELb1ELb1EE8to_int64Ev", metadata !182, i32 1725, metadata !572, i1 false, i1 false, i32 0, i32 0, null, i32 256, i1 false, null, null, i32 0, metadata !123, i32 1725} ; [ DW_TAG_subprogram ]
!572 = metadata !{i32 786453, i32 0, metadata !"", i32 0, i32 0, i64 0, i64 0, i64 0, i32 0, null, metadata !573, i32 0, i32 0} ; [ DW_TAG_subroutine_type ]
!573 = metadata !{metadata !256, metadata !543}
!574 = metadata !{i32 786478, i32 0, metadata !416, metadata !"to_uint64", metadata !"to_uint64", metadata !"_ZNK11ap_int_baseILi9ELb1ELb1EE9to_uint64Ev", metadata !182, i32 1726, metadata !575, i1 false, i1 false, i32 0, i32 0, null, i32 256, i1 false, null, null, i32 0, metadata !123, i32 1726} ; [ DW_TAG_subprogram ]
!575 = metadata !{i32 786453, i32 0, metadata !"", i32 0, i32 0, i64 0, i64 0, i64 0, i32 0, null, metadata !576, i32 0, i32 0} ; [ DW_TAG_subroutine_type ]
!576 = metadata !{metadata !261, metadata !543}
!577 = metadata !{i32 786478, i32 0, metadata !416, metadata !"to_double", metadata !"to_double", metadata !"_ZNK11ap_int_baseILi9ELb1ELb1EE9to_doubleEv", metadata !182, i32 1727, metadata !578, i1 false, i1 false, i32 0, i32 0, null, i32 256, i1 false, null, null, i32 0, metadata !123, i32 1727} ; [ DW_TAG_subprogram ]
!578 = metadata !{i32 786453, i32 0, metadata !"", i32 0, i32 0, i64 0, i64 0, i64 0, i32 0, null, metadata !579, i32 0, i32 0} ; [ DW_TAG_subroutine_type ]
!579 = metadata !{metadata !274, metadata !543}
!580 = metadata !{i32 786478, i32 0, metadata !416, metadata !"length", metadata !"length", metadata !"_ZNK11ap_int_baseILi9ELb1ELb1EE6lengthEv", metadata !182, i32 1741, metadata !560, i1 false, i1 false, i32 0, i32 0, null, i32 256, i1 false, null, null, i32 0, metadata !123, i32 1741} ; [ DW_TAG_subprogram ]
!581 = metadata !{i32 786478, i32 0, metadata !416, metadata !"length", metadata !"length", metadata !"_ZNVK11ap_int_baseILi9ELb1ELb1EE6lengthEv", metadata !182, i32 1742, metadata !582, i1 false, i1 false, i32 0, i32 0, null, i32 256, i1 false, null, null, i32 0, metadata !123, i32 1742} ; [ DW_TAG_subprogram ]
!582 = metadata !{i32 786453, i32 0, metadata !"", i32 0, i32 0, i64 0, i64 0, i64 0, i32 0, null, metadata !583, i32 0, i32 0} ; [ DW_TAG_subroutine_type ]
!583 = metadata !{metadata !201, metadata !584}
!584 = metadata !{i32 786447, i32 0, metadata !"", i32 0, i32 0, i64 64, i64 64, i64 0, i32 64, metadata !496} ; [ DW_TAG_pointer_type ]
!585 = metadata !{i32 786478, i32 0, metadata !416, metadata !"reverse", metadata !"reverse", metadata !"_ZN11ap_int_baseILi9ELb1ELb1EE7reverseEv", metadata !182, i32 1747, metadata !586, i1 false, i1 false, i32 0, i32 0, null, i32 256, i1 false, null, null, i32 0, metadata !123, i32 1747} ; [ DW_TAG_subprogram ]
!586 = metadata !{i32 786453, i32 0, metadata !"", i32 0, i32 0, i64 0, i64 0, i64 0, i32 0, null, metadata !587, i32 0, i32 0} ; [ DW_TAG_subroutine_type ]
!587 = metadata !{metadata !501, metadata !433}
!588 = metadata !{i32 786478, i32 0, metadata !416, metadata !"iszero", metadata !"iszero", metadata !"_ZNK11ap_int_baseILi9ELb1ELb1EE6iszeroEv", metadata !182, i32 1753, metadata !545, i1 false, i1 false, i32 0, i32 0, null, i32 256, i1 false, null, null, i32 0, metadata !123, i32 1753} ; [ DW_TAG_subprogram ]
!589 = metadata !{i32 786478, i32 0, metadata !416, metadata !"is_zero", metadata !"is_zero", metadata !"_ZNK11ap_int_baseILi9ELb1ELb1EE7is_zeroEv", metadata !182, i32 1758, metadata !545, i1 false, i1 false, i32 0, i32 0, null, i32 256, i1 false, null, null, i32 0, metadata !123, i32 1758} ; [ DW_TAG_subprogram ]
!590 = metadata !{i32 786478, i32 0, metadata !416, metadata !"sign", metadata !"sign", metadata !"_ZNK11ap_int_baseILi9ELb1ELb1EE4signEv", metadata !182, i32 1763, metadata !545, i1 false, i1 false, i32 0, i32 0, null, i32 256, i1 false, null, null, i32 0, metadata !123, i32 1763} ; [ DW_TAG_subprogram ]
!591 = metadata !{i32 786478, i32 0, metadata !416, metadata !"clear", metadata !"clear", metadata !"_ZN11ap_int_baseILi9ELb1ELb1EE5clearEi", metadata !182, i32 1771, metadata !450, i1 false, i1 false, i32 0, i32 0, null, i32 256, i1 false, null, null, i32 0, metadata !123, i32 1771} ; [ DW_TAG_subprogram ]
!592 = metadata !{i32 786478, i32 0, metadata !416, metadata !"invert", metadata !"invert", metadata !"_ZN11ap_int_baseILi9ELb1ELb1EE6invertEi", metadata !182, i32 1777, metadata !450, i1 false, i1 false, i32 0, i32 0, null, i32 256, i1 false, null, null, i32 0, metadata !123, i32 1777} ; [ DW_TAG_subprogram ]
!593 = metadata !{i32 786478, i32 0, metadata !416, metadata !"test", metadata !"test", metadata !"_ZNK11ap_int_baseILi9ELb1ELb1EE4testEi", metadata !182, i32 1785, metadata !594, i1 false, i1 false, i32 0, i32 0, null, i32 256, i1 false, null, null, i32 0, metadata !123, i32 1785} ; [ DW_TAG_subprogram ]
!594 = metadata !{i32 786453, i32 0, metadata !"", i32 0, i32 0, i64 0, i64 0, i64 0, i32 0, null, metadata !595, i32 0, i32 0} ; [ DW_TAG_subroutine_type ]
!595 = metadata !{metadata !151, metadata !543, metadata !201}
!596 = metadata !{i32 786478, i32 0, metadata !416, metadata !"set", metadata !"set", metadata !"_ZN11ap_int_baseILi9ELb1ELb1EE3setEi", metadata !182, i32 1791, metadata !450, i1 false, i1 false, i32 0, i32 0, null, i32 256, i1 false, null, null, i32 0, metadata !123, i32 1791} ; [ DW_TAG_subprogram ]
!597 = metadata !{i32 786478, i32 0, metadata !416, metadata !"set", metadata !"set", metadata !"_ZN11ap_int_baseILi9ELb1ELb1EE3setEib", metadata !182, i32 1797, metadata !598, i1 false, i1 false, i32 0, i32 0, null, i32 256, i1 false, null, null, i32 0, metadata !123, i32 1797} ; [ DW_TAG_subprogram ]
!598 = metadata !{i32 786453, i32 0, metadata !"", i32 0, i32 0, i64 0, i64 0, i64 0, i32 0, null, metadata !599, i32 0, i32 0} ; [ DW_TAG_subroutine_type ]
!599 = metadata !{null, metadata !433, metadata !201, metadata !151}
!600 = metadata !{i32 786478, i32 0, metadata !416, metadata !"lrotate", metadata !"lrotate", metadata !"_ZN11ap_int_baseILi9ELb1ELb1EE7lrotateEi", metadata !182, i32 1804, metadata !450, i1 false, i1 false, i32 0, i32 0, null, i32 256, i1 false, null, null, i32 0, metadata !123, i32 1804} ; [ DW_TAG_subprogram ]
!601 = metadata !{i32 786478, i32 0, metadata !416, metadata !"rrotate", metadata !"rrotate", metadata !"_ZN11ap_int_baseILi9ELb1ELb1EE7rrotateEi", metadata !182, i32 1813, metadata !450, i1 false, i1 false, i32 0, i32 0, null, i32 256, i1 false, null, null, i32 0, metadata !123, i32 1813} ; [ DW_TAG_subprogram ]
!602 = metadata !{i32 786478, i32 0, metadata !416, metadata !"set_bit", metadata !"set_bit", metadata !"_ZN11ap_int_baseILi9ELb1ELb1EE7set_bitEib", metadata !182, i32 1821, metadata !598, i1 false, i1 false, i32 0, i32 0, null, i32 256, i1 false, null, null, i32 0, metadata !123, i32 1821} ; [ DW_TAG_subprogram ]
!603 = metadata !{i32 786478, i32 0, metadata !416, metadata !"get_bit", metadata !"get_bit", metadata !"_ZNK11ap_int_baseILi9ELb1ELb1EE7get_bitEi", metadata !182, i32 1826, metadata !594, i1 false, i1 false, i32 0, i32 0, null, i32 256, i1 false, null, null, i32 0, metadata !123, i32 1826} ; [ DW_TAG_subprogram ]
!604 = metadata !{i32 786478, i32 0, metadata !416, metadata !"b_not", metadata !"b_not", metadata !"_ZN11ap_int_baseILi9ELb1ELb1EE5b_notEv", metadata !182, i32 1831, metadata !431, i1 false, i1 false, i32 0, i32 0, null, i32 256, i1 false, null, null, i32 0, metadata !123, i32 1831} ; [ DW_TAG_subprogram ]
!605 = metadata !{i32 786478, i32 0, metadata !416, metadata !"countLeadingZeros", metadata !"countLeadingZeros", metadata !"_ZN11ap_int_baseILi9ELb1ELb1EE17countLeadingZerosEv", metadata !182, i32 1838, metadata !606, i1 false, i1 false, i32 0, i32 0, null, i32 256, i1 false, null, null, i32 0, metadata !123, i32 1838} ; [ DW_TAG_subprogram ]
!606 = metadata !{i32 786453, i32 0, metadata !"", i32 0, i32 0, i64 0, i64 0, i64 0, i32 0, null, metadata !607, i32 0, i32 0} ; [ DW_TAG_subroutine_type ]
!607 = metadata !{metadata !201, metadata !433}
!608 = metadata !{i32 786478, i32 0, metadata !416, metadata !"operator++", metadata !"operator++", metadata !"_ZN11ap_int_baseILi9ELb1ELb1EEppEv", metadata !182, i32 1895, metadata !586, i1 false, i1 false, i32 0, i32 0, null, i32 256, i1 false, null, null, i32 0, metadata !123, i32 1895} ; [ DW_TAG_subprogram ]
!609 = metadata !{i32 786478, i32 0, metadata !416, metadata !"operator--", metadata !"operator--", metadata !"_ZN11ap_int_baseILi9ELb1ELb1EEmmEv", metadata !182, i32 1899, metadata !586, i1 false, i1 false, i32 0, i32 0, null, i32 256, i1 false, null, null, i32 0, metadata !123, i32 1899} ; [ DW_TAG_subprogram ]
!610 = metadata !{i32 786478, i32 0, metadata !416, metadata !"operator++", metadata !"operator++", metadata !"_ZN11ap_int_baseILi9ELb1ELb1EEppEi", metadata !182, i32 1907, metadata !611, i1 false, i1 false, i32 0, i32 0, null, i32 256, i1 false, null, null, i32 0, metadata !123, i32 1907} ; [ DW_TAG_subprogram ]
!611 = metadata !{i32 786453, i32 0, metadata !"", i32 0, i32 0, i64 0, i64 0, i64 0, i32 0, null, metadata !612, i32 0, i32 0} ; [ DW_TAG_subroutine_type ]
!612 = metadata !{metadata !491, metadata !433, metadata !201}
!613 = metadata !{i32 786478, i32 0, metadata !416, metadata !"operator--", metadata !"operator--", metadata !"_ZN11ap_int_baseILi9ELb1ELb1EEmmEi", metadata !182, i32 1912, metadata !611, i1 false, i1 false, i32 0, i32 0, null, i32 256, i1 false, null, null, i32 0, metadata !123, i32 1912} ; [ DW_TAG_subprogram ]
!614 = metadata !{i32 786478, i32 0, metadata !416, metadata !"operator+", metadata !"operator+", metadata !"_ZNK11ap_int_baseILi9ELb1ELb1EEpsEv", metadata !182, i32 1921, metadata !615, i1 false, i1 false, i32 0, i32 0, null, i32 256, i1 false, null, null, i32 0, metadata !123, i32 1921} ; [ DW_TAG_subprogram ]
!615 = metadata !{i32 786453, i32 0, metadata !"", i32 0, i32 0, i64 0, i64 0, i64 0, i32 0, null, metadata !616, i32 0, i32 0} ; [ DW_TAG_subroutine_type ]
!616 = metadata !{metadata !416, metadata !543}
!617 = metadata !{i32 786478, i32 0, metadata !416, metadata !"operator!", metadata !"operator!", metadata !"_ZNK11ap_int_baseILi9ELb1ELb1EEntEv", metadata !182, i32 1927, metadata !545, i1 false, i1 false, i32 0, i32 0, null, i32 256, i1 false, null, null, i32 0, metadata !123, i32 1927} ; [ DW_TAG_subprogram ]
!618 = metadata !{i32 786478, i32 0, metadata !416, metadata !"operator-", metadata !"operator-", metadata !"_ZNK11ap_int_baseILi9ELb1ELb1EEngEv", metadata !182, i32 1932, metadata !619, i1 false, i1 false, i32 0, i32 0, null, i32 256, i1 false, null, null, i32 0, metadata !123, i32 1932} ; [ DW_TAG_subprogram ]
!619 = metadata !{i32 786453, i32 0, metadata !"", i32 0, i32 0, i64 0, i64 0, i64 0, i32 0, null, metadata !620, i32 0, i32 0} ; [ DW_TAG_subroutine_type ]
!620 = metadata !{metadata !621, metadata !543}
!621 = metadata !{i32 786434, null, metadata !"ap_int_base<10, true, true>", metadata !182, i32 651, i64 0, i64 0, i32 0, i32 4, null, null, i32 0, null, metadata !622} ; [ DW_TAG_class_type ]
!622 = metadata !{metadata !623, metadata !429, metadata !624}
!623 = metadata !{i32 786480, null, metadata !"_AP_W", metadata !201, i64 10, null, i32 0, i32 0} ; [ DW_TAG_template_value_parameter ]
!624 = metadata !{i32 786480, null, metadata !"_AP_C", metadata !151, i64 1, null, i32 0, i32 0} ; [ DW_TAG_template_value_parameter ]
!625 = metadata !{i32 786478, i32 0, metadata !416, metadata !"range", metadata !"range", metadata !"_ZN11ap_int_baseILi9ELb1ELb1EE5rangeEii", metadata !182, i32 2062, metadata !626, i1 false, i1 false, i32 0, i32 0, null, i32 256, i1 false, null, null, i32 0, metadata !123, i32 2062} ; [ DW_TAG_subprogram ]
!626 = metadata !{i32 786453, i32 0, metadata !"", i32 0, i32 0, i64 0, i64 0, i64 0, i32 0, null, metadata !627, i32 0, i32 0} ; [ DW_TAG_subroutine_type ]
!627 = metadata !{metadata !628, metadata !433, metadata !201, metadata !201}
!628 = metadata !{i32 786434, null, metadata !"ap_range_ref<9, true>", metadata !182, i32 925, i64 0, i64 0, i32 0, i32 4, null, null, i32 0, null, metadata !629} ; [ DW_TAG_class_type ]
!629 = metadata !{metadata !630, metadata !429}
!630 = metadata !{i32 786480, null, metadata !"_AP_W", metadata !201, i64 9, null, i32 0, i32 0} ; [ DW_TAG_template_value_parameter ]
!631 = metadata !{i32 786478, i32 0, metadata !416, metadata !"operator()", metadata !"operator()", metadata !"_ZN11ap_int_baseILi9ELb1ELb1EEclEii", metadata !182, i32 2068, metadata !626, i1 false, i1 false, i32 0, i32 0, null, i32 256, i1 false, null, null, i32 0, metadata !123, i32 2068} ; [ DW_TAG_subprogram ]
!632 = metadata !{i32 786478, i32 0, metadata !416, metadata !"range", metadata !"range", metadata !"_ZNK11ap_int_baseILi9ELb1ELb1EE5rangeEii", metadata !182, i32 2074, metadata !633, i1 false, i1 false, i32 0, i32 0, null, i32 256, i1 false, null, null, i32 0, metadata !123, i32 2074} ; [ DW_TAG_subprogram ]
!633 = metadata !{i32 786453, i32 0, metadata !"", i32 0, i32 0, i64 0, i64 0, i64 0, i32 0, null, metadata !634, i32 0, i32 0} ; [ DW_TAG_subroutine_type ]
!634 = metadata !{metadata !628, metadata !543, metadata !201, metadata !201}
!635 = metadata !{i32 786478, i32 0, metadata !416, metadata !"operator()", metadata !"operator()", metadata !"_ZNK11ap_int_baseILi9ELb1ELb1EEclEii", metadata !182, i32 2080, metadata !633, i1 false, i1 false, i32 0, i32 0, null, i32 256, i1 false, null, null, i32 0, metadata !123, i32 2080} ; [ DW_TAG_subprogram ]
!636 = metadata !{i32 786478, i32 0, metadata !416, metadata !"operator[]", metadata !"operator[]", metadata !"_ZN11ap_int_baseILi9ELb1ELb1EEixEi", metadata !182, i32 2099, metadata !637, i1 false, i1 false, i32 0, i32 0, null, i32 256, i1 false, null, null, i32 0, metadata !123, i32 2099} ; [ DW_TAG_subprogram ]
!637 = metadata !{i32 786453, i32 0, metadata !"", i32 0, i32 0, i64 0, i64 0, i64 0, i32 0, null, metadata !638, i32 0, i32 0} ; [ DW_TAG_subroutine_type ]
!638 = metadata !{metadata !639, metadata !433, metadata !201}
!639 = metadata !{i32 786434, null, metadata !"ap_bit_ref<9, true>", metadata !182, i32 1249, i64 128, i64 64, i32 0, i32 0, null, metadata !640, i32 0, null, metadata !629} ; [ DW_TAG_class_type ]
!640 = metadata !{metadata !641, metadata !642, metadata !643, metadata !649, metadata !653, metadata !657, metadata !658, metadata !662, metadata !665, metadata !666, metadata !669, metadata !670}
!641 = metadata !{i32 786445, metadata !639, metadata !"d_bv", metadata !182, i32 1250, i64 64, i64 64, i64 0, i32 0, metadata !501} ; [ DW_TAG_member ]
!642 = metadata !{i32 786445, metadata !639, metadata !"d_index", metadata !182, i32 1251, i64 32, i64 32, i64 64, i32 0, metadata !201} ; [ DW_TAG_member ]
!643 = metadata !{i32 786478, i32 0, metadata !639, metadata !"ap_bit_ref", metadata !"ap_bit_ref", metadata !"", metadata !182, i32 1254, metadata !644, i1 false, i1 false, i32 0, i32 0, null, i32 256, i1 false, null, null, i32 0, metadata !123, i32 1254} ; [ DW_TAG_subprogram ]
!644 = metadata !{i32 786453, i32 0, metadata !"", i32 0, i32 0, i64 0, i64 0, i64 0, i32 0, null, metadata !645, i32 0, i32 0} ; [ DW_TAG_subroutine_type ]
!645 = metadata !{null, metadata !646, metadata !647}
!646 = metadata !{i32 786447, i32 0, metadata !"", i32 0, i32 0, i64 64, i64 64, i64 0, i32 64, metadata !639} ; [ DW_TAG_pointer_type ]
!647 = metadata !{i32 786448, null, null, null, i32 0, i64 0, i64 0, i64 0, i32 0, metadata !648} ; [ DW_TAG_reference_type ]
!648 = metadata !{i32 786470, null, metadata !"", null, i32 0, i64 0, i64 0, i64 0, i32 0, metadata !639} ; [ DW_TAG_const_type ]
!649 = metadata !{i32 786478, i32 0, metadata !639, metadata !"ap_bit_ref", metadata !"ap_bit_ref", metadata !"", metadata !182, i32 1257, metadata !650, i1 false, i1 false, i32 0, i32 0, null, i32 256, i1 false, null, null, i32 0, metadata !123, i32 1257} ; [ DW_TAG_subprogram ]
!650 = metadata !{i32 786453, i32 0, metadata !"", i32 0, i32 0, i64 0, i64 0, i64 0, i32 0, null, metadata !651, i32 0, i32 0} ; [ DW_TAG_subroutine_type ]
!651 = metadata !{null, metadata !646, metadata !652, metadata !201}
!652 = metadata !{i32 786447, null, metadata !"", null, i32 0, i64 64, i64 64, i64 0, i32 0, metadata !416} ; [ DW_TAG_pointer_type ]
!653 = metadata !{i32 786478, i32 0, metadata !639, metadata !"operator _Bool", metadata !"operator _Bool", metadata !"_ZNK10ap_bit_refILi9ELb1EEcvbEv", metadata !182, i32 1259, metadata !654, i1 false, i1 false, i32 0, i32 0, null, i32 256, i1 false, null, null, i32 0, metadata !123, i32 1259} ; [ DW_TAG_subprogram ]
!654 = metadata !{i32 786453, i32 0, metadata !"", i32 0, i32 0, i64 0, i64 0, i64 0, i32 0, null, metadata !655, i32 0, i32 0} ; [ DW_TAG_subroutine_type ]
!655 = metadata !{metadata !151, metadata !656}
!656 = metadata !{i32 786447, i32 0, metadata !"", i32 0, i32 0, i64 64, i64 64, i64 0, i32 64, metadata !648} ; [ DW_TAG_pointer_type ]
!657 = metadata !{i32 786478, i32 0, metadata !639, metadata !"to_bool", metadata !"to_bool", metadata !"_ZNK10ap_bit_refILi9ELb1EE7to_boolEv", metadata !182, i32 1260, metadata !654, i1 false, i1 false, i32 0, i32 0, null, i32 256, i1 false, null, null, i32 0, metadata !123, i32 1260} ; [ DW_TAG_subprogram ]
!658 = metadata !{i32 786478, i32 0, metadata !639, metadata !"operator=", metadata !"operator=", metadata !"_ZN10ap_bit_refILi9ELb1EEaSEy", metadata !182, i32 1262, metadata !659, i1 false, i1 false, i32 0, i32 0, null, i32 256, i1 false, null, null, i32 0, metadata !123, i32 1262} ; [ DW_TAG_subprogram ]
!659 = metadata !{i32 786453, i32 0, metadata !"", i32 0, i32 0, i64 0, i64 0, i64 0, i32 0, null, metadata !660, i32 0, i32 0} ; [ DW_TAG_subroutine_type ]
!660 = metadata !{metadata !661, metadata !646, metadata !174}
!661 = metadata !{i32 786448, null, null, null, i32 0, i64 0, i64 0, i64 0, i32 0, metadata !639} ; [ DW_TAG_reference_type ]
!662 = metadata !{i32 786478, i32 0, metadata !639, metadata !"operator=", metadata !"operator=", metadata !"_ZN10ap_bit_refILi9ELb1EEaSERKS0_", metadata !182, i32 1282, metadata !663, i1 false, i1 false, i32 0, i32 0, null, i32 256, i1 false, null, null, i32 0, metadata !123, i32 1282} ; [ DW_TAG_subprogram ]
!663 = metadata !{i32 786453, i32 0, metadata !"", i32 0, i32 0, i64 0, i64 0, i64 0, i32 0, null, metadata !664, i32 0, i32 0} ; [ DW_TAG_subroutine_type ]
!664 = metadata !{metadata !661, metadata !646, metadata !647}
!665 = metadata !{i32 786478, i32 0, metadata !639, metadata !"get", metadata !"get", metadata !"_ZNK10ap_bit_refILi9ELb1EE3getEv", metadata !182, i32 1390, metadata !654, i1 false, i1 false, i32 0, i32 0, null, i32 256, i1 false, null, null, i32 0, metadata !123, i32 1390} ; [ DW_TAG_subprogram ]
!666 = metadata !{i32 786478, i32 0, metadata !639, metadata !"get", metadata !"get", metadata !"_ZN10ap_bit_refILi9ELb1EE3getEv", metadata !182, i32 1394, metadata !667, i1 false, i1 false, i32 0, i32 0, null, i32 256, i1 false, null, null, i32 0, metadata !123, i32 1394} ; [ DW_TAG_subprogram ]
!667 = metadata !{i32 786453, i32 0, metadata !"", i32 0, i32 0, i64 0, i64 0, i64 0, i32 0, null, metadata !668, i32 0, i32 0} ; [ DW_TAG_subroutine_type ]
!668 = metadata !{metadata !151, metadata !646}
!669 = metadata !{i32 786478, i32 0, metadata !639, metadata !"operator~", metadata !"operator~", metadata !"_ZNK10ap_bit_refILi9ELb1EEcoEv", metadata !182, i32 1403, metadata !654, i1 false, i1 false, i32 0, i32 0, null, i32 256, i1 false, null, null, i32 0, metadata !123, i32 1403} ; [ DW_TAG_subprogram ]
!670 = metadata !{i32 786478, i32 0, metadata !639, metadata !"length", metadata !"length", metadata !"_ZNK10ap_bit_refILi9ELb1EE6lengthEv", metadata !182, i32 1408, metadata !671, i1 false, i1 false, i32 0, i32 0, null, i32 256, i1 false, null, null, i32 0, metadata !123, i32 1408} ; [ DW_TAG_subprogram ]
!671 = metadata !{i32 786453, i32 0, metadata !"", i32 0, i32 0, i64 0, i64 0, i64 0, i32 0, null, metadata !672, i32 0, i32 0} ; [ DW_TAG_subroutine_type ]
!672 = metadata !{metadata !201, metadata !656}
!673 = metadata !{i32 786478, i32 0, metadata !416, metadata !"operator[]", metadata !"operator[]", metadata !"_ZNK11ap_int_baseILi9ELb1ELb1EEixEi", metadata !182, i32 2113, metadata !594, i1 false, i1 false, i32 0, i32 0, null, i32 256, i1 false, null, null, i32 0, metadata !123, i32 2113} ; [ DW_TAG_subprogram ]
!674 = metadata !{i32 786478, i32 0, metadata !416, metadata !"bit", metadata !"bit", metadata !"_ZN11ap_int_baseILi9ELb1ELb1EE3bitEi", metadata !182, i32 2127, metadata !637, i1 false, i1 false, i32 0, i32 0, null, i32 256, i1 false, null, null, i32 0, metadata !123, i32 2127} ; [ DW_TAG_subprogram ]
!675 = metadata !{i32 786478, i32 0, metadata !416, metadata !"bit", metadata !"bit", metadata !"_ZNK11ap_int_baseILi9ELb1ELb1EE3bitEi", metadata !182, i32 2141, metadata !594, i1 false, i1 false, i32 0, i32 0, null, i32 256, i1 false, null, null, i32 0, metadata !123, i32 2141} ; [ DW_TAG_subprogram ]
!676 = metadata !{i32 786478, i32 0, metadata !416, metadata !"and_reduce", metadata !"and_reduce", metadata !"_ZN11ap_int_baseILi9ELb1ELb1EE10and_reduceEv", metadata !182, i32 2321, metadata !677, i1 false, i1 false, i32 0, i32 0, null, i32 256, i1 false, null, null, i32 0, metadata !123, i32 2321} ; [ DW_TAG_subprogram ]
!677 = metadata !{i32 786453, i32 0, metadata !"", i32 0, i32 0, i64 0, i64 0, i64 0, i32 0, null, metadata !678, i32 0, i32 0} ; [ DW_TAG_subroutine_type ]
!678 = metadata !{metadata !151, metadata !433}
!679 = metadata !{i32 786478, i32 0, metadata !416, metadata !"nand_reduce", metadata !"nand_reduce", metadata !"_ZN11ap_int_baseILi9ELb1ELb1EE11nand_reduceEv", metadata !182, i32 2324, metadata !677, i1 false, i1 false, i32 0, i32 0, null, i32 256, i1 false, null, null, i32 0, metadata !123, i32 2324} ; [ DW_TAG_subprogram ]
!680 = metadata !{i32 786478, i32 0, metadata !416, metadata !"or_reduce", metadata !"or_reduce", metadata !"_ZN11ap_int_baseILi9ELb1ELb1EE9or_reduceEv", metadata !182, i32 2327, metadata !677, i1 false, i1 false, i32 0, i32 0, null, i32 256, i1 false, null, null, i32 0, metadata !123, i32 2327} ; [ DW_TAG_subprogram ]
!681 = metadata !{i32 786478, i32 0, metadata !416, metadata !"nor_reduce", metadata !"nor_reduce", metadata !"_ZN11ap_int_baseILi9ELb1ELb1EE10nor_reduceEv", metadata !182, i32 2330, metadata !677, i1 false, i1 false, i32 0, i32 0, null, i32 256, i1 false, null, null, i32 0, metadata !123, i32 2330} ; [ DW_TAG_subprogram ]
!682 = metadata !{i32 786478, i32 0, metadata !416, metadata !"xor_reduce", metadata !"xor_reduce", metadata !"_ZN11ap_int_baseILi9ELb1ELb1EE10xor_reduceEv", metadata !182, i32 2333, metadata !677, i1 false, i1 false, i32 0, i32 0, null, i32 256, i1 false, null, null, i32 0, metadata !123, i32 2333} ; [ DW_TAG_subprogram ]
!683 = metadata !{i32 786478, i32 0, metadata !416, metadata !"xnor_reduce", metadata !"xnor_reduce", metadata !"_ZN11ap_int_baseILi9ELb1ELb1EE11xnor_reduceEv", metadata !182, i32 2336, metadata !677, i1 false, i1 false, i32 0, i32 0, null, i32 256, i1 false, null, null, i32 0, metadata !123, i32 2336} ; [ DW_TAG_subprogram ]
!684 = metadata !{i32 786478, i32 0, metadata !416, metadata !"and_reduce", metadata !"and_reduce", metadata !"_ZNK11ap_int_baseILi9ELb1ELb1EE10and_reduceEv", metadata !182, i32 2340, metadata !545, i1 false, i1 false, i32 0, i32 0, null, i32 256, i1 false, null, null, i32 0, metadata !123, i32 2340} ; [ DW_TAG_subprogram ]
!685 = metadata !{i32 786478, i32 0, metadata !416, metadata !"nand_reduce", metadata !"nand_reduce", metadata !"_ZNK11ap_int_baseILi9ELb1ELb1EE11nand_reduceEv", metadata !182, i32 2343, metadata !545, i1 false, i1 false, i32 0, i32 0, null, i32 256, i1 false, null, null, i32 0, metadata !123, i32 2343} ; [ DW_TAG_subprogram ]
!686 = metadata !{i32 786478, i32 0, metadata !416, metadata !"or_reduce", metadata !"or_reduce", metadata !"_ZNK11ap_int_baseILi9ELb1ELb1EE9or_reduceEv", metadata !182, i32 2346, metadata !545, i1 false, i1 false, i32 0, i32 0, null, i32 256, i1 false, null, null, i32 0, metadata !123, i32 2346} ; [ DW_TAG_subprogram ]
!687 = metadata !{i32 786478, i32 0, metadata !416, metadata !"nor_reduce", metadata !"nor_reduce", metadata !"_ZNK11ap_int_baseILi9ELb1ELb1EE10nor_reduceEv", metadata !182, i32 2349, metadata !545, i1 false, i1 false, i32 0, i32 0, null, i32 256, i1 false, null, null, i32 0, metadata !123, i32 2349} ; [ DW_TAG_subprogram ]
!688 = metadata !{i32 786478, i32 0, metadata !416, metadata !"xor_reduce", metadata !"xor_reduce", metadata !"_ZNK11ap_int_baseILi9ELb1ELb1EE10xor_reduceEv", metadata !182, i32 2352, metadata !545, i1 false, i1 false, i32 0, i32 0, null, i32 256, i1 false, null, null, i32 0, metadata !123, i32 2352} ; [ DW_TAG_subprogram ]
!689 = metadata !{i32 786478, i32 0, metadata !416, metadata !"xnor_reduce", metadata !"xnor_reduce", metadata !"_ZNK11ap_int_baseILi9ELb1ELb1EE11xnor_reduceEv", metadata !182, i32 2355, metadata !545, i1 false, i1 false, i32 0, i32 0, null, i32 256, i1 false, null, null, i32 0, metadata !123, i32 2355} ; [ DW_TAG_subprogram ]
!690 = metadata !{i32 786478, i32 0, metadata !416, metadata !"to_string", metadata !"to_string", metadata !"_ZNK11ap_int_baseILi9ELb1ELb1EE9to_stringEPci8BaseModeb", metadata !182, i32 2362, metadata !691, i1 false, i1 false, i32 0, i32 0, null, i32 256, i1 false, null, null, i32 0, metadata !123, i32 2362} ; [ DW_TAG_subprogram ]
!691 = metadata !{i32 786453, i32 0, metadata !"", i32 0, i32 0, i64 0, i64 0, i64 0, i32 0, null, metadata !692, i32 0, i32 0} ; [ DW_TAG_subroutine_type ]
!692 = metadata !{null, metadata !543, metadata !693, metadata !201, metadata !694, metadata !151}
!693 = metadata !{i32 786447, null, metadata !"", null, i32 0, i64 64, i64 64, i64 0, i32 0, metadata !130} ; [ DW_TAG_pointer_type ]
!694 = metadata !{i32 786436, null, metadata !"BaseMode", metadata !182, i32 603, i64 5, i64 8, i32 0, i32 0, null, metadata !695, i32 0, i32 0} ; [ DW_TAG_enumeration_type ]
!695 = metadata !{metadata !696, metadata !697, metadata !698, metadata !699}
!696 = metadata !{i32 786472, metadata !"SC_BIN", i64 2} ; [ DW_TAG_enumerator ]
!697 = metadata !{i32 786472, metadata !"SC_OCT", i64 8} ; [ DW_TAG_enumerator ]
!698 = metadata !{i32 786472, metadata !"SC_DEC", i64 10} ; [ DW_TAG_enumerator ]
!699 = metadata !{i32 786472, metadata !"SC_HEX", i64 16} ; [ DW_TAG_enumerator ]
!700 = metadata !{i32 786478, i32 0, metadata !416, metadata !"to_string", metadata !"to_string", metadata !"_ZNK11ap_int_baseILi9ELb1ELb1EE9to_stringE8BaseModeb", metadata !182, i32 2389, metadata !701, i1 false, i1 false, i32 0, i32 0, null, i32 256, i1 false, null, null, i32 0, metadata !123, i32 2389} ; [ DW_TAG_subprogram ]
!701 = metadata !{i32 786453, i32 0, metadata !"", i32 0, i32 0, i64 0, i64 0, i64 0, i32 0, null, metadata !702, i32 0, i32 0} ; [ DW_TAG_subroutine_type ]
!702 = metadata !{metadata !693, metadata !543, metadata !694, metadata !151}
!703 = metadata !{i32 786478, i32 0, metadata !416, metadata !"to_string", metadata !"to_string", metadata !"_ZNK11ap_int_baseILi9ELb1ELb1EE9to_stringEab", metadata !182, i32 2393, metadata !704, i1 false, i1 false, i32 0, i32 0, null, i32 256, i1 false, null, null, i32 0, metadata !123, i32 2393} ; [ DW_TAG_subprogram ]
!704 = metadata !{i32 786453, i32 0, metadata !"", i32 0, i32 0, i64 0, i64 0, i64 0, i32 0, null, metadata !705, i32 0, i32 0} ; [ DW_TAG_subroutine_type ]
!705 = metadata !{metadata !693, metadata !543, metadata !227, metadata !151}
!706 = metadata !{metadata !630, metadata !429, metadata !624}
!707 = metadata !{i32 786478, i32 0, metadata !181, metadata !"range", metadata !"range", metadata !"_ZN11ap_int_baseILi8ELb0ELb1EE5rangeEii", metadata !182, i32 2062, metadata !708, i1 false, i1 false, i32 0, i32 0, null, i32 256, i1 false, null, null, i32 0, metadata !123, i32 2062} ; [ DW_TAG_subprogram ]
!708 = metadata !{i32 786453, i32 0, metadata !"", i32 0, i32 0, i64 0, i64 0, i64 0, i32 0, null, metadata !709, i32 0, i32 0} ; [ DW_TAG_subroutine_type ]
!709 = metadata !{metadata !710, metadata !206, metadata !201, metadata !201}
!710 = metadata !{i32 786434, null, metadata !"ap_range_ref<8, false>", metadata !182, i32 925, i64 0, i64 0, i32 0, i32 4, null, null, i32 0, null, metadata !711} ; [ DW_TAG_class_type ]
!711 = metadata !{metadata !712, metadata !202}
!712 = metadata !{i32 786480, null, metadata !"_AP_W", metadata !201, i64 8, null, i32 0, i32 0} ; [ DW_TAG_template_value_parameter ]
!713 = metadata !{i32 786478, i32 0, metadata !181, metadata !"operator()", metadata !"operator()", metadata !"_ZN11ap_int_baseILi8ELb0ELb1EEclEii", metadata !182, i32 2068, metadata !708, i1 false, i1 false, i32 0, i32 0, null, i32 256, i1 false, null, null, i32 0, metadata !123, i32 2068} ; [ DW_TAG_subprogram ]
!714 = metadata !{i32 786478, i32 0, metadata !181, metadata !"range", metadata !"range", metadata !"_ZNK11ap_int_baseILi8ELb0ELb1EE5rangeEii", metadata !182, i32 2074, metadata !715, i1 false, i1 false, i32 0, i32 0, null, i32 256, i1 false, null, null, i32 0, metadata !123, i32 2074} ; [ DW_TAG_subprogram ]
!715 = metadata !{i32 786453, i32 0, metadata !"", i32 0, i32 0, i64 0, i64 0, i64 0, i32 0, null, metadata !716, i32 0, i32 0} ; [ DW_TAG_subroutine_type ]
!716 = metadata !{metadata !710, metadata !338, metadata !201, metadata !201}
!717 = metadata !{i32 786478, i32 0, metadata !181, metadata !"operator()", metadata !"operator()", metadata !"_ZNK11ap_int_baseILi8ELb0ELb1EEclEii", metadata !182, i32 2080, metadata !715, i1 false, i1 false, i32 0, i32 0, null, i32 256, i1 false, null, null, i32 0, metadata !123, i32 2080} ; [ DW_TAG_subprogram ]
!718 = metadata !{i32 786478, i32 0, metadata !181, metadata !"operator[]", metadata !"operator[]", metadata !"_ZN11ap_int_baseILi8ELb0ELb1EEixEi", metadata !182, i32 2099, metadata !719, i1 false, i1 false, i32 0, i32 0, null, i32 256, i1 false, null, null, i32 0, metadata !123, i32 2099} ; [ DW_TAG_subprogram ]
!719 = metadata !{i32 786453, i32 0, metadata !"", i32 0, i32 0, i64 0, i64 0, i64 0, i32 0, null, metadata !720, i32 0, i32 0} ; [ DW_TAG_subroutine_type ]
!720 = metadata !{metadata !721, metadata !206, metadata !201}
!721 = metadata !{i32 786434, null, metadata !"ap_bit_ref<8, false>", metadata !182, i32 1249, i64 0, i64 0, i32 0, i32 4, null, null, i32 0, null, metadata !711} ; [ DW_TAG_class_type ]
!722 = metadata !{i32 786478, i32 0, metadata !181, metadata !"operator[]", metadata !"operator[]", metadata !"_ZNK11ap_int_baseILi8ELb0ELb1EEixEi", metadata !182, i32 2113, metadata !389, i1 false, i1 false, i32 0, i32 0, null, i32 256, i1 false, null, null, i32 0, metadata !123, i32 2113} ; [ DW_TAG_subprogram ]
!723 = metadata !{i32 786478, i32 0, metadata !181, metadata !"bit", metadata !"bit", metadata !"_ZN11ap_int_baseILi8ELb0ELb1EE3bitEi", metadata !182, i32 2127, metadata !719, i1 false, i1 false, i32 0, i32 0, null, i32 256, i1 false, null, null, i32 0, metadata !123, i32 2127} ; [ DW_TAG_subprogram ]
!724 = metadata !{i32 786478, i32 0, metadata !181, metadata !"bit", metadata !"bit", metadata !"_ZNK11ap_int_baseILi8ELb0ELb1EE3bitEi", metadata !182, i32 2141, metadata !389, i1 false, i1 false, i32 0, i32 0, null, i32 256, i1 false, null, null, i32 0, metadata !123, i32 2141} ; [ DW_TAG_subprogram ]
!725 = metadata !{i32 786478, i32 0, metadata !181, metadata !"and_reduce", metadata !"and_reduce", metadata !"_ZN11ap_int_baseILi8ELb0ELb1EE10and_reduceEv", metadata !182, i32 2321, metadata !726, i1 false, i1 false, i32 0, i32 0, null, i32 256, i1 false, null, null, i32 0, metadata !123, i32 2321} ; [ DW_TAG_subprogram ]
!726 = metadata !{i32 786453, i32 0, metadata !"", i32 0, i32 0, i64 0, i64 0, i64 0, i32 0, null, metadata !727, i32 0, i32 0} ; [ DW_TAG_subroutine_type ]
!727 = metadata !{metadata !151, metadata !206}
!728 = metadata !{i32 786478, i32 0, metadata !181, metadata !"nand_reduce", metadata !"nand_reduce", metadata !"_ZN11ap_int_baseILi8ELb0ELb1EE11nand_reduceEv", metadata !182, i32 2324, metadata !726, i1 false, i1 false, i32 0, i32 0, null, i32 256, i1 false, null, null, i32 0, metadata !123, i32 2324} ; [ DW_TAG_subprogram ]
!729 = metadata !{i32 786478, i32 0, metadata !181, metadata !"or_reduce", metadata !"or_reduce", metadata !"_ZN11ap_int_baseILi8ELb0ELb1EE9or_reduceEv", metadata !182, i32 2327, metadata !726, i1 false, i1 false, i32 0, i32 0, null, i32 256, i1 false, null, null, i32 0, metadata !123, i32 2327} ; [ DW_TAG_subprogram ]
!730 = metadata !{i32 786478, i32 0, metadata !181, metadata !"nor_reduce", metadata !"nor_reduce", metadata !"_ZN11ap_int_baseILi8ELb0ELb1EE10nor_reduceEv", metadata !182, i32 2330, metadata !726, i1 false, i1 false, i32 0, i32 0, null, i32 256, i1 false, null, null, i32 0, metadata !123, i32 2330} ; [ DW_TAG_subprogram ]
!731 = metadata !{i32 786478, i32 0, metadata !181, metadata !"xor_reduce", metadata !"xor_reduce", metadata !"_ZN11ap_int_baseILi8ELb0ELb1EE10xor_reduceEv", metadata !182, i32 2333, metadata !726, i1 false, i1 false, i32 0, i32 0, null, i32 256, i1 false, null, null, i32 0, metadata !123, i32 2333} ; [ DW_TAG_subprogram ]
!732 = metadata !{i32 786478, i32 0, metadata !181, metadata !"xnor_reduce", metadata !"xnor_reduce", metadata !"_ZN11ap_int_baseILi8ELb0ELb1EE11xnor_reduceEv", metadata !182, i32 2336, metadata !726, i1 false, i1 false, i32 0, i32 0, null, i32 256, i1 false, null, null, i32 0, metadata !123, i32 2336} ; [ DW_TAG_subprogram ]
!733 = metadata !{i32 786478, i32 0, metadata !181, metadata !"and_reduce", metadata !"and_reduce", metadata !"_ZNK11ap_int_baseILi8ELb0ELb1EE10and_reduceEv", metadata !182, i32 2340, metadata !340, i1 false, i1 false, i32 0, i32 0, null, i32 256, i1 false, null, null, i32 0, metadata !123, i32 2340} ; [ DW_TAG_subprogram ]
!734 = metadata !{i32 786478, i32 0, metadata !181, metadata !"nand_reduce", metadata !"nand_reduce", metadata !"_ZNK11ap_int_baseILi8ELb0ELb1EE11nand_reduceEv", metadata !182, i32 2343, metadata !340, i1 false, i1 false, i32 0, i32 0, null, i32 256, i1 false, null, null, i32 0, metadata !123, i32 2343} ; [ DW_TAG_subprogram ]
!735 = metadata !{i32 786478, i32 0, metadata !181, metadata !"or_reduce", metadata !"or_reduce", metadata !"_ZNK11ap_int_baseILi8ELb0ELb1EE9or_reduceEv", metadata !182, i32 2346, metadata !340, i1 false, i1 false, i32 0, i32 0, null, i32 256, i1 false, null, null, i32 0, metadata !123, i32 2346} ; [ DW_TAG_subprogram ]
!736 = metadata !{i32 786478, i32 0, metadata !181, metadata !"nor_reduce", metadata !"nor_reduce", metadata !"_ZNK11ap_int_baseILi8ELb0ELb1EE10nor_reduceEv", metadata !182, i32 2349, metadata !340, i1 false, i1 false, i32 0, i32 0, null, i32 256, i1 false, null, null, i32 0, metadata !123, i32 2349} ; [ DW_TAG_subprogram ]
!737 = metadata !{i32 786478, i32 0, metadata !181, metadata !"xor_reduce", metadata !"xor_reduce", metadata !"_ZNK11ap_int_baseILi8ELb0ELb1EE10xor_reduceEv", metadata !182, i32 2352, metadata !340, i1 false, i1 false, i32 0, i32 0, null, i32 256, i1 false, null, null, i32 0, metadata !123, i32 2352} ; [ DW_TAG_subprogram ]
!738 = metadata !{i32 786478, i32 0, metadata !181, metadata !"xnor_reduce", metadata !"xnor_reduce", metadata !"_ZNK11ap_int_baseILi8ELb0ELb1EE11xnor_reduceEv", metadata !182, i32 2355, metadata !340, i1 false, i1 false, i32 0, i32 0, null, i32 256, i1 false, null, null, i32 0, metadata !123, i32 2355} ; [ DW_TAG_subprogram ]
!739 = metadata !{i32 786478, i32 0, metadata !181, metadata !"to_string", metadata !"to_string", metadata !"_ZNK11ap_int_baseILi8ELb0ELb1EE9to_stringEPci8BaseModeb", metadata !182, i32 2362, metadata !740, i1 false, i1 false, i32 0, i32 0, null, i32 256, i1 false, null, null, i32 0, metadata !123, i32 2362} ; [ DW_TAG_subprogram ]
!740 = metadata !{i32 786453, i32 0, metadata !"", i32 0, i32 0, i64 0, i64 0, i64 0, i32 0, null, metadata !741, i32 0, i32 0} ; [ DW_TAG_subroutine_type ]
!741 = metadata !{null, metadata !338, metadata !693, metadata !201, metadata !694, metadata !151}
!742 = metadata !{i32 786478, i32 0, metadata !181, metadata !"to_string", metadata !"to_string", metadata !"_ZNK11ap_int_baseILi8ELb0ELb1EE9to_stringE8BaseModeb", metadata !182, i32 2389, metadata !743, i1 false, i1 false, i32 0, i32 0, null, i32 256, i1 false, null, null, i32 0, metadata !123, i32 2389} ; [ DW_TAG_subprogram ]
!743 = metadata !{i32 786453, i32 0, metadata !"", i32 0, i32 0, i64 0, i64 0, i64 0, i32 0, null, metadata !744, i32 0, i32 0} ; [ DW_TAG_subroutine_type ]
!744 = metadata !{metadata !693, metadata !338, metadata !694, metadata !151}
!745 = metadata !{i32 786478, i32 0, metadata !181, metadata !"to_string", metadata !"to_string", metadata !"_ZNK11ap_int_baseILi8ELb0ELb1EE9to_stringEab", metadata !182, i32 2393, metadata !746, i1 false, i1 false, i32 0, i32 0, null, i32 256, i1 false, null, null, i32 0, metadata !123, i32 2393} ; [ DW_TAG_subprogram ]
!746 = metadata !{i32 786453, i32 0, metadata !"", i32 0, i32 0, i64 0, i64 0, i64 0, i32 0, null, metadata !747, i32 0, i32 0} ; [ DW_TAG_subroutine_type ]
!747 = metadata !{metadata !693, metadata !338, metadata !227, metadata !151}
!748 = metadata !{i32 786478, i32 0, metadata !181, metadata !"ap_int_base", metadata !"ap_int_base", metadata !"", metadata !182, i32 1453, metadata !208, i1 false, i1 false, i32 0, i32 0, null, i32 320, i1 false, null, null, i32 0, metadata !123, i32 1453} ; [ DW_TAG_subprogram ]
!749 = metadata !{i32 786478, i32 0, metadata !181, metadata !"~ap_int_base", metadata !"~ap_int_base", metadata !"", metadata !182, i32 1453, metadata !204, i1 false, i1 false, i32 0, i32 0, null, i32 320, i1 false, null, null, i32 0, metadata !123, i32 1453} ; [ DW_TAG_subprogram ]
!750 = metadata !{metadata !712, metadata !202, metadata !624}
!751 = metadata !{i32 786478, i32 0, metadata !177, metadata !"ap_uint", metadata !"ap_uint", metadata !"", metadata !178, i32 186, metadata !752, i1 false, i1 false, i32 0, i32 0, null, i32 256, i1 false, null, null, i32 0, metadata !123, i32 186} ; [ DW_TAG_subprogram ]
!752 = metadata !{i32 786453, i32 0, metadata !"", i32 0, i32 0, i64 0, i64 0, i64 0, i32 0, null, metadata !753, i32 0, i32 0} ; [ DW_TAG_subroutine_type ]
!753 = metadata !{null, metadata !754}
!754 = metadata !{i32 786447, i32 0, metadata !"", i32 0, i32 0, i64 64, i64 64, i64 0, i32 64, metadata !177} ; [ DW_TAG_pointer_type ]
!755 = metadata !{i32 786478, i32 0, metadata !177, metadata !"ap_uint<8>", metadata !"ap_uint<8>", metadata !"", metadata !178, i32 188, metadata !756, i1 false, i1 false, i32 0, i32 0, null, i32 256, i1 false, null, metadata !760, i32 0, metadata !123, i32 188} ; [ DW_TAG_subprogram ]
!756 = metadata !{i32 786453, i32 0, metadata !"", i32 0, i32 0, i64 0, i64 0, i64 0, i32 0, null, metadata !757, i32 0, i32 0} ; [ DW_TAG_subroutine_type ]
!757 = metadata !{null, metadata !754, metadata !758}
!758 = metadata !{i32 786448, null, null, null, i32 0, i64 0, i64 0, i64 0, i32 0, metadata !759} ; [ DW_TAG_reference_type ]
!759 = metadata !{i32 786470, null, metadata !"", null, i32 0, i64 0, i64 0, i64 0, i32 0, metadata !177} ; [ DW_TAG_const_type ]
!760 = metadata !{metadata !213}
!761 = metadata !{i32 786478, i32 0, metadata !177, metadata !"ap_uint<8>", metadata !"ap_uint<8>", metadata !"", metadata !178, i32 194, metadata !762, i1 false, i1 false, i32 0, i32 0, null, i32 256, i1 false, null, metadata !760, i32 0, metadata !123, i32 194} ; [ DW_TAG_subprogram ]
!762 = metadata !{i32 786453, i32 0, metadata !"", i32 0, i32 0, i64 0, i64 0, i64 0, i32 0, null, metadata !763, i32 0, i32 0} ; [ DW_TAG_subroutine_type ]
!763 = metadata !{null, metadata !754, metadata !764}
!764 = metadata !{i32 786448, null, null, null, i32 0, i64 0, i64 0, i64 0, i32 0, metadata !765} ; [ DW_TAG_reference_type ]
!765 = metadata !{i32 786470, null, metadata !"", null, i32 0, i64 0, i64 0, i64 0, i32 0, metadata !176} ; [ DW_TAG_const_type ]
!766 = metadata !{i32 786478, i32 0, metadata !177, metadata !"ap_uint<8, false>", metadata !"ap_uint<8, false>", metadata !"", metadata !178, i32 229, metadata !767, i1 false, i1 false, i32 0, i32 0, null, i32 256, i1 false, null, metadata !212, i32 0, metadata !123, i32 229} ; [ DW_TAG_subprogram ]
!767 = metadata !{i32 786453, i32 0, metadata !"", i32 0, i32 0, i64 0, i64 0, i64 0, i32 0, null, metadata !768, i32 0, i32 0} ; [ DW_TAG_subroutine_type ]
!768 = metadata !{null, metadata !754, metadata !210}
!769 = metadata !{i32 786478, i32 0, metadata !177, metadata !"ap_uint", metadata !"ap_uint", metadata !"", metadata !178, i32 248, metadata !770, i1 false, i1 false, i32 0, i32 0, null, i32 256, i1 false, null, null, i32 0, metadata !123, i32 248} ; [ DW_TAG_subprogram ]
!770 = metadata !{i32 786453, i32 0, metadata !"", i32 0, i32 0, i64 0, i64 0, i64 0, i32 0, null, metadata !771, i32 0, i32 0} ; [ DW_TAG_subroutine_type ]
!771 = metadata !{null, metadata !754, metadata !151}
!772 = metadata !{i32 786478, i32 0, metadata !177, metadata !"ap_uint", metadata !"ap_uint", metadata !"", metadata !178, i32 249, metadata !773, i1 false, i1 false, i32 0, i32 0, null, i32 256, i1 false, null, null, i32 0, metadata !123, i32 249} ; [ DW_TAG_subprogram ]
!773 = metadata !{i32 786453, i32 0, metadata !"", i32 0, i32 0, i64 0, i64 0, i64 0, i32 0, null, metadata !774, i32 0, i32 0} ; [ DW_TAG_subroutine_type ]
!774 = metadata !{null, metadata !754, metadata !227}
!775 = metadata !{i32 786478, i32 0, metadata !177, metadata !"ap_uint", metadata !"ap_uint", metadata !"", metadata !178, i32 250, metadata !776, i1 false, i1 false, i32 0, i32 0, null, i32 256, i1 false, null, null, i32 0, metadata !123, i32 250} ; [ DW_TAG_subprogram ]
!776 = metadata !{i32 786453, i32 0, metadata !"", i32 0, i32 0, i64 0, i64 0, i64 0, i32 0, null, metadata !777, i32 0, i32 0} ; [ DW_TAG_subroutine_type ]
!777 = metadata !{null, metadata !754, metadata !118}
!778 = metadata !{i32 786478, i32 0, metadata !177, metadata !"ap_uint", metadata !"ap_uint", metadata !"", metadata !178, i32 251, metadata !779, i1 false, i1 false, i32 0, i32 0, null, i32 256, i1 false, null, null, i32 0, metadata !123, i32 251} ; [ DW_TAG_subprogram ]
!779 = metadata !{i32 786453, i32 0, metadata !"", i32 0, i32 0, i64 0, i64 0, i64 0, i32 0, null, metadata !780, i32 0, i32 0} ; [ DW_TAG_subroutine_type ]
!780 = metadata !{null, metadata !754, metadata !234}
!781 = metadata !{i32 786478, i32 0, metadata !177, metadata !"ap_uint", metadata !"ap_uint", metadata !"", metadata !178, i32 252, metadata !782, i1 false, i1 false, i32 0, i32 0, null, i32 256, i1 false, null, null, i32 0, metadata !123, i32 252} ; [ DW_TAG_subprogram ]
!782 = metadata !{i32 786453, i32 0, metadata !"", i32 0, i32 0, i64 0, i64 0, i64 0, i32 0, null, metadata !783, i32 0, i32 0} ; [ DW_TAG_subroutine_type ]
!783 = metadata !{null, metadata !754, metadata !238}
!784 = metadata !{i32 786478, i32 0, metadata !177, metadata !"ap_uint", metadata !"ap_uint", metadata !"", metadata !178, i32 253, metadata !785, i1 false, i1 false, i32 0, i32 0, null, i32 256, i1 false, null, null, i32 0, metadata !123, i32 253} ; [ DW_TAG_subprogram ]
!785 = metadata !{i32 786453, i32 0, metadata !"", i32 0, i32 0, i64 0, i64 0, i64 0, i32 0, null, metadata !786, i32 0, i32 0} ; [ DW_TAG_subroutine_type ]
!786 = metadata !{null, metadata !754, metadata !201}
!787 = metadata !{i32 786478, i32 0, metadata !177, metadata !"ap_uint", metadata !"ap_uint", metadata !"", metadata !178, i32 254, metadata !788, i1 false, i1 false, i32 0, i32 0, null, i32 256, i1 false, null, null, i32 0, metadata !123, i32 254} ; [ DW_TAG_subprogram ]
!788 = metadata !{i32 786453, i32 0, metadata !"", i32 0, i32 0, i64 0, i64 0, i64 0, i32 0, null, metadata !789, i32 0, i32 0} ; [ DW_TAG_subroutine_type ]
!789 = metadata !{null, metadata !754, metadata !168}
!790 = metadata !{i32 786478, i32 0, metadata !177, metadata !"ap_uint", metadata !"ap_uint", metadata !"", metadata !178, i32 255, metadata !791, i1 false, i1 false, i32 0, i32 0, null, i32 256, i1 false, null, null, i32 0, metadata !123, i32 255} ; [ DW_TAG_subprogram ]
!791 = metadata !{i32 786453, i32 0, metadata !"", i32 0, i32 0, i64 0, i64 0, i64 0, i32 0, null, metadata !792, i32 0, i32 0} ; [ DW_TAG_subroutine_type ]
!792 = metadata !{null, metadata !754, metadata !248}
!793 = metadata !{i32 786478, i32 0, metadata !177, metadata !"ap_uint", metadata !"ap_uint", metadata !"", metadata !178, i32 256, metadata !794, i1 false, i1 false, i32 0, i32 0, null, i32 256, i1 false, null, null, i32 0, metadata !123, i32 256} ; [ DW_TAG_subprogram ]
!794 = metadata !{i32 786453, i32 0, metadata !"", i32 0, i32 0, i64 0, i64 0, i64 0, i32 0, null, metadata !795, i32 0, i32 0} ; [ DW_TAG_subroutine_type ]
!795 = metadata !{null, metadata !754, metadata !252}
!796 = metadata !{i32 786478, i32 0, metadata !177, metadata !"ap_uint", metadata !"ap_uint", metadata !"", metadata !178, i32 257, metadata !797, i1 false, i1 false, i32 0, i32 0, null, i32 256, i1 false, null, null, i32 0, metadata !123, i32 257} ; [ DW_TAG_subprogram ]
!797 = metadata !{i32 786453, i32 0, metadata !"", i32 0, i32 0, i64 0, i64 0, i64 0, i32 0, null, metadata !798, i32 0, i32 0} ; [ DW_TAG_subroutine_type ]
!798 = metadata !{null, metadata !754, metadata !174}
!799 = metadata !{i32 786478, i32 0, metadata !177, metadata !"ap_uint", metadata !"ap_uint", metadata !"", metadata !178, i32 258, metadata !800, i1 false, i1 false, i32 0, i32 0, null, i32 256, i1 false, null, null, i32 0, metadata !123, i32 258} ; [ DW_TAG_subprogram ]
!800 = metadata !{i32 786453, i32 0, metadata !"", i32 0, i32 0, i64 0, i64 0, i64 0, i32 0, null, metadata !801, i32 0, i32 0} ; [ DW_TAG_subroutine_type ]
!801 = metadata !{null, metadata !754, metadata !257}
!802 = metadata !{i32 786478, i32 0, metadata !177, metadata !"ap_uint", metadata !"ap_uint", metadata !"", metadata !178, i32 259, metadata !803, i1 false, i1 false, i32 0, i32 0, null, i32 256, i1 false, null, null, i32 0, metadata !123, i32 259} ; [ DW_TAG_subprogram ]
!803 = metadata !{i32 786453, i32 0, metadata !"", i32 0, i32 0, i64 0, i64 0, i64 0, i32 0, null, metadata !804, i32 0, i32 0} ; [ DW_TAG_subroutine_type ]
!804 = metadata !{null, metadata !754, metadata !265}
!805 = metadata !{i32 786478, i32 0, metadata !177, metadata !"ap_uint", metadata !"ap_uint", metadata !"", metadata !178, i32 260, metadata !806, i1 false, i1 false, i32 0, i32 0, null, i32 256, i1 false, null, null, i32 0, metadata !123, i32 260} ; [ DW_TAG_subprogram ]
!806 = metadata !{i32 786453, i32 0, metadata !"", i32 0, i32 0, i64 0, i64 0, i64 0, i32 0, null, metadata !807, i32 0, i32 0} ; [ DW_TAG_subroutine_type ]
!807 = metadata !{null, metadata !754, metadata !270}
!808 = metadata !{i32 786478, i32 0, metadata !177, metadata !"ap_uint", metadata !"ap_uint", metadata !"", metadata !178, i32 261, metadata !809, i1 false, i1 false, i32 0, i32 0, null, i32 256, i1 false, null, null, i32 0, metadata !123, i32 261} ; [ DW_TAG_subprogram ]
!809 = metadata !{i32 786453, i32 0, metadata !"", i32 0, i32 0, i64 0, i64 0, i64 0, i32 0, null, metadata !810, i32 0, i32 0} ; [ DW_TAG_subroutine_type ]
!810 = metadata !{null, metadata !754, metadata !274}
!811 = metadata !{i32 786478, i32 0, metadata !177, metadata !"ap_uint", metadata !"ap_uint", metadata !"", metadata !178, i32 263, metadata !812, i1 false, i1 false, i32 0, i32 0, null, i32 256, i1 false, null, null, i32 0, metadata !123, i32 263} ; [ DW_TAG_subprogram ]
!812 = metadata !{i32 786453, i32 0, metadata !"", i32 0, i32 0, i64 0, i64 0, i64 0, i32 0, null, metadata !813, i32 0, i32 0} ; [ DW_TAG_subroutine_type ]
!813 = metadata !{null, metadata !754, metadata !128}
!814 = metadata !{i32 786478, i32 0, metadata !177, metadata !"ap_uint", metadata !"ap_uint", metadata !"", metadata !178, i32 264, metadata !815, i1 false, i1 false, i32 0, i32 0, null, i32 256, i1 false, null, null, i32 0, metadata !123, i32 264} ; [ DW_TAG_subprogram ]
!815 = metadata !{i32 786453, i32 0, metadata !"", i32 0, i32 0, i64 0, i64 0, i64 0, i32 0, null, metadata !816, i32 0, i32 0} ; [ DW_TAG_subroutine_type ]
!816 = metadata !{null, metadata !754, metadata !128, metadata !227}
!817 = metadata !{i32 786478, i32 0, metadata !177, metadata !"operator=", metadata !"operator=", metadata !"_ZNV7ap_uintILi8EEaSERKS0_", metadata !178, i32 267, metadata !818, i1 false, i1 false, i32 0, i32 0, null, i32 256, i1 false, null, null, i32 0, metadata !123, i32 267} ; [ DW_TAG_subprogram ]
!818 = metadata !{i32 786453, i32 0, metadata !"", i32 0, i32 0, i64 0, i64 0, i64 0, i32 0, null, metadata !819, i32 0, i32 0} ; [ DW_TAG_subroutine_type ]
!819 = metadata !{null, metadata !820, metadata !758}
!820 = metadata !{i32 786447, i32 0, metadata !"", i32 0, i32 0, i64 64, i64 64, i64 0, i32 64, metadata !176} ; [ DW_TAG_pointer_type ]
!821 = metadata !{i32 786478, i32 0, metadata !177, metadata !"operator=", metadata !"operator=", metadata !"_ZNV7ap_uintILi8EEaSERVKS0_", metadata !178, i32 271, metadata !822, i1 false, i1 false, i32 0, i32 0, null, i32 256, i1 false, null, null, i32 0, metadata !123, i32 271} ; [ DW_TAG_subprogram ]
!822 = metadata !{i32 786453, i32 0, metadata !"", i32 0, i32 0, i64 0, i64 0, i64 0, i32 0, null, metadata !823, i32 0, i32 0} ; [ DW_TAG_subroutine_type ]
!823 = metadata !{null, metadata !820, metadata !764}
!824 = metadata !{i32 786478, i32 0, metadata !177, metadata !"operator=", metadata !"operator=", metadata !"_ZN7ap_uintILi8EEaSERVKS0_", metadata !178, i32 275, metadata !825, i1 false, i1 false, i32 0, i32 0, null, i32 256, i1 false, null, null, i32 0, metadata !123, i32 275} ; [ DW_TAG_subprogram ]
!825 = metadata !{i32 786453, i32 0, metadata !"", i32 0, i32 0, i64 0, i64 0, i64 0, i32 0, null, metadata !826, i32 0, i32 0} ; [ DW_TAG_subroutine_type ]
!826 = metadata !{metadata !827, metadata !754, metadata !764}
!827 = metadata !{i32 786448, null, null, null, i32 0, i64 0, i64 0, i64 0, i32 0, metadata !177} ; [ DW_TAG_reference_type ]
!828 = metadata !{i32 786478, i32 0, metadata !177, metadata !"operator=", metadata !"operator=", metadata !"_ZN7ap_uintILi8EEaSERKS0_", metadata !178, i32 280, metadata !829, i1 false, i1 false, i32 0, i32 0, null, i32 256, i1 false, null, null, i32 0, metadata !123, i32 280} ; [ DW_TAG_subprogram ]
!829 = metadata !{i32 786453, i32 0, metadata !"", i32 0, i32 0, i64 0, i64 0, i64 0, i32 0, null, metadata !830, i32 0, i32 0} ; [ DW_TAG_subroutine_type ]
!830 = metadata !{metadata !827, metadata !754, metadata !758}
!831 = metadata !{i32 786478, i32 0, metadata !177, metadata !"ap_uint", metadata !"ap_uint", metadata !"", metadata !178, i32 183, metadata !756, i1 false, i1 false, i32 0, i32 0, null, i32 320, i1 false, null, null, i32 0, metadata !123, i32 183} ; [ DW_TAG_subprogram ]
!832 = metadata !{i32 786478, i32 0, metadata !177, metadata !"~ap_uint", metadata !"~ap_uint", metadata !"", metadata !178, i32 183, metadata !752, i1 false, i1 false, i32 0, i32 0, null, i32 320, i1 false, null, null, i32 0, metadata !123, i32 183} ; [ DW_TAG_subprogram ]
!833 = metadata !{metadata !712}
!834 = metadata !{i32 786447, null, metadata !"", null, i32 0, i64 64, i64 64, i64 0, i32 0, metadata !168} ; [ DW_TAG_pointer_type ]
!835 = metadata !{i32 786454, null, metadata !"u32", metadata !109, i32 6, i64 0, i64 0, i64 0, i32 0, metadata !168} ; [ DW_TAG_typedef ]
!836 = metadata !{i32 786454, null, metadata !"u8", metadata !109, i32 5, i64 0, i64 0, i64 0, i32 0, metadata !118} ; [ DW_TAG_typedef ]
!837 = metadata !{i32 6, i32 97, metadata !108, null}
!838 = metadata !{i32 786689, metadata !108, metadata !"frame_buffer_number", metadata !109, i32 134217734, metadata !836, i32 0, i32 0} ; [ DW_TAG_arg_variable ]
!839 = metadata !{i32 6, i32 71, metadata !108, null}
!840 = metadata !{i32 786689, metadata !108, metadata !"frame_buffer_offset", metadata !109, i32 117440518, metadata !835, i32 0, i32 0} ; [ DW_TAG_arg_variable ]
!841 = metadata !{i32 6, i32 47, metadata !108, null}
!842 = metadata !{i32 786689, metadata !108, metadata !"frame_buffer_dim", metadata !109, i32 100663302, metadata !835, i32 0, i32 0} ; [ DW_TAG_arg_variable ]
!843 = metadata !{i32 6, i32 25, metadata !108, null}
!844 = metadata !{i32 786689, metadata !108, metadata !"base_address", metadata !109, i32 83886086, metadata !835, i32 0, i32 0} ; [ DW_TAG_arg_variable ]
!845 = metadata !{i32 6, i32 7, metadata !108, null}
!846 = metadata !{i32 790531, metadata !847, metadata !"inputStream.V", null, i32 5, metadata !848, i32 0, i32 0} ; [ DW_TAG_arg_variable_field ]
!847 = metadata !{i32 786689, metadata !108, metadata !"inputStream", metadata !109, i32 16777221, metadata !112, i32 0, i32 0} ; [ DW_TAG_arg_variable ]
!848 = metadata !{i32 786447, null, metadata !"", null, i32 0, i64 0, i64 0, i64 0, i32 0, metadata !849} ; [ DW_TAG_pointer_type ]
!849 = metadata !{i32 786438, metadata !114, metadata !"stream<unsigned char>", metadata !115, i32 79, i64 8, i64 8, i32 0, i32 0, null, metadata !850, i32 0, null, metadata !169} ; [ DW_TAG_class_field_type ]
!850 = metadata !{metadata !117}
!851 = metadata !{i32 5, i32 47, metadata !108, null}
!852 = metadata !{i32 786689, metadata !108, metadata !"base_ddr_addr", metadata !109, i32 33554437, metadata !171, i32 0, i32 0} ; [ DW_TAG_arg_variable ]
!853 = metadata !{i32 5, i32 74, metadata !108, null}
!854 = metadata !{i32 790531, metadata !855, metadata !"frame_index.V", null, i32 5, metadata !856, i32 0, i32 0} ; [ DW_TAG_arg_variable_field ]
!855 = metadata !{i32 786689, metadata !108, metadata !"frame_index", metadata !109, i32 50331653, metadata !175, i32 0, i32 0} ; [ DW_TAG_arg_variable ]
!856 = metadata !{i32 786447, null, metadata !"", null, i32 0, i64 64, i64 64, i64 0, i32 0, metadata !857} ; [ DW_TAG_pointer_type ]
!857 = metadata !{i32 786438, null, metadata !"ap_uint<8>", metadata !178, i32 183, i64 8, i64 8, i32 0, i32 0, null, metadata !858, i32 0, null, metadata !833} ; [ DW_TAG_class_field_type ]
!858 = metadata !{metadata !859}
!859 = metadata !{i32 786438, null, metadata !"ap_int_base<8, false, true>", metadata !182, i32 1453, i64 8, i64 8, i32 0, i32 0, null, metadata !860, i32 0, null, metadata !750} ; [ DW_TAG_class_field_type ]
!860 = metadata !{metadata !861}
!861 = metadata !{i32 786438, null, metadata !"ssdm_int<8 + 1024 * 0, false>", metadata !186, i32 10, i64 8, i64 8, i32 0, i32 0, null, metadata !862, i32 0, null, metadata !199} ; [ DW_TAG_class_field_type ]
!862 = metadata !{metadata !188}
!863 = metadata !{i32 5, i32 110, metadata !108, null}
!864 = metadata !{i32 786689, metadata !108, metadata !"frame_count", metadata !109, i32 67108869, metadata !834, i32 0, i32 0} ; [ DW_TAG_arg_variable ]
!865 = metadata !{i32 5, i32 137, metadata !108, null}
!866 = metadata !{i32 8, i32 1, metadata !867, null}
!867 = metadata !{i32 786443, metadata !108, i32 7, i32 1, metadata !109, i32 0} ; [ DW_TAG_lexical_block ]
!868 = metadata !{i32 9, i32 1, metadata !867, null}
!869 = metadata !{i32 10, i32 1, metadata !867, null}
!870 = metadata !{i32 11, i32 1, metadata !867, null}
!871 = metadata !{i32 12, i32 1, metadata !867, null}
!872 = metadata !{i32 13, i32 1, metadata !867, null}
!873 = metadata !{i32 23, i32 1, metadata !867, null}
!874 = metadata !{i32 24, i32 1, metadata !867, null}
!875 = metadata !{i32 25, i32 1, metadata !867, null}
!876 = metadata !{i32 26, i32 1, metadata !867, null}
!877 = metadata !{i32 786688, metadata !867, metadata !"buffer", metadata !109, i32 46, metadata !878, i32 0, i32 0} ; [ DW_TAG_auto_variable ]
!878 = metadata !{i32 786433, null, metadata !"", null, i32 0, i64 32768, i64 64, i32 0, i32 0, metadata !173, metadata !879, i32 0, i32 0} ; [ DW_TAG_array_type ]
!879 = metadata !{metadata !880}
!880 = metadata !{i32 786465, i64 0, i64 511}     ; [ DW_TAG_subrange_type ]
!881 = metadata !{i32 46, i32 6, metadata !867, null}
!882 = metadata !{i32 47, i32 1, metadata !867, null}
!883 = metadata !{i32 52, i32 1, metadata !867, null}
!884 = metadata !{i32 790531, metadata !885, metadata !"ssdm_int<8 + 1024 * 0, false>.V", null, i32 267, metadata !856, i32 0, i32 0} ; [ DW_TAG_arg_variable_field ]
!885 = metadata !{i32 786689, metadata !886, metadata !"this", metadata !178, i32 16777483, metadata !175, i32 64, i32 0} ; [ DW_TAG_arg_variable ]
!886 = metadata !{i32 786478, i32 0, null, metadata !"operator=", metadata !"operator=", metadata !"_ZNV7ap_uintILi8EEaSERKS0_", metadata !178, i32 267, metadata !818, i1 false, i1 true, i32 0, i32 0, null, i32 256, i1 false, null, null, metadata !817, metadata !123, i32 267} ; [ DW_TAG_subprogram ]
!887 = metadata !{i32 267, i32 46, metadata !886, metadata !888}
!888 = metadata !{i32 58, i32 2, metadata !867, null}
!889 = metadata !{i32 268, i32 5, metadata !890, metadata !888}
!890 = metadata !{i32 786443, metadata !886, i32 267, i32 94, metadata !178, i32 38} ; [ DW_TAG_lexical_block ]
!891 = metadata !{i32 790529, metadata !892, metadata !"t.V", null, i32 1908, metadata !859, i32 0, i32 0} ; [ DW_TAG_auto_variable_field ]
!892 = metadata !{i32 786688, metadata !893, metadata !"t", metadata !182, i32 1908, metadata !295, i32 0, i32 0} ; [ DW_TAG_auto_variable ]
!893 = metadata !{i32 786443, metadata !894, i32 1907, i32 76, metadata !182, i32 9} ; [ DW_TAG_lexical_block ]
!894 = metadata !{i32 786478, i32 0, null, metadata !"operator++", metadata !"operator++", metadata !"_ZN11ap_int_baseILi8ELb0ELb1EEppEi", metadata !182, i32 1907, metadata !406, i1 false, i1 true, i32 0, i32 0, null, i32 256, i1 false, null, null, metadata !405, metadata !123, i32 1907} ; [ DW_TAG_subprogram ]
!895 = metadata !{i32 1908, i32 26, metadata !893, metadata !896}
!896 = metadata !{i32 146, i32 7, metadata !867, null}
!897 = metadata !{i32 61, i32 1, metadata !867, null}
!898 = metadata !{i32 63, i32 1, metadata !867, null}
!899 = metadata !{i32 65, i32 1, metadata !867, null}
!900 = metadata !{i32 67, i32 1, metadata !867, null}
!901 = metadata !{i32 72, i32 2, metadata !867, null}
!902 = metadata !{i32 75, i32 3, metadata !903, null}
!903 = metadata !{i32 786443, metadata !867, i32 73, i32 2, metadata !109, i32 1} ; [ DW_TAG_lexical_block ]
!904 = metadata !{i32 76, i32 3, metadata !903, null}
!905 = metadata !{i32 77, i32 3, metadata !903, null}
!906 = metadata !{i32 78, i32 3, metadata !903, null}
!907 = metadata !{i32 79, i32 2, metadata !903, null}
!908 = metadata !{i32 3524, i32 0, metadata !909, metadata !1795}
!909 = metadata !{i32 786478, i32 0, metadata !182, metadata !"operator*<8, false>", metadata !"operator*<8, false>", metadata !"_ZmlILi8ELb0EEN11ap_int_baseIXT_EXT0_EXleT_Li64EEE5RTypeIXLi32EEXLb0EEE4multERKS1_j", metadata !182, i32 3524, metadata !910, i1 false, i1 true, i32 0, i32 0, null, i32 256, i1 false, null, metadata !711, null, metadata !123, i32 3524} ; [ DW_TAG_subprogram ]
!910 = metadata !{i32 786453, i32 0, metadata !"", i32 0, i32 0, i64 0, i64 0, i64 0, i32 0, null, metadata !911, i32 0, i32 0} ; [ DW_TAG_subroutine_type ]
!911 = metadata !{metadata !912, metadata !210, metadata !168}
!912 = metadata !{i32 786454, metadata !913, metadata !"mult", metadata !182, i32 1481, i64 0, i64 0, i64 0, i32 0, metadata !916} ; [ DW_TAG_typedef ]
!913 = metadata !{i32 786434, metadata !181, metadata !"RType<32, false>", metadata !182, i32 1465, i64 8, i64 8, i32 0, i32 0, null, metadata !335, i32 0, null, metadata !914} ; [ DW_TAG_class_type ]
!914 = metadata !{metadata !915, metadata !214}
!915 = metadata !{i32 786480, null, metadata !"_AP_W2", metadata !201, i64 32, null, i32 0, i32 0} ; [ DW_TAG_template_value_parameter ]
!916 = metadata !{i32 786434, null, metadata !"ap_int_base<40, false, true>", metadata !182, i32 1453, i64 64, i64 64, i32 0, i32 0, null, metadata !917, i32 0, null, metadata !1794} ; [ DW_TAG_class_type ]
!917 = metadata !{metadata !918, metadata !934, metadata !938, metadata !1545, metadata !1552, metadata !1555, metadata !1558, metadata !1564, metadata !1567, metadata !1570, metadata !1573, metadata !1576, metadata !1579, metadata !1582, metadata !1585, metadata !1588, metadata !1591, metadata !1594, metadata !1597, metadata !1600, metadata !1603, metadata !1606, metadata !1609, metadata !1612, metadata !1615, metadata !1619, metadata !1622, metadata !1625, metadata !1626, metadata !1630, metadata !1633, metadata !1636, metadata !1639, metadata !1642, metadata !1645, metadata !1648, metadata !1651, metadata !1654, metadata !1657, metadata !1660, metadata !1663, metadata !1671, metadata !1674, metadata !1677, metadata !1680, metadata !1683, metadata !1686, metadata !1689, metadata !1692, metadata !1695, metadata !1698, metadata !1701, metadata !1704, metadata !1707, metadata !1708, metadata !1712, metadata !1715, metadata !1716, metadata !1717, metadata !1718, metadata !1719, metadata !1720, metadata !1723, metadata !1724, metadata !1727, metadata !1728, metadata !1729, metadata !1730, metadata !1731, metadata !1732, metadata !1735, metadata !1736, metadata !1737, metadata !1740, metadata !1741, metadata !1744, metadata !1745, metadata !1751, metadata !1757, metadata !1758, metadata !1761, metadata !1762, metadata !1766, metadata !1767, metadata !1768, metadata !1769, metadata !1772, metadata !1773, metadata !1774, metadata !1775, metadata !1776, metadata !1777, metadata !1778, metadata !1779, metadata !1780, metadata !1781, metadata !1782, metadata !1783, metadata !1786, metadata !1789, metadata !1792, metadata !1793}
!918 = metadata !{i32 786460, metadata !916, null, metadata !182, i32 0, i64 0, i64 0, i64 0, i32 0, metadata !919} ; [ DW_TAG_inheritance ]
!919 = metadata !{i32 786434, null, metadata !"ssdm_int<40 + 1024 * 0, false>", metadata !186, i32 42, i64 64, i64 64, i32 0, i32 0, null, metadata !920, i32 0, null, metadata !932} ; [ DW_TAG_class_type ]
!920 = metadata !{metadata !921, metadata !923, metadata !927}
!921 = metadata !{i32 786445, metadata !919, metadata !"V", metadata !186, i32 42, i64 40, i64 64, i64 0, i32 0, metadata !922} ; [ DW_TAG_member ]
!922 = metadata !{i32 786468, null, metadata !"uint40", null, i32 0, i64 40, i64 64, i64 0, i32 0, i32 7} ; [ DW_TAG_base_type ]
!923 = metadata !{i32 786478, i32 0, metadata !919, metadata !"ssdm_int", metadata !"ssdm_int", metadata !"", metadata !186, i32 42, metadata !924, i1 false, i1 false, i32 0, i32 0, null, i32 256, i1 false, null, null, i32 0, metadata !123, i32 42} ; [ DW_TAG_subprogram ]
!924 = metadata !{i32 786453, i32 0, metadata !"", i32 0, i32 0, i64 0, i64 0, i64 0, i32 0, null, metadata !925, i32 0, i32 0} ; [ DW_TAG_subroutine_type ]
!925 = metadata !{null, metadata !926}
!926 = metadata !{i32 786447, i32 0, metadata !"", i32 0, i32 0, i64 64, i64 64, i64 0, i32 64, metadata !919} ; [ DW_TAG_pointer_type ]
!927 = metadata !{i32 786478, i32 0, metadata !919, metadata !"ssdm_int", metadata !"ssdm_int", metadata !"", metadata !186, i32 42, metadata !928, i1 false, i1 false, i32 0, i32 0, null, i32 320, i1 false, null, null, i32 0, metadata !123, i32 42} ; [ DW_TAG_subprogram ]
!928 = metadata !{i32 786453, i32 0, metadata !"", i32 0, i32 0, i64 0, i64 0, i64 0, i32 0, null, metadata !929, i32 0, i32 0} ; [ DW_TAG_subroutine_type ]
!929 = metadata !{null, metadata !926, metadata !930}
!930 = metadata !{i32 786448, null, null, null, i32 0, i64 0, i64 0, i64 0, i32 0, metadata !931} ; [ DW_TAG_reference_type ]
!931 = metadata !{i32 786470, null, metadata !"", null, i32 0, i64 0, i64 0, i64 0, i32 0, metadata !919} ; [ DW_TAG_const_type ]
!932 = metadata !{metadata !933, metadata !202}
!933 = metadata !{i32 786480, null, metadata !"_AP_N", metadata !201, i64 40, null, i32 0, i32 0} ; [ DW_TAG_template_value_parameter ]
!934 = metadata !{i32 786478, i32 0, metadata !916, metadata !"ap_int_base", metadata !"ap_int_base", metadata !"", metadata !182, i32 1494, metadata !935, i1 false, i1 false, i32 0, i32 0, null, i32 256, i1 false, null, null, i32 0, metadata !123, i32 1494} ; [ DW_TAG_subprogram ]
!935 = metadata !{i32 786453, i32 0, metadata !"", i32 0, i32 0, i64 0, i64 0, i64 0, i32 0, null, metadata !936, i32 0, i32 0} ; [ DW_TAG_subroutine_type ]
!936 = metadata !{null, metadata !937}
!937 = metadata !{i32 786447, i32 0, metadata !"", i32 0, i32 0, i64 64, i64 64, i64 0, i32 64, metadata !916} ; [ DW_TAG_pointer_type ]
!938 = metadata !{i32 786478, i32 0, metadata !916, metadata !"ap_int_base<32, false>", metadata !"ap_int_base<32, false>", metadata !"", metadata !182, i32 1506, metadata !939, i1 false, i1 false, i32 0, i32 0, null, i32 256, i1 false, null, metadata !914, i32 0, metadata !123, i32 1506} ; [ DW_TAG_subprogram ]
!939 = metadata !{i32 786453, i32 0, metadata !"", i32 0, i32 0, i64 0, i64 0, i64 0, i32 0, null, metadata !940, i32 0, i32 0} ; [ DW_TAG_subroutine_type ]
!940 = metadata !{null, metadata !937, metadata !941}
!941 = metadata !{i32 786448, null, null, null, i32 0, i64 0, i64 0, i64 0, i32 0, metadata !942} ; [ DW_TAG_reference_type ]
!942 = metadata !{i32 786470, null, metadata !"", null, i32 0, i64 0, i64 0, i64 0, i32 0, metadata !943} ; [ DW_TAG_const_type ]
!943 = metadata !{i32 786434, null, metadata !"ap_int_base<32, false, true>", metadata !182, i32 1453, i64 32, i64 32, i32 0, i32 0, null, metadata !944, i32 0, null, metadata !1544} ; [ DW_TAG_class_type ]
!944 = metadata !{metadata !945, metadata !956, metadata !960, metadata !963, metadata !969, metadata !972, metadata !975, metadata !978, metadata !981, metadata !984, metadata !987, metadata !990, metadata !993, metadata !996, metadata !999, metadata !1002, metadata !1005, metadata !1008, metadata !1011, metadata !1014, metadata !1017, metadata !1021, metadata !1024, metadata !1027, metadata !1028, metadata !1032, metadata !1035, metadata !1038, metadata !1041, metadata !1044, metadata !1047, metadata !1050, metadata !1053, metadata !1056, metadata !1059, metadata !1062, metadata !1065, metadata !1074, metadata !1077, metadata !1080, metadata !1083, metadata !1086, metadata !1089, metadata !1092, metadata !1095, metadata !1098, metadata !1101, metadata !1104, metadata !1107, metadata !1110, metadata !1111, metadata !1115, metadata !1118, metadata !1119, metadata !1120, metadata !1121, metadata !1122, metadata !1123, metadata !1126, metadata !1127, metadata !1130, metadata !1131, metadata !1132, metadata !1133, metadata !1134, metadata !1135, metadata !1138, metadata !1139, metadata !1140, metadata !1143, metadata !1144, metadata !1147, metadata !1148, metadata !1442, metadata !1508, metadata !1509, metadata !1512, metadata !1513, metadata !1517, metadata !1518, metadata !1519, metadata !1520, metadata !1523, metadata !1524, metadata !1525, metadata !1526, metadata !1527, metadata !1528, metadata !1529, metadata !1530, metadata !1531, metadata !1532, metadata !1533, metadata !1534, metadata !1537, metadata !1540, metadata !1543}
!945 = metadata !{i32 786460, metadata !943, null, metadata !182, i32 0, i64 0, i64 0, i64 0, i32 0, metadata !946} ; [ DW_TAG_inheritance ]
!946 = metadata !{i32 786434, null, metadata !"ssdm_int<32 + 1024 * 0, false>", metadata !186, i32 34, i64 32, i64 32, i32 0, i32 0, null, metadata !947, i32 0, null, metadata !954} ; [ DW_TAG_class_type ]
!947 = metadata !{metadata !948, metadata !950}
!948 = metadata !{i32 786445, metadata !946, metadata !"V", metadata !186, i32 34, i64 32, i64 32, i64 0, i32 0, metadata !949} ; [ DW_TAG_member ]
!949 = metadata !{i32 786468, null, metadata !"uint32", null, i32 0, i64 32, i64 32, i64 0, i32 0, i32 7} ; [ DW_TAG_base_type ]
!950 = metadata !{i32 786478, i32 0, metadata !946, metadata !"ssdm_int", metadata !"ssdm_int", metadata !"", metadata !186, i32 34, metadata !951, i1 false, i1 false, i32 0, i32 0, null, i32 256, i1 false, null, null, i32 0, metadata !123, i32 34} ; [ DW_TAG_subprogram ]
!951 = metadata !{i32 786453, i32 0, metadata !"", i32 0, i32 0, i64 0, i64 0, i64 0, i32 0, null, metadata !952, i32 0, i32 0} ; [ DW_TAG_subroutine_type ]
!952 = metadata !{null, metadata !953}
!953 = metadata !{i32 786447, i32 0, metadata !"", i32 0, i32 0, i64 64, i64 64, i64 0, i32 64, metadata !946} ; [ DW_TAG_pointer_type ]
!954 = metadata !{metadata !955, metadata !202}
!955 = metadata !{i32 786480, null, metadata !"_AP_N", metadata !201, i64 32, null, i32 0, i32 0} ; [ DW_TAG_template_value_parameter ]
!956 = metadata !{i32 786478, i32 0, metadata !943, metadata !"ap_int_base", metadata !"ap_int_base", metadata !"", metadata !182, i32 1494, metadata !957, i1 false, i1 false, i32 0, i32 0, null, i32 256, i1 false, null, null, i32 0, metadata !123, i32 1494} ; [ DW_TAG_subprogram ]
!957 = metadata !{i32 786453, i32 0, metadata !"", i32 0, i32 0, i64 0, i64 0, i64 0, i32 0, null, metadata !958, i32 0, i32 0} ; [ DW_TAG_subroutine_type ]
!958 = metadata !{null, metadata !959}
!959 = metadata !{i32 786447, i32 0, metadata !"", i32 0, i32 0, i64 64, i64 64, i64 0, i32 64, metadata !943} ; [ DW_TAG_pointer_type ]
!960 = metadata !{i32 786478, i32 0, metadata !943, metadata !"ap_int_base<32, false>", metadata !"ap_int_base<32, false>", metadata !"", metadata !182, i32 1506, metadata !961, i1 false, i1 false, i32 0, i32 0, null, i32 256, i1 false, null, metadata !914, i32 0, metadata !123, i32 1506} ; [ DW_TAG_subprogram ]
!961 = metadata !{i32 786453, i32 0, metadata !"", i32 0, i32 0, i64 0, i64 0, i64 0, i32 0, null, metadata !962, i32 0, i32 0} ; [ DW_TAG_subroutine_type ]
!962 = metadata !{null, metadata !959, metadata !941}
!963 = metadata !{i32 786478, i32 0, metadata !943, metadata !"ap_int_base<32, false>", metadata !"ap_int_base<32, false>", metadata !"", metadata !182, i32 1509, metadata !964, i1 false, i1 false, i32 0, i32 0, null, i32 256, i1 false, null, metadata !914, i32 0, metadata !123, i32 1509} ; [ DW_TAG_subprogram ]
!964 = metadata !{i32 786453, i32 0, metadata !"", i32 0, i32 0, i64 0, i64 0, i64 0, i32 0, null, metadata !965, i32 0, i32 0} ; [ DW_TAG_subroutine_type ]
!965 = metadata !{null, metadata !959, metadata !966}
!966 = metadata !{i32 786448, null, null, null, i32 0, i64 0, i64 0, i64 0, i32 0, metadata !967} ; [ DW_TAG_reference_type ]
!967 = metadata !{i32 786470, null, metadata !"", null, i32 0, i64 0, i64 0, i64 0, i32 0, metadata !968} ; [ DW_TAG_const_type ]
!968 = metadata !{i32 786485, null, metadata !"", null, i32 0, i64 0, i64 0, i64 0, i32 0, metadata !943} ; [ DW_TAG_volatile_type ]
!969 = metadata !{i32 786478, i32 0, metadata !943, metadata !"ap_int_base", metadata !"ap_int_base", metadata !"", metadata !182, i32 1516, metadata !970, i1 false, i1 false, i32 0, i32 0, null, i32 384, i1 false, null, null, i32 0, metadata !123, i32 1516} ; [ DW_TAG_subprogram ]
!970 = metadata !{i32 786453, i32 0, metadata !"", i32 0, i32 0, i64 0, i64 0, i64 0, i32 0, null, metadata !971, i32 0, i32 0} ; [ DW_TAG_subroutine_type ]
!971 = metadata !{null, metadata !959, metadata !151}
!972 = metadata !{i32 786478, i32 0, metadata !943, metadata !"ap_int_base", metadata !"ap_int_base", metadata !"", metadata !182, i32 1517, metadata !973, i1 false, i1 false, i32 0, i32 0, null, i32 384, i1 false, null, null, i32 0, metadata !123, i32 1517} ; [ DW_TAG_subprogram ]
!973 = metadata !{i32 786453, i32 0, metadata !"", i32 0, i32 0, i64 0, i64 0, i64 0, i32 0, null, metadata !974, i32 0, i32 0} ; [ DW_TAG_subroutine_type ]
!974 = metadata !{null, metadata !959, metadata !227}
!975 = metadata !{i32 786478, i32 0, metadata !943, metadata !"ap_int_base", metadata !"ap_int_base", metadata !"", metadata !182, i32 1518, metadata !976, i1 false, i1 false, i32 0, i32 0, null, i32 384, i1 false, null, null, i32 0, metadata !123, i32 1518} ; [ DW_TAG_subprogram ]
!976 = metadata !{i32 786453, i32 0, metadata !"", i32 0, i32 0, i64 0, i64 0, i64 0, i32 0, null, metadata !977, i32 0, i32 0} ; [ DW_TAG_subroutine_type ]
!977 = metadata !{null, metadata !959, metadata !118}
!978 = metadata !{i32 786478, i32 0, metadata !943, metadata !"ap_int_base", metadata !"ap_int_base", metadata !"", metadata !182, i32 1519, metadata !979, i1 false, i1 false, i32 0, i32 0, null, i32 384, i1 false, null, null, i32 0, metadata !123, i32 1519} ; [ DW_TAG_subprogram ]
!979 = metadata !{i32 786453, i32 0, metadata !"", i32 0, i32 0, i64 0, i64 0, i64 0, i32 0, null, metadata !980, i32 0, i32 0} ; [ DW_TAG_subroutine_type ]
!980 = metadata !{null, metadata !959, metadata !234}
!981 = metadata !{i32 786478, i32 0, metadata !943, metadata !"ap_int_base", metadata !"ap_int_base", metadata !"", metadata !182, i32 1520, metadata !982, i1 false, i1 false, i32 0, i32 0, null, i32 384, i1 false, null, null, i32 0, metadata !123, i32 1520} ; [ DW_TAG_subprogram ]
!982 = metadata !{i32 786453, i32 0, metadata !"", i32 0, i32 0, i64 0, i64 0, i64 0, i32 0, null, metadata !983, i32 0, i32 0} ; [ DW_TAG_subroutine_type ]
!983 = metadata !{null, metadata !959, metadata !238}
!984 = metadata !{i32 786478, i32 0, metadata !943, metadata !"ap_int_base", metadata !"ap_int_base", metadata !"", metadata !182, i32 1521, metadata !985, i1 false, i1 false, i32 0, i32 0, null, i32 384, i1 false, null, null, i32 0, metadata !123, i32 1521} ; [ DW_TAG_subprogram ]
!985 = metadata !{i32 786453, i32 0, metadata !"", i32 0, i32 0, i64 0, i64 0, i64 0, i32 0, null, metadata !986, i32 0, i32 0} ; [ DW_TAG_subroutine_type ]
!986 = metadata !{null, metadata !959, metadata !201}
!987 = metadata !{i32 786478, i32 0, metadata !943, metadata !"ap_int_base", metadata !"ap_int_base", metadata !"", metadata !182, i32 1522, metadata !988, i1 false, i1 false, i32 0, i32 0, null, i32 384, i1 false, null, null, i32 0, metadata !123, i32 1522} ; [ DW_TAG_subprogram ]
!988 = metadata !{i32 786453, i32 0, metadata !"", i32 0, i32 0, i64 0, i64 0, i64 0, i32 0, null, metadata !989, i32 0, i32 0} ; [ DW_TAG_subroutine_type ]
!989 = metadata !{null, metadata !959, metadata !168}
!990 = metadata !{i32 786478, i32 0, metadata !943, metadata !"ap_int_base", metadata !"ap_int_base", metadata !"", metadata !182, i32 1523, metadata !991, i1 false, i1 false, i32 0, i32 0, null, i32 384, i1 false, null, null, i32 0, metadata !123, i32 1523} ; [ DW_TAG_subprogram ]
!991 = metadata !{i32 786453, i32 0, metadata !"", i32 0, i32 0, i64 0, i64 0, i64 0, i32 0, null, metadata !992, i32 0, i32 0} ; [ DW_TAG_subroutine_type ]
!992 = metadata !{null, metadata !959, metadata !248}
!993 = metadata !{i32 786478, i32 0, metadata !943, metadata !"ap_int_base", metadata !"ap_int_base", metadata !"", metadata !182, i32 1524, metadata !994, i1 false, i1 false, i32 0, i32 0, null, i32 384, i1 false, null, null, i32 0, metadata !123, i32 1524} ; [ DW_TAG_subprogram ]
!994 = metadata !{i32 786453, i32 0, metadata !"", i32 0, i32 0, i64 0, i64 0, i64 0, i32 0, null, metadata !995, i32 0, i32 0} ; [ DW_TAG_subroutine_type ]
!995 = metadata !{null, metadata !959, metadata !252}
!996 = metadata !{i32 786478, i32 0, metadata !943, metadata !"ap_int_base", metadata !"ap_int_base", metadata !"", metadata !182, i32 1525, metadata !997, i1 false, i1 false, i32 0, i32 0, null, i32 384, i1 false, null, null, i32 0, metadata !123, i32 1525} ; [ DW_TAG_subprogram ]
!997 = metadata !{i32 786453, i32 0, metadata !"", i32 0, i32 0, i64 0, i64 0, i64 0, i32 0, null, metadata !998, i32 0, i32 0} ; [ DW_TAG_subroutine_type ]
!998 = metadata !{null, metadata !959, metadata !256}
!999 = metadata !{i32 786478, i32 0, metadata !943, metadata !"ap_int_base", metadata !"ap_int_base", metadata !"", metadata !182, i32 1526, metadata !1000, i1 false, i1 false, i32 0, i32 0, null, i32 384, i1 false, null, null, i32 0, metadata !123, i32 1526} ; [ DW_TAG_subprogram ]
!1000 = metadata !{i32 786453, i32 0, metadata !"", i32 0, i32 0, i64 0, i64 0, i64 0, i32 0, null, metadata !1001, i32 0, i32 0} ; [ DW_TAG_subroutine_type ]
!1001 = metadata !{null, metadata !959, metadata !261}
!1002 = metadata !{i32 786478, i32 0, metadata !943, metadata !"ap_int_base", metadata !"ap_int_base", metadata !"", metadata !182, i32 1527, metadata !1003, i1 false, i1 false, i32 0, i32 0, null, i32 384, i1 false, null, null, i32 0, metadata !123, i32 1527} ; [ DW_TAG_subprogram ]
!1003 = metadata !{i32 786453, i32 0, metadata !"", i32 0, i32 0, i64 0, i64 0, i64 0, i32 0, null, metadata !1004, i32 0, i32 0} ; [ DW_TAG_subroutine_type ]
!1004 = metadata !{null, metadata !959, metadata !265}
!1005 = metadata !{i32 786478, i32 0, metadata !943, metadata !"ap_int_base", metadata !"ap_int_base", metadata !"", metadata !182, i32 1528, metadata !1006, i1 false, i1 false, i32 0, i32 0, null, i32 384, i1 false, null, null, i32 0, metadata !123, i32 1528} ; [ DW_TAG_subprogram ]
!1006 = metadata !{i32 786453, i32 0, metadata !"", i32 0, i32 0, i64 0, i64 0, i64 0, i32 0, null, metadata !1007, i32 0, i32 0} ; [ DW_TAG_subroutine_type ]
!1007 = metadata !{null, metadata !959, metadata !270}
!1008 = metadata !{i32 786478, i32 0, metadata !943, metadata !"ap_int_base", metadata !"ap_int_base", metadata !"", metadata !182, i32 1529, metadata !1009, i1 false, i1 false, i32 0, i32 0, null, i32 384, i1 false, null, null, i32 0, metadata !123, i32 1529} ; [ DW_TAG_subprogram ]
!1009 = metadata !{i32 786453, i32 0, metadata !"", i32 0, i32 0, i64 0, i64 0, i64 0, i32 0, null, metadata !1010, i32 0, i32 0} ; [ DW_TAG_subroutine_type ]
!1010 = metadata !{null, metadata !959, metadata !274}
!1011 = metadata !{i32 786478, i32 0, metadata !943, metadata !"ap_int_base", metadata !"ap_int_base", metadata !"", metadata !182, i32 1556, metadata !1012, i1 false, i1 false, i32 0, i32 0, null, i32 256, i1 false, null, null, i32 0, metadata !123, i32 1556} ; [ DW_TAG_subprogram ]
!1012 = metadata !{i32 786453, i32 0, metadata !"", i32 0, i32 0, i64 0, i64 0, i64 0, i32 0, null, metadata !1013, i32 0, i32 0} ; [ DW_TAG_subroutine_type ]
!1013 = metadata !{null, metadata !959, metadata !128}
!1014 = metadata !{i32 786478, i32 0, metadata !943, metadata !"ap_int_base", metadata !"ap_int_base", metadata !"", metadata !182, i32 1563, metadata !1015, i1 false, i1 false, i32 0, i32 0, null, i32 256, i1 false, null, null, i32 0, metadata !123, i32 1563} ; [ DW_TAG_subprogram ]
!1015 = metadata !{i32 786453, i32 0, metadata !"", i32 0, i32 0, i64 0, i64 0, i64 0, i32 0, null, metadata !1016, i32 0, i32 0} ; [ DW_TAG_subroutine_type ]
!1016 = metadata !{null, metadata !959, metadata !128, metadata !227}
!1017 = metadata !{i32 786478, i32 0, metadata !943, metadata !"read", metadata !"read", metadata !"_ZNV11ap_int_baseILi32ELb0ELb1EE4readEv", metadata !182, i32 1584, metadata !1018, i1 false, i1 false, i32 0, i32 0, null, i32 256, i1 false, null, null, i32 0, metadata !123, i32 1584} ; [ DW_TAG_subprogram ]
!1018 = metadata !{i32 786453, i32 0, metadata !"", i32 0, i32 0, i64 0, i64 0, i64 0, i32 0, null, metadata !1019, i32 0, i32 0} ; [ DW_TAG_subroutine_type ]
!1019 = metadata !{metadata !943, metadata !1020}
!1020 = metadata !{i32 786447, i32 0, metadata !"", i32 0, i32 0, i64 64, i64 64, i64 0, i32 64, metadata !968} ; [ DW_TAG_pointer_type ]
!1021 = metadata !{i32 786478, i32 0, metadata !943, metadata !"write", metadata !"write", metadata !"_ZNV11ap_int_baseILi32ELb0ELb1EE5writeERKS0_", metadata !182, i32 1590, metadata !1022, i1 false, i1 false, i32 0, i32 0, null, i32 256, i1 false, null, null, i32 0, metadata !123, i32 1590} ; [ DW_TAG_subprogram ]
!1022 = metadata !{i32 786453, i32 0, metadata !"", i32 0, i32 0, i64 0, i64 0, i64 0, i32 0, null, metadata !1023, i32 0, i32 0} ; [ DW_TAG_subroutine_type ]
!1023 = metadata !{null, metadata !1020, metadata !941}
!1024 = metadata !{i32 786478, i32 0, metadata !943, metadata !"operator=", metadata !"operator=", metadata !"_ZNV11ap_int_baseILi32ELb0ELb1EEaSERVKS0_", metadata !182, i32 1602, metadata !1025, i1 false, i1 false, i32 0, i32 0, null, i32 256, i1 false, null, null, i32 0, metadata !123, i32 1602} ; [ DW_TAG_subprogram ]
!1025 = metadata !{i32 786453, i32 0, metadata !"", i32 0, i32 0, i64 0, i64 0, i64 0, i32 0, null, metadata !1026, i32 0, i32 0} ; [ DW_TAG_subroutine_type ]
!1026 = metadata !{null, metadata !1020, metadata !966}
!1027 = metadata !{i32 786478, i32 0, metadata !943, metadata !"operator=", metadata !"operator=", metadata !"_ZNV11ap_int_baseILi32ELb0ELb1EEaSERKS0_", metadata !182, i32 1611, metadata !1022, i1 false, i1 false, i32 0, i32 0, null, i32 256, i1 false, null, null, i32 0, metadata !123, i32 1611} ; [ DW_TAG_subprogram ]
!1028 = metadata !{i32 786478, i32 0, metadata !943, metadata !"operator=", metadata !"operator=", metadata !"_ZN11ap_int_baseILi32ELb0ELb1EEaSERVKS0_", metadata !182, i32 1634, metadata !1029, i1 false, i1 false, i32 0, i32 0, null, i32 256, i1 false, null, null, i32 0, metadata !123, i32 1634} ; [ DW_TAG_subprogram ]
!1029 = metadata !{i32 786453, i32 0, metadata !"", i32 0, i32 0, i64 0, i64 0, i64 0, i32 0, null, metadata !1030, i32 0, i32 0} ; [ DW_TAG_subroutine_type ]
!1030 = metadata !{metadata !1031, metadata !959, metadata !966}
!1031 = metadata !{i32 786448, null, null, null, i32 0, i64 0, i64 0, i64 0, i32 0, metadata !943} ; [ DW_TAG_reference_type ]
!1032 = metadata !{i32 786478, i32 0, metadata !943, metadata !"operator=", metadata !"operator=", metadata !"_ZN11ap_int_baseILi32ELb0ELb1EEaSERKS0_", metadata !182, i32 1639, metadata !1033, i1 false, i1 false, i32 0, i32 0, null, i32 256, i1 false, null, null, i32 0, metadata !123, i32 1639} ; [ DW_TAG_subprogram ]
!1033 = metadata !{i32 786453, i32 0, metadata !"", i32 0, i32 0, i64 0, i64 0, i64 0, i32 0, null, metadata !1034, i32 0, i32 0} ; [ DW_TAG_subroutine_type ]
!1034 = metadata !{metadata !1031, metadata !959, metadata !941}
!1035 = metadata !{i32 786478, i32 0, metadata !943, metadata !"operator=", metadata !"operator=", metadata !"_ZN11ap_int_baseILi32ELb0ELb1EEaSEPKc", metadata !182, i32 1643, metadata !1036, i1 false, i1 false, i32 0, i32 0, null, i32 256, i1 false, null, null, i32 0, metadata !123, i32 1643} ; [ DW_TAG_subprogram ]
!1036 = metadata !{i32 786453, i32 0, metadata !"", i32 0, i32 0, i64 0, i64 0, i64 0, i32 0, null, metadata !1037, i32 0, i32 0} ; [ DW_TAG_subroutine_type ]
!1037 = metadata !{metadata !1031, metadata !959, metadata !128}
!1038 = metadata !{i32 786478, i32 0, metadata !943, metadata !"set", metadata !"set", metadata !"_ZN11ap_int_baseILi32ELb0ELb1EE3setEPKca", metadata !182, i32 1651, metadata !1039, i1 false, i1 false, i32 0, i32 0, null, i32 256, i1 false, null, null, i32 0, metadata !123, i32 1651} ; [ DW_TAG_subprogram ]
!1039 = metadata !{i32 786453, i32 0, metadata !"", i32 0, i32 0, i64 0, i64 0, i64 0, i32 0, null, metadata !1040, i32 0, i32 0} ; [ DW_TAG_subroutine_type ]
!1040 = metadata !{metadata !1031, metadata !959, metadata !128, metadata !227}
!1041 = metadata !{i32 786478, i32 0, metadata !943, metadata !"operator=", metadata !"operator=", metadata !"_ZN11ap_int_baseILi32ELb0ELb1EEaSEa", metadata !182, i32 1665, metadata !1042, i1 false, i1 false, i32 0, i32 0, null, i32 256, i1 false, null, null, i32 0, metadata !123, i32 1665} ; [ DW_TAG_subprogram ]
!1042 = metadata !{i32 786453, i32 0, metadata !"", i32 0, i32 0, i64 0, i64 0, i64 0, i32 0, null, metadata !1043, i32 0, i32 0} ; [ DW_TAG_subroutine_type ]
!1043 = metadata !{metadata !1031, metadata !959, metadata !227}
!1044 = metadata !{i32 786478, i32 0, metadata !943, metadata !"operator=", metadata !"operator=", metadata !"_ZN11ap_int_baseILi32ELb0ELb1EEaSEh", metadata !182, i32 1666, metadata !1045, i1 false, i1 false, i32 0, i32 0, null, i32 256, i1 false, null, null, i32 0, metadata !123, i32 1666} ; [ DW_TAG_subprogram ]
!1045 = metadata !{i32 786453, i32 0, metadata !"", i32 0, i32 0, i64 0, i64 0, i64 0, i32 0, null, metadata !1046, i32 0, i32 0} ; [ DW_TAG_subroutine_type ]
!1046 = metadata !{metadata !1031, metadata !959, metadata !118}
!1047 = metadata !{i32 786478, i32 0, metadata !943, metadata !"operator=", metadata !"operator=", metadata !"_ZN11ap_int_baseILi32ELb0ELb1EEaSEs", metadata !182, i32 1667, metadata !1048, i1 false, i1 false, i32 0, i32 0, null, i32 256, i1 false, null, null, i32 0, metadata !123, i32 1667} ; [ DW_TAG_subprogram ]
!1048 = metadata !{i32 786453, i32 0, metadata !"", i32 0, i32 0, i64 0, i64 0, i64 0, i32 0, null, metadata !1049, i32 0, i32 0} ; [ DW_TAG_subroutine_type ]
!1049 = metadata !{metadata !1031, metadata !959, metadata !234}
!1050 = metadata !{i32 786478, i32 0, metadata !943, metadata !"operator=", metadata !"operator=", metadata !"_ZN11ap_int_baseILi32ELb0ELb1EEaSEt", metadata !182, i32 1668, metadata !1051, i1 false, i1 false, i32 0, i32 0, null, i32 256, i1 false, null, null, i32 0, metadata !123, i32 1668} ; [ DW_TAG_subprogram ]
!1051 = metadata !{i32 786453, i32 0, metadata !"", i32 0, i32 0, i64 0, i64 0, i64 0, i32 0, null, metadata !1052, i32 0, i32 0} ; [ DW_TAG_subroutine_type ]
!1052 = metadata !{metadata !1031, metadata !959, metadata !238}
!1053 = metadata !{i32 786478, i32 0, metadata !943, metadata !"operator=", metadata !"operator=", metadata !"_ZN11ap_int_baseILi32ELb0ELb1EEaSEi", metadata !182, i32 1669, metadata !1054, i1 false, i1 false, i32 0, i32 0, null, i32 256, i1 false, null, null, i32 0, metadata !123, i32 1669} ; [ DW_TAG_subprogram ]
!1054 = metadata !{i32 786453, i32 0, metadata !"", i32 0, i32 0, i64 0, i64 0, i64 0, i32 0, null, metadata !1055, i32 0, i32 0} ; [ DW_TAG_subroutine_type ]
!1055 = metadata !{metadata !1031, metadata !959, metadata !201}
!1056 = metadata !{i32 786478, i32 0, metadata !943, metadata !"operator=", metadata !"operator=", metadata !"_ZN11ap_int_baseILi32ELb0ELb1EEaSEj", metadata !182, i32 1670, metadata !1057, i1 false, i1 false, i32 0, i32 0, null, i32 256, i1 false, null, null, i32 0, metadata !123, i32 1670} ; [ DW_TAG_subprogram ]
!1057 = metadata !{i32 786453, i32 0, metadata !"", i32 0, i32 0, i64 0, i64 0, i64 0, i32 0, null, metadata !1058, i32 0, i32 0} ; [ DW_TAG_subroutine_type ]
!1058 = metadata !{metadata !1031, metadata !959, metadata !168}
!1059 = metadata !{i32 786478, i32 0, metadata !943, metadata !"operator=", metadata !"operator=", metadata !"_ZN11ap_int_baseILi32ELb0ELb1EEaSEx", metadata !182, i32 1671, metadata !1060, i1 false, i1 false, i32 0, i32 0, null, i32 256, i1 false, null, null, i32 0, metadata !123, i32 1671} ; [ DW_TAG_subprogram ]
!1060 = metadata !{i32 786453, i32 0, metadata !"", i32 0, i32 0, i64 0, i64 0, i64 0, i32 0, null, metadata !1061, i32 0, i32 0} ; [ DW_TAG_subroutine_type ]
!1061 = metadata !{metadata !1031, metadata !959, metadata !256}
!1062 = metadata !{i32 786478, i32 0, metadata !943, metadata !"operator=", metadata !"operator=", metadata !"_ZN11ap_int_baseILi32ELb0ELb1EEaSEy", metadata !182, i32 1672, metadata !1063, i1 false, i1 false, i32 0, i32 0, null, i32 256, i1 false, null, null, i32 0, metadata !123, i32 1672} ; [ DW_TAG_subprogram ]
!1063 = metadata !{i32 786453, i32 0, metadata !"", i32 0, i32 0, i64 0, i64 0, i64 0, i32 0, null, metadata !1064, i32 0, i32 0} ; [ DW_TAG_subroutine_type ]
!1064 = metadata !{metadata !1031, metadata !959, metadata !261}
!1065 = metadata !{i32 786478, i32 0, metadata !943, metadata !"operator unsigned int", metadata !"operator unsigned int", metadata !"_ZNK11ap_int_baseILi32ELb0ELb1EEcvjEv", metadata !182, i32 1710, metadata !1066, i1 false, i1 false, i32 0, i32 0, null, i32 256, i1 false, null, null, i32 0, metadata !123, i32 1710} ; [ DW_TAG_subprogram ]
!1066 = metadata !{i32 786453, i32 0, metadata !"", i32 0, i32 0, i64 0, i64 0, i64 0, i32 0, null, metadata !1067, i32 0, i32 0} ; [ DW_TAG_subroutine_type ]
!1067 = metadata !{metadata !1068, metadata !1073}
!1068 = metadata !{i32 786454, metadata !943, metadata !"RetType", metadata !182, i32 1458, i64 0, i64 0, i64 0, i32 0, metadata !1069} ; [ DW_TAG_typedef ]
!1069 = metadata !{i32 786454, metadata !1070, metadata !"Type", metadata !182, i32 1444, i64 0, i64 0, i64 0, i32 0, metadata !168} ; [ DW_TAG_typedef ]
!1070 = metadata !{i32 786434, null, metadata !"retval<4, false>", metadata !182, i32 1443, i64 8, i64 8, i32 0, i32 0, null, metadata !335, i32 0, null, metadata !1071} ; [ DW_TAG_class_type ]
!1071 = metadata !{metadata !1072, metadata !202}
!1072 = metadata !{i32 786480, null, metadata !"_AP_N", metadata !201, i64 4, null, i32 0, i32 0} ; [ DW_TAG_template_value_parameter ]
!1073 = metadata !{i32 786447, i32 0, metadata !"", i32 0, i32 0, i64 64, i64 64, i64 0, i32 64, metadata !942} ; [ DW_TAG_pointer_type ]
!1074 = metadata !{i32 786478, i32 0, metadata !943, metadata !"to_bool", metadata !"to_bool", metadata !"_ZNK11ap_int_baseILi32ELb0ELb1EE7to_boolEv", metadata !182, i32 1716, metadata !1075, i1 false, i1 false, i32 0, i32 0, null, i32 256, i1 false, null, null, i32 0, metadata !123, i32 1716} ; [ DW_TAG_subprogram ]
!1075 = metadata !{i32 786453, i32 0, metadata !"", i32 0, i32 0, i64 0, i64 0, i64 0, i32 0, null, metadata !1076, i32 0, i32 0} ; [ DW_TAG_subroutine_type ]
!1076 = metadata !{metadata !151, metadata !1073}
!1077 = metadata !{i32 786478, i32 0, metadata !943, metadata !"to_uchar", metadata !"to_uchar", metadata !"_ZNK11ap_int_baseILi32ELb0ELb1EE8to_ucharEv", metadata !182, i32 1717, metadata !1078, i1 false, i1 false, i32 0, i32 0, null, i32 256, i1 false, null, null, i32 0, metadata !123, i32 1717} ; [ DW_TAG_subprogram ]
!1078 = metadata !{i32 786453, i32 0, metadata !"", i32 0, i32 0, i64 0, i64 0, i64 0, i32 0, null, metadata !1079, i32 0, i32 0} ; [ DW_TAG_subroutine_type ]
!1079 = metadata !{metadata !118, metadata !1073}
!1080 = metadata !{i32 786478, i32 0, metadata !943, metadata !"to_char", metadata !"to_char", metadata !"_ZNK11ap_int_baseILi32ELb0ELb1EE7to_charEv", metadata !182, i32 1718, metadata !1081, i1 false, i1 false, i32 0, i32 0, null, i32 256, i1 false, null, null, i32 0, metadata !123, i32 1718} ; [ DW_TAG_subprogram ]
!1081 = metadata !{i32 786453, i32 0, metadata !"", i32 0, i32 0, i64 0, i64 0, i64 0, i32 0, null, metadata !1082, i32 0, i32 0} ; [ DW_TAG_subroutine_type ]
!1082 = metadata !{metadata !227, metadata !1073}
!1083 = metadata !{i32 786478, i32 0, metadata !943, metadata !"to_ushort", metadata !"to_ushort", metadata !"_ZNK11ap_int_baseILi32ELb0ELb1EE9to_ushortEv", metadata !182, i32 1719, metadata !1084, i1 false, i1 false, i32 0, i32 0, null, i32 256, i1 false, null, null, i32 0, metadata !123, i32 1719} ; [ DW_TAG_subprogram ]
!1084 = metadata !{i32 786453, i32 0, metadata !"", i32 0, i32 0, i64 0, i64 0, i64 0, i32 0, null, metadata !1085, i32 0, i32 0} ; [ DW_TAG_subroutine_type ]
!1085 = metadata !{metadata !238, metadata !1073}
!1086 = metadata !{i32 786478, i32 0, metadata !943, metadata !"to_short", metadata !"to_short", metadata !"_ZNK11ap_int_baseILi32ELb0ELb1EE8to_shortEv", metadata !182, i32 1720, metadata !1087, i1 false, i1 false, i32 0, i32 0, null, i32 256, i1 false, null, null, i32 0, metadata !123, i32 1720} ; [ DW_TAG_subprogram ]
!1087 = metadata !{i32 786453, i32 0, metadata !"", i32 0, i32 0, i64 0, i64 0, i64 0, i32 0, null, metadata !1088, i32 0, i32 0} ; [ DW_TAG_subroutine_type ]
!1088 = metadata !{metadata !234, metadata !1073}
!1089 = metadata !{i32 786478, i32 0, metadata !943, metadata !"to_int", metadata !"to_int", metadata !"_ZNK11ap_int_baseILi32ELb0ELb1EE6to_intEv", metadata !182, i32 1721, metadata !1090, i1 false, i1 false, i32 0, i32 0, null, i32 256, i1 false, null, null, i32 0, metadata !123, i32 1721} ; [ DW_TAG_subprogram ]
!1090 = metadata !{i32 786453, i32 0, metadata !"", i32 0, i32 0, i64 0, i64 0, i64 0, i32 0, null, metadata !1091, i32 0, i32 0} ; [ DW_TAG_subroutine_type ]
!1091 = metadata !{metadata !201, metadata !1073}
!1092 = metadata !{i32 786478, i32 0, metadata !943, metadata !"to_uint", metadata !"to_uint", metadata !"_ZNK11ap_int_baseILi32ELb0ELb1EE7to_uintEv", metadata !182, i32 1722, metadata !1093, i1 false, i1 false, i32 0, i32 0, null, i32 256, i1 false, null, null, i32 0, metadata !123, i32 1722} ; [ DW_TAG_subprogram ]
!1093 = metadata !{i32 786453, i32 0, metadata !"", i32 0, i32 0, i64 0, i64 0, i64 0, i32 0, null, metadata !1094, i32 0, i32 0} ; [ DW_TAG_subroutine_type ]
!1094 = metadata !{metadata !168, metadata !1073}
!1095 = metadata !{i32 786478, i32 0, metadata !943, metadata !"to_long", metadata !"to_long", metadata !"_ZNK11ap_int_baseILi32ELb0ELb1EE7to_longEv", metadata !182, i32 1723, metadata !1096, i1 false, i1 false, i32 0, i32 0, null, i32 256, i1 false, null, null, i32 0, metadata !123, i32 1723} ; [ DW_TAG_subprogram ]
!1096 = metadata !{i32 786453, i32 0, metadata !"", i32 0, i32 0, i64 0, i64 0, i64 0, i32 0, null, metadata !1097, i32 0, i32 0} ; [ DW_TAG_subroutine_type ]
!1097 = metadata !{metadata !248, metadata !1073}
!1098 = metadata !{i32 786478, i32 0, metadata !943, metadata !"to_ulong", metadata !"to_ulong", metadata !"_ZNK11ap_int_baseILi32ELb0ELb1EE8to_ulongEv", metadata !182, i32 1724, metadata !1099, i1 false, i1 false, i32 0, i32 0, null, i32 256, i1 false, null, null, i32 0, metadata !123, i32 1724} ; [ DW_TAG_subprogram ]
!1099 = metadata !{i32 786453, i32 0, metadata !"", i32 0, i32 0, i64 0, i64 0, i64 0, i32 0, null, metadata !1100, i32 0, i32 0} ; [ DW_TAG_subroutine_type ]
!1100 = metadata !{metadata !252, metadata !1073}
!1101 = metadata !{i32 786478, i32 0, metadata !943, metadata !"to_int64", metadata !"to_int64", metadata !"_ZNK11ap_int_baseILi32ELb0ELb1EE8to_int64Ev", metadata !182, i32 1725, metadata !1102, i1 false, i1 false, i32 0, i32 0, null, i32 256, i1 false, null, null, i32 0, metadata !123, i32 1725} ; [ DW_TAG_subprogram ]
!1102 = metadata !{i32 786453, i32 0, metadata !"", i32 0, i32 0, i64 0, i64 0, i64 0, i32 0, null, metadata !1103, i32 0, i32 0} ; [ DW_TAG_subroutine_type ]
!1103 = metadata !{metadata !256, metadata !1073}
!1104 = metadata !{i32 786478, i32 0, metadata !943, metadata !"to_uint64", metadata !"to_uint64", metadata !"_ZNK11ap_int_baseILi32ELb0ELb1EE9to_uint64Ev", metadata !182, i32 1726, metadata !1105, i1 false, i1 false, i32 0, i32 0, null, i32 256, i1 false, null, null, i32 0, metadata !123, i32 1726} ; [ DW_TAG_subprogram ]
!1105 = metadata !{i32 786453, i32 0, metadata !"", i32 0, i32 0, i64 0, i64 0, i64 0, i32 0, null, metadata !1106, i32 0, i32 0} ; [ DW_TAG_subroutine_type ]
!1106 = metadata !{metadata !261, metadata !1073}
!1107 = metadata !{i32 786478, i32 0, metadata !943, metadata !"to_double", metadata !"to_double", metadata !"_ZNK11ap_int_baseILi32ELb0ELb1EE9to_doubleEv", metadata !182, i32 1727, metadata !1108, i1 false, i1 false, i32 0, i32 0, null, i32 256, i1 false, null, null, i32 0, metadata !123, i32 1727} ; [ DW_TAG_subprogram ]
!1108 = metadata !{i32 786453, i32 0, metadata !"", i32 0, i32 0, i64 0, i64 0, i64 0, i32 0, null, metadata !1109, i32 0, i32 0} ; [ DW_TAG_subroutine_type ]
!1109 = metadata !{metadata !274, metadata !1073}
!1110 = metadata !{i32 786478, i32 0, metadata !943, metadata !"length", metadata !"length", metadata !"_ZNK11ap_int_baseILi32ELb0ELb1EE6lengthEv", metadata !182, i32 1741, metadata !1090, i1 false, i1 false, i32 0, i32 0, null, i32 256, i1 false, null, null, i32 0, metadata !123, i32 1741} ; [ DW_TAG_subprogram ]
!1111 = metadata !{i32 786478, i32 0, metadata !943, metadata !"length", metadata !"length", metadata !"_ZNVK11ap_int_baseILi32ELb0ELb1EE6lengthEv", metadata !182, i32 1742, metadata !1112, i1 false, i1 false, i32 0, i32 0, null, i32 256, i1 false, null, null, i32 0, metadata !123, i32 1742} ; [ DW_TAG_subprogram ]
!1112 = metadata !{i32 786453, i32 0, metadata !"", i32 0, i32 0, i64 0, i64 0, i64 0, i32 0, null, metadata !1113, i32 0, i32 0} ; [ DW_TAG_subroutine_type ]
!1113 = metadata !{metadata !201, metadata !1114}
!1114 = metadata !{i32 786447, i32 0, metadata !"", i32 0, i32 0, i64 64, i64 64, i64 0, i32 64, metadata !967} ; [ DW_TAG_pointer_type ]
!1115 = metadata !{i32 786478, i32 0, metadata !943, metadata !"reverse", metadata !"reverse", metadata !"_ZN11ap_int_baseILi32ELb0ELb1EE7reverseEv", metadata !182, i32 1747, metadata !1116, i1 false, i1 false, i32 0, i32 0, null, i32 256, i1 false, null, null, i32 0, metadata !123, i32 1747} ; [ DW_TAG_subprogram ]
!1116 = metadata !{i32 786453, i32 0, metadata !"", i32 0, i32 0, i64 0, i64 0, i64 0, i32 0, null, metadata !1117, i32 0, i32 0} ; [ DW_TAG_subroutine_type ]
!1117 = metadata !{metadata !1031, metadata !959}
!1118 = metadata !{i32 786478, i32 0, metadata !943, metadata !"iszero", metadata !"iszero", metadata !"_ZNK11ap_int_baseILi32ELb0ELb1EE6iszeroEv", metadata !182, i32 1753, metadata !1075, i1 false, i1 false, i32 0, i32 0, null, i32 256, i1 false, null, null, i32 0, metadata !123, i32 1753} ; [ DW_TAG_subprogram ]
!1119 = metadata !{i32 786478, i32 0, metadata !943, metadata !"is_zero", metadata !"is_zero", metadata !"_ZNK11ap_int_baseILi32ELb0ELb1EE7is_zeroEv", metadata !182, i32 1758, metadata !1075, i1 false, i1 false, i32 0, i32 0, null, i32 256, i1 false, null, null, i32 0, metadata !123, i32 1758} ; [ DW_TAG_subprogram ]
!1120 = metadata !{i32 786478, i32 0, metadata !943, metadata !"sign", metadata !"sign", metadata !"_ZNK11ap_int_baseILi32ELb0ELb1EE4signEv", metadata !182, i32 1763, metadata !1075, i1 false, i1 false, i32 0, i32 0, null, i32 256, i1 false, null, null, i32 0, metadata !123, i32 1763} ; [ DW_TAG_subprogram ]
!1121 = metadata !{i32 786478, i32 0, metadata !943, metadata !"clear", metadata !"clear", metadata !"_ZN11ap_int_baseILi32ELb0ELb1EE5clearEi", metadata !182, i32 1771, metadata !985, i1 false, i1 false, i32 0, i32 0, null, i32 256, i1 false, null, null, i32 0, metadata !123, i32 1771} ; [ DW_TAG_subprogram ]
!1122 = metadata !{i32 786478, i32 0, metadata !943, metadata !"invert", metadata !"invert", metadata !"_ZN11ap_int_baseILi32ELb0ELb1EE6invertEi", metadata !182, i32 1777, metadata !985, i1 false, i1 false, i32 0, i32 0, null, i32 256, i1 false, null, null, i32 0, metadata !123, i32 1777} ; [ DW_TAG_subprogram ]
!1123 = metadata !{i32 786478, i32 0, metadata !943, metadata !"test", metadata !"test", metadata !"_ZNK11ap_int_baseILi32ELb0ELb1EE4testEi", metadata !182, i32 1785, metadata !1124, i1 false, i1 false, i32 0, i32 0, null, i32 256, i1 false, null, null, i32 0, metadata !123, i32 1785} ; [ DW_TAG_subprogram ]
!1124 = metadata !{i32 786453, i32 0, metadata !"", i32 0, i32 0, i64 0, i64 0, i64 0, i32 0, null, metadata !1125, i32 0, i32 0} ; [ DW_TAG_subroutine_type ]
!1125 = metadata !{metadata !151, metadata !1073, metadata !201}
!1126 = metadata !{i32 786478, i32 0, metadata !943, metadata !"set", metadata !"set", metadata !"_ZN11ap_int_baseILi32ELb0ELb1EE3setEi", metadata !182, i32 1791, metadata !985, i1 false, i1 false, i32 0, i32 0, null, i32 256, i1 false, null, null, i32 0, metadata !123, i32 1791} ; [ DW_TAG_subprogram ]
!1127 = metadata !{i32 786478, i32 0, metadata !943, metadata !"set", metadata !"set", metadata !"_ZN11ap_int_baseILi32ELb0ELb1EE3setEib", metadata !182, i32 1797, metadata !1128, i1 false, i1 false, i32 0, i32 0, null, i32 256, i1 false, null, null, i32 0, metadata !123, i32 1797} ; [ DW_TAG_subprogram ]
!1128 = metadata !{i32 786453, i32 0, metadata !"", i32 0, i32 0, i64 0, i64 0, i64 0, i32 0, null, metadata !1129, i32 0, i32 0} ; [ DW_TAG_subroutine_type ]
!1129 = metadata !{null, metadata !959, metadata !201, metadata !151}
!1130 = metadata !{i32 786478, i32 0, metadata !943, metadata !"lrotate", metadata !"lrotate", metadata !"_ZN11ap_int_baseILi32ELb0ELb1EE7lrotateEi", metadata !182, i32 1804, metadata !985, i1 false, i1 false, i32 0, i32 0, null, i32 256, i1 false, null, null, i32 0, metadata !123, i32 1804} ; [ DW_TAG_subprogram ]
!1131 = metadata !{i32 786478, i32 0, metadata !943, metadata !"rrotate", metadata !"rrotate", metadata !"_ZN11ap_int_baseILi32ELb0ELb1EE7rrotateEi", metadata !182, i32 1813, metadata !985, i1 false, i1 false, i32 0, i32 0, null, i32 256, i1 false, null, null, i32 0, metadata !123, i32 1813} ; [ DW_TAG_subprogram ]
!1132 = metadata !{i32 786478, i32 0, metadata !943, metadata !"set_bit", metadata !"set_bit", metadata !"_ZN11ap_int_baseILi32ELb0ELb1EE7set_bitEib", metadata !182, i32 1821, metadata !1128, i1 false, i1 false, i32 0, i32 0, null, i32 256, i1 false, null, null, i32 0, metadata !123, i32 1821} ; [ DW_TAG_subprogram ]
!1133 = metadata !{i32 786478, i32 0, metadata !943, metadata !"get_bit", metadata !"get_bit", metadata !"_ZNK11ap_int_baseILi32ELb0ELb1EE7get_bitEi", metadata !182, i32 1826, metadata !1124, i1 false, i1 false, i32 0, i32 0, null, i32 256, i1 false, null, null, i32 0, metadata !123, i32 1826} ; [ DW_TAG_subprogram ]
!1134 = metadata !{i32 786478, i32 0, metadata !943, metadata !"b_not", metadata !"b_not", metadata !"_ZN11ap_int_baseILi32ELb0ELb1EE5b_notEv", metadata !182, i32 1831, metadata !957, i1 false, i1 false, i32 0, i32 0, null, i32 256, i1 false, null, null, i32 0, metadata !123, i32 1831} ; [ DW_TAG_subprogram ]
!1135 = metadata !{i32 786478, i32 0, metadata !943, metadata !"countLeadingZeros", metadata !"countLeadingZeros", metadata !"_ZN11ap_int_baseILi32ELb0ELb1EE17countLeadingZerosEv", metadata !182, i32 1838, metadata !1136, i1 false, i1 false, i32 0, i32 0, null, i32 256, i1 false, null, null, i32 0, metadata !123, i32 1838} ; [ DW_TAG_subprogram ]
!1136 = metadata !{i32 786453, i32 0, metadata !"", i32 0, i32 0, i64 0, i64 0, i64 0, i32 0, null, metadata !1137, i32 0, i32 0} ; [ DW_TAG_subroutine_type ]
!1137 = metadata !{metadata !201, metadata !959}
!1138 = metadata !{i32 786478, i32 0, metadata !943, metadata !"operator++", metadata !"operator++", metadata !"_ZN11ap_int_baseILi32ELb0ELb1EEppEv", metadata !182, i32 1895, metadata !1116, i1 false, i1 false, i32 0, i32 0, null, i32 256, i1 false, null, null, i32 0, metadata !123, i32 1895} ; [ DW_TAG_subprogram ]
!1139 = metadata !{i32 786478, i32 0, metadata !943, metadata !"operator--", metadata !"operator--", metadata !"_ZN11ap_int_baseILi32ELb0ELb1EEmmEv", metadata !182, i32 1899, metadata !1116, i1 false, i1 false, i32 0, i32 0, null, i32 256, i1 false, null, null, i32 0, metadata !123, i32 1899} ; [ DW_TAG_subprogram ]
!1140 = metadata !{i32 786478, i32 0, metadata !943, metadata !"operator++", metadata !"operator++", metadata !"_ZN11ap_int_baseILi32ELb0ELb1EEppEi", metadata !182, i32 1907, metadata !1141, i1 false, i1 false, i32 0, i32 0, null, i32 256, i1 false, null, null, i32 0, metadata !123, i32 1907} ; [ DW_TAG_subprogram ]
!1141 = metadata !{i32 786453, i32 0, metadata !"", i32 0, i32 0, i64 0, i64 0, i64 0, i32 0, null, metadata !1142, i32 0, i32 0} ; [ DW_TAG_subroutine_type ]
!1142 = metadata !{metadata !942, metadata !959, metadata !201}
!1143 = metadata !{i32 786478, i32 0, metadata !943, metadata !"operator--", metadata !"operator--", metadata !"_ZN11ap_int_baseILi32ELb0ELb1EEmmEi", metadata !182, i32 1912, metadata !1141, i1 false, i1 false, i32 0, i32 0, null, i32 256, i1 false, null, null, i32 0, metadata !123, i32 1912} ; [ DW_TAG_subprogram ]
!1144 = metadata !{i32 786478, i32 0, metadata !943, metadata !"operator+", metadata !"operator+", metadata !"_ZNK11ap_int_baseILi32ELb0ELb1EEpsEv", metadata !182, i32 1921, metadata !1145, i1 false, i1 false, i32 0, i32 0, null, i32 256, i1 false, null, null, i32 0, metadata !123, i32 1921} ; [ DW_TAG_subprogram ]
!1145 = metadata !{i32 786453, i32 0, metadata !"", i32 0, i32 0, i64 0, i64 0, i64 0, i32 0, null, metadata !1146, i32 0, i32 0} ; [ DW_TAG_subroutine_type ]
!1146 = metadata !{metadata !943, metadata !1073}
!1147 = metadata !{i32 786478, i32 0, metadata !943, metadata !"operator!", metadata !"operator!", metadata !"_ZNK11ap_int_baseILi32ELb0ELb1EEntEv", metadata !182, i32 1927, metadata !1075, i1 false, i1 false, i32 0, i32 0, null, i32 256, i1 false, null, null, i32 0, metadata !123, i32 1927} ; [ DW_TAG_subprogram ]
!1148 = metadata !{i32 786478, i32 0, metadata !943, metadata !"operator-", metadata !"operator-", metadata !"_ZNK11ap_int_baseILi32ELb0ELb1EEngEv", metadata !182, i32 1932, metadata !1149, i1 false, i1 false, i32 0, i32 0, null, i32 256, i1 false, null, null, i32 0, metadata !123, i32 1932} ; [ DW_TAG_subprogram ]
!1149 = metadata !{i32 786453, i32 0, metadata !"", i32 0, i32 0, i64 0, i64 0, i64 0, i32 0, null, metadata !1150, i32 0, i32 0} ; [ DW_TAG_subroutine_type ]
!1150 = metadata !{metadata !1151, metadata !1073}
!1151 = metadata !{i32 786434, null, metadata !"ap_int_base<33, true, true>", metadata !182, i32 1453, i64 64, i64 64, i32 0, i32 0, null, metadata !1152, i32 0, null, metadata !1441} ; [ DW_TAG_class_type ]
!1152 = metadata !{metadata !1153, metadata !1164, metadata !1168, metadata !1176, metadata !1182, metadata !1185, metadata !1188, metadata !1191, metadata !1194, metadata !1197, metadata !1200, metadata !1203, metadata !1206, metadata !1209, metadata !1212, metadata !1215, metadata !1218, metadata !1221, metadata !1224, metadata !1227, metadata !1230, metadata !1234, metadata !1237, metadata !1240, metadata !1241, metadata !1245, metadata !1248, metadata !1251, metadata !1254, metadata !1257, metadata !1260, metadata !1263, metadata !1266, metadata !1269, metadata !1272, metadata !1275, metadata !1278, metadata !1287, metadata !1290, metadata !1293, metadata !1296, metadata !1299, metadata !1302, metadata !1305, metadata !1308, metadata !1311, metadata !1314, metadata !1317, metadata !1320, metadata !1323, metadata !1324, metadata !1328, metadata !1331, metadata !1332, metadata !1333, metadata !1334, metadata !1335, metadata !1336, metadata !1339, metadata !1340, metadata !1343, metadata !1344, metadata !1345, metadata !1346, metadata !1347, metadata !1348, metadata !1351, metadata !1352, metadata !1353, metadata !1356, metadata !1357, metadata !1360, metadata !1361, metadata !1367, metadata !1373, metadata !1374, metadata !1377, metadata !1378, metadata !1415, metadata !1416, metadata !1417, metadata !1418, metadata !1421, metadata !1422, metadata !1423, metadata !1424, metadata !1425, metadata !1426, metadata !1427, metadata !1428, metadata !1429, metadata !1430, metadata !1431, metadata !1432, metadata !1435, metadata !1438}
!1153 = metadata !{i32 786460, metadata !1151, null, metadata !182, i32 0, i64 0, i64 0, i64 0, i32 0, metadata !1154} ; [ DW_TAG_inheritance ]
!1154 = metadata !{i32 786434, null, metadata !"ssdm_int<33 + 1024 * 0, true>", metadata !186, i32 35, i64 64, i64 64, i32 0, i32 0, null, metadata !1155, i32 0, null, metadata !1162} ; [ DW_TAG_class_type ]
!1155 = metadata !{metadata !1156, metadata !1158}
!1156 = metadata !{i32 786445, metadata !1154, metadata !"V", metadata !186, i32 35, i64 33, i64 64, i64 0, i32 0, metadata !1157} ; [ DW_TAG_member ]
!1157 = metadata !{i32 786468, null, metadata !"int33", null, i32 0, i64 33, i64 64, i64 0, i32 0, i32 5} ; [ DW_TAG_base_type ]
!1158 = metadata !{i32 786478, i32 0, metadata !1154, metadata !"ssdm_int", metadata !"ssdm_int", metadata !"", metadata !186, i32 35, metadata !1159, i1 false, i1 false, i32 0, i32 0, null, i32 256, i1 false, null, null, i32 0, metadata !123, i32 35} ; [ DW_TAG_subprogram ]
!1159 = metadata !{i32 786453, i32 0, metadata !"", i32 0, i32 0, i64 0, i64 0, i64 0, i32 0, null, metadata !1160, i32 0, i32 0} ; [ DW_TAG_subroutine_type ]
!1160 = metadata !{null, metadata !1161}
!1161 = metadata !{i32 786447, i32 0, metadata !"", i32 0, i32 0, i64 64, i64 64, i64 0, i32 64, metadata !1154} ; [ DW_TAG_pointer_type ]
!1162 = metadata !{metadata !1163, metadata !429}
!1163 = metadata !{i32 786480, null, metadata !"_AP_N", metadata !201, i64 33, null, i32 0, i32 0} ; [ DW_TAG_template_value_parameter ]
!1164 = metadata !{i32 786478, i32 0, metadata !1151, metadata !"ap_int_base", metadata !"ap_int_base", metadata !"", metadata !182, i32 1494, metadata !1165, i1 false, i1 false, i32 0, i32 0, null, i32 256, i1 false, null, null, i32 0, metadata !123, i32 1494} ; [ DW_TAG_subprogram ]
!1165 = metadata !{i32 786453, i32 0, metadata !"", i32 0, i32 0, i64 0, i64 0, i64 0, i32 0, null, metadata !1166, i32 0, i32 0} ; [ DW_TAG_subroutine_type ]
!1166 = metadata !{null, metadata !1167}
!1167 = metadata !{i32 786447, i32 0, metadata !"", i32 0, i32 0, i64 64, i64 64, i64 0, i32 64, metadata !1151} ; [ DW_TAG_pointer_type ]
!1168 = metadata !{i32 786478, i32 0, metadata !1151, metadata !"ap_int_base<33, true>", metadata !"ap_int_base<33, true>", metadata !"", metadata !182, i32 1506, metadata !1169, i1 false, i1 false, i32 0, i32 0, null, i32 256, i1 false, null, metadata !1173, i32 0, metadata !123, i32 1506} ; [ DW_TAG_subprogram ]
!1169 = metadata !{i32 786453, i32 0, metadata !"", i32 0, i32 0, i64 0, i64 0, i64 0, i32 0, null, metadata !1170, i32 0, i32 0} ; [ DW_TAG_subroutine_type ]
!1170 = metadata !{null, metadata !1167, metadata !1171}
!1171 = metadata !{i32 786448, null, null, null, i32 0, i64 0, i64 0, i64 0, i32 0, metadata !1172} ; [ DW_TAG_reference_type ]
!1172 = metadata !{i32 786470, null, metadata !"", null, i32 0, i64 0, i64 0, i64 0, i32 0, metadata !1151} ; [ DW_TAG_const_type ]
!1173 = metadata !{metadata !1174, metadata !1175}
!1174 = metadata !{i32 786480, null, metadata !"_AP_W2", metadata !201, i64 33, null, i32 0, i32 0} ; [ DW_TAG_template_value_parameter ]
!1175 = metadata !{i32 786480, null, metadata !"_AP_S2", metadata !151, i64 1, null, i32 0, i32 0} ; [ DW_TAG_template_value_parameter ]
!1176 = metadata !{i32 786478, i32 0, metadata !1151, metadata !"ap_int_base<33, true>", metadata !"ap_int_base<33, true>", metadata !"", metadata !182, i32 1509, metadata !1177, i1 false, i1 false, i32 0, i32 0, null, i32 256, i1 false, null, metadata !1173, i32 0, metadata !123, i32 1509} ; [ DW_TAG_subprogram ]
!1177 = metadata !{i32 786453, i32 0, metadata !"", i32 0, i32 0, i64 0, i64 0, i64 0, i32 0, null, metadata !1178, i32 0, i32 0} ; [ DW_TAG_subroutine_type ]
!1178 = metadata !{null, metadata !1167, metadata !1179}
!1179 = metadata !{i32 786448, null, null, null, i32 0, i64 0, i64 0, i64 0, i32 0, metadata !1180} ; [ DW_TAG_reference_type ]
!1180 = metadata !{i32 786470, null, metadata !"", null, i32 0, i64 0, i64 0, i64 0, i32 0, metadata !1181} ; [ DW_TAG_const_type ]
!1181 = metadata !{i32 786485, null, metadata !"", null, i32 0, i64 0, i64 0, i64 0, i32 0, metadata !1151} ; [ DW_TAG_volatile_type ]
!1182 = metadata !{i32 786478, i32 0, metadata !1151, metadata !"ap_int_base", metadata !"ap_int_base", metadata !"", metadata !182, i32 1516, metadata !1183, i1 false, i1 false, i32 0, i32 0, null, i32 384, i1 false, null, null, i32 0, metadata !123, i32 1516} ; [ DW_TAG_subprogram ]
!1183 = metadata !{i32 786453, i32 0, metadata !"", i32 0, i32 0, i64 0, i64 0, i64 0, i32 0, null, metadata !1184, i32 0, i32 0} ; [ DW_TAG_subroutine_type ]
!1184 = metadata !{null, metadata !1167, metadata !151}
!1185 = metadata !{i32 786478, i32 0, metadata !1151, metadata !"ap_int_base", metadata !"ap_int_base", metadata !"", metadata !182, i32 1517, metadata !1186, i1 false, i1 false, i32 0, i32 0, null, i32 384, i1 false, null, null, i32 0, metadata !123, i32 1517} ; [ DW_TAG_subprogram ]
!1186 = metadata !{i32 786453, i32 0, metadata !"", i32 0, i32 0, i64 0, i64 0, i64 0, i32 0, null, metadata !1187, i32 0, i32 0} ; [ DW_TAG_subroutine_type ]
!1187 = metadata !{null, metadata !1167, metadata !227}
!1188 = metadata !{i32 786478, i32 0, metadata !1151, metadata !"ap_int_base", metadata !"ap_int_base", metadata !"", metadata !182, i32 1518, metadata !1189, i1 false, i1 false, i32 0, i32 0, null, i32 384, i1 false, null, null, i32 0, metadata !123, i32 1518} ; [ DW_TAG_subprogram ]
!1189 = metadata !{i32 786453, i32 0, metadata !"", i32 0, i32 0, i64 0, i64 0, i64 0, i32 0, null, metadata !1190, i32 0, i32 0} ; [ DW_TAG_subroutine_type ]
!1190 = metadata !{null, metadata !1167, metadata !118}
!1191 = metadata !{i32 786478, i32 0, metadata !1151, metadata !"ap_int_base", metadata !"ap_int_base", metadata !"", metadata !182, i32 1519, metadata !1192, i1 false, i1 false, i32 0, i32 0, null, i32 384, i1 false, null, null, i32 0, metadata !123, i32 1519} ; [ DW_TAG_subprogram ]
!1192 = metadata !{i32 786453, i32 0, metadata !"", i32 0, i32 0, i64 0, i64 0, i64 0, i32 0, null, metadata !1193, i32 0, i32 0} ; [ DW_TAG_subroutine_type ]
!1193 = metadata !{null, metadata !1167, metadata !234}
!1194 = metadata !{i32 786478, i32 0, metadata !1151, metadata !"ap_int_base", metadata !"ap_int_base", metadata !"", metadata !182, i32 1520, metadata !1195, i1 false, i1 false, i32 0, i32 0, null, i32 384, i1 false, null, null, i32 0, metadata !123, i32 1520} ; [ DW_TAG_subprogram ]
!1195 = metadata !{i32 786453, i32 0, metadata !"", i32 0, i32 0, i64 0, i64 0, i64 0, i32 0, null, metadata !1196, i32 0, i32 0} ; [ DW_TAG_subroutine_type ]
!1196 = metadata !{null, metadata !1167, metadata !238}
!1197 = metadata !{i32 786478, i32 0, metadata !1151, metadata !"ap_int_base", metadata !"ap_int_base", metadata !"", metadata !182, i32 1521, metadata !1198, i1 false, i1 false, i32 0, i32 0, null, i32 384, i1 false, null, null, i32 0, metadata !123, i32 1521} ; [ DW_TAG_subprogram ]
!1198 = metadata !{i32 786453, i32 0, metadata !"", i32 0, i32 0, i64 0, i64 0, i64 0, i32 0, null, metadata !1199, i32 0, i32 0} ; [ DW_TAG_subroutine_type ]
!1199 = metadata !{null, metadata !1167, metadata !201}
!1200 = metadata !{i32 786478, i32 0, metadata !1151, metadata !"ap_int_base", metadata !"ap_int_base", metadata !"", metadata !182, i32 1522, metadata !1201, i1 false, i1 false, i32 0, i32 0, null, i32 384, i1 false, null, null, i32 0, metadata !123, i32 1522} ; [ DW_TAG_subprogram ]
!1201 = metadata !{i32 786453, i32 0, metadata !"", i32 0, i32 0, i64 0, i64 0, i64 0, i32 0, null, metadata !1202, i32 0, i32 0} ; [ DW_TAG_subroutine_type ]
!1202 = metadata !{null, metadata !1167, metadata !168}
!1203 = metadata !{i32 786478, i32 0, metadata !1151, metadata !"ap_int_base", metadata !"ap_int_base", metadata !"", metadata !182, i32 1523, metadata !1204, i1 false, i1 false, i32 0, i32 0, null, i32 384, i1 false, null, null, i32 0, metadata !123, i32 1523} ; [ DW_TAG_subprogram ]
!1204 = metadata !{i32 786453, i32 0, metadata !"", i32 0, i32 0, i64 0, i64 0, i64 0, i32 0, null, metadata !1205, i32 0, i32 0} ; [ DW_TAG_subroutine_type ]
!1205 = metadata !{null, metadata !1167, metadata !248}
!1206 = metadata !{i32 786478, i32 0, metadata !1151, metadata !"ap_int_base", metadata !"ap_int_base", metadata !"", metadata !182, i32 1524, metadata !1207, i1 false, i1 false, i32 0, i32 0, null, i32 384, i1 false, null, null, i32 0, metadata !123, i32 1524} ; [ DW_TAG_subprogram ]
!1207 = metadata !{i32 786453, i32 0, metadata !"", i32 0, i32 0, i64 0, i64 0, i64 0, i32 0, null, metadata !1208, i32 0, i32 0} ; [ DW_TAG_subroutine_type ]
!1208 = metadata !{null, metadata !1167, metadata !252}
!1209 = metadata !{i32 786478, i32 0, metadata !1151, metadata !"ap_int_base", metadata !"ap_int_base", metadata !"", metadata !182, i32 1525, metadata !1210, i1 false, i1 false, i32 0, i32 0, null, i32 384, i1 false, null, null, i32 0, metadata !123, i32 1525} ; [ DW_TAG_subprogram ]
!1210 = metadata !{i32 786453, i32 0, metadata !"", i32 0, i32 0, i64 0, i64 0, i64 0, i32 0, null, metadata !1211, i32 0, i32 0} ; [ DW_TAG_subroutine_type ]
!1211 = metadata !{null, metadata !1167, metadata !256}
!1212 = metadata !{i32 786478, i32 0, metadata !1151, metadata !"ap_int_base", metadata !"ap_int_base", metadata !"", metadata !182, i32 1526, metadata !1213, i1 false, i1 false, i32 0, i32 0, null, i32 384, i1 false, null, null, i32 0, metadata !123, i32 1526} ; [ DW_TAG_subprogram ]
!1213 = metadata !{i32 786453, i32 0, metadata !"", i32 0, i32 0, i64 0, i64 0, i64 0, i32 0, null, metadata !1214, i32 0, i32 0} ; [ DW_TAG_subroutine_type ]
!1214 = metadata !{null, metadata !1167, metadata !261}
!1215 = metadata !{i32 786478, i32 0, metadata !1151, metadata !"ap_int_base", metadata !"ap_int_base", metadata !"", metadata !182, i32 1527, metadata !1216, i1 false, i1 false, i32 0, i32 0, null, i32 384, i1 false, null, null, i32 0, metadata !123, i32 1527} ; [ DW_TAG_subprogram ]
!1216 = metadata !{i32 786453, i32 0, metadata !"", i32 0, i32 0, i64 0, i64 0, i64 0, i32 0, null, metadata !1217, i32 0, i32 0} ; [ DW_TAG_subroutine_type ]
!1217 = metadata !{null, metadata !1167, metadata !265}
!1218 = metadata !{i32 786478, i32 0, metadata !1151, metadata !"ap_int_base", metadata !"ap_int_base", metadata !"", metadata !182, i32 1528, metadata !1219, i1 false, i1 false, i32 0, i32 0, null, i32 384, i1 false, null, null, i32 0, metadata !123, i32 1528} ; [ DW_TAG_subprogram ]
!1219 = metadata !{i32 786453, i32 0, metadata !"", i32 0, i32 0, i64 0, i64 0, i64 0, i32 0, null, metadata !1220, i32 0, i32 0} ; [ DW_TAG_subroutine_type ]
!1220 = metadata !{null, metadata !1167, metadata !270}
!1221 = metadata !{i32 786478, i32 0, metadata !1151, metadata !"ap_int_base", metadata !"ap_int_base", metadata !"", metadata !182, i32 1529, metadata !1222, i1 false, i1 false, i32 0, i32 0, null, i32 384, i1 false, null, null, i32 0, metadata !123, i32 1529} ; [ DW_TAG_subprogram ]
!1222 = metadata !{i32 786453, i32 0, metadata !"", i32 0, i32 0, i64 0, i64 0, i64 0, i32 0, null, metadata !1223, i32 0, i32 0} ; [ DW_TAG_subroutine_type ]
!1223 = metadata !{null, metadata !1167, metadata !274}
!1224 = metadata !{i32 786478, i32 0, metadata !1151, metadata !"ap_int_base", metadata !"ap_int_base", metadata !"", metadata !182, i32 1556, metadata !1225, i1 false, i1 false, i32 0, i32 0, null, i32 256, i1 false, null, null, i32 0, metadata !123, i32 1556} ; [ DW_TAG_subprogram ]
!1225 = metadata !{i32 786453, i32 0, metadata !"", i32 0, i32 0, i64 0, i64 0, i64 0, i32 0, null, metadata !1226, i32 0, i32 0} ; [ DW_TAG_subroutine_type ]
!1226 = metadata !{null, metadata !1167, metadata !128}
!1227 = metadata !{i32 786478, i32 0, metadata !1151, metadata !"ap_int_base", metadata !"ap_int_base", metadata !"", metadata !182, i32 1563, metadata !1228, i1 false, i1 false, i32 0, i32 0, null, i32 256, i1 false, null, null, i32 0, metadata !123, i32 1563} ; [ DW_TAG_subprogram ]
!1228 = metadata !{i32 786453, i32 0, metadata !"", i32 0, i32 0, i64 0, i64 0, i64 0, i32 0, null, metadata !1229, i32 0, i32 0} ; [ DW_TAG_subroutine_type ]
!1229 = metadata !{null, metadata !1167, metadata !128, metadata !227}
!1230 = metadata !{i32 786478, i32 0, metadata !1151, metadata !"read", metadata !"read", metadata !"_ZNV11ap_int_baseILi33ELb1ELb1EE4readEv", metadata !182, i32 1584, metadata !1231, i1 false, i1 false, i32 0, i32 0, null, i32 256, i1 false, null, null, i32 0, metadata !123, i32 1584} ; [ DW_TAG_subprogram ]
!1231 = metadata !{i32 786453, i32 0, metadata !"", i32 0, i32 0, i64 0, i64 0, i64 0, i32 0, null, metadata !1232, i32 0, i32 0} ; [ DW_TAG_subroutine_type ]
!1232 = metadata !{metadata !1151, metadata !1233}
!1233 = metadata !{i32 786447, i32 0, metadata !"", i32 0, i32 0, i64 64, i64 64, i64 0, i32 64, metadata !1181} ; [ DW_TAG_pointer_type ]
!1234 = metadata !{i32 786478, i32 0, metadata !1151, metadata !"write", metadata !"write", metadata !"_ZNV11ap_int_baseILi33ELb1ELb1EE5writeERKS0_", metadata !182, i32 1590, metadata !1235, i1 false, i1 false, i32 0, i32 0, null, i32 256, i1 false, null, null, i32 0, metadata !123, i32 1590} ; [ DW_TAG_subprogram ]
!1235 = metadata !{i32 786453, i32 0, metadata !"", i32 0, i32 0, i64 0, i64 0, i64 0, i32 0, null, metadata !1236, i32 0, i32 0} ; [ DW_TAG_subroutine_type ]
!1236 = metadata !{null, metadata !1233, metadata !1171}
!1237 = metadata !{i32 786478, i32 0, metadata !1151, metadata !"operator=", metadata !"operator=", metadata !"_ZNV11ap_int_baseILi33ELb1ELb1EEaSERVKS0_", metadata !182, i32 1602, metadata !1238, i1 false, i1 false, i32 0, i32 0, null, i32 256, i1 false, null, null, i32 0, metadata !123, i32 1602} ; [ DW_TAG_subprogram ]
!1238 = metadata !{i32 786453, i32 0, metadata !"", i32 0, i32 0, i64 0, i64 0, i64 0, i32 0, null, metadata !1239, i32 0, i32 0} ; [ DW_TAG_subroutine_type ]
!1239 = metadata !{null, metadata !1233, metadata !1179}
!1240 = metadata !{i32 786478, i32 0, metadata !1151, metadata !"operator=", metadata !"operator=", metadata !"_ZNV11ap_int_baseILi33ELb1ELb1EEaSERKS0_", metadata !182, i32 1611, metadata !1235, i1 false, i1 false, i32 0, i32 0, null, i32 256, i1 false, null, null, i32 0, metadata !123, i32 1611} ; [ DW_TAG_subprogram ]
!1241 = metadata !{i32 786478, i32 0, metadata !1151, metadata !"operator=", metadata !"operator=", metadata !"_ZN11ap_int_baseILi33ELb1ELb1EEaSERVKS0_", metadata !182, i32 1634, metadata !1242, i1 false, i1 false, i32 0, i32 0, null, i32 256, i1 false, null, null, i32 0, metadata !123, i32 1634} ; [ DW_TAG_subprogram ]
!1242 = metadata !{i32 786453, i32 0, metadata !"", i32 0, i32 0, i64 0, i64 0, i64 0, i32 0, null, metadata !1243, i32 0, i32 0} ; [ DW_TAG_subroutine_type ]
!1243 = metadata !{metadata !1244, metadata !1167, metadata !1179}
!1244 = metadata !{i32 786448, null, null, null, i32 0, i64 0, i64 0, i64 0, i32 0, metadata !1151} ; [ DW_TAG_reference_type ]
!1245 = metadata !{i32 786478, i32 0, metadata !1151, metadata !"operator=", metadata !"operator=", metadata !"_ZN11ap_int_baseILi33ELb1ELb1EEaSERKS0_", metadata !182, i32 1639, metadata !1246, i1 false, i1 false, i32 0, i32 0, null, i32 256, i1 false, null, null, i32 0, metadata !123, i32 1639} ; [ DW_TAG_subprogram ]
!1246 = metadata !{i32 786453, i32 0, metadata !"", i32 0, i32 0, i64 0, i64 0, i64 0, i32 0, null, metadata !1247, i32 0, i32 0} ; [ DW_TAG_subroutine_type ]
!1247 = metadata !{metadata !1244, metadata !1167, metadata !1171}
!1248 = metadata !{i32 786478, i32 0, metadata !1151, metadata !"operator=", metadata !"operator=", metadata !"_ZN11ap_int_baseILi33ELb1ELb1EEaSEPKc", metadata !182, i32 1643, metadata !1249, i1 false, i1 false, i32 0, i32 0, null, i32 256, i1 false, null, null, i32 0, metadata !123, i32 1643} ; [ DW_TAG_subprogram ]
!1249 = metadata !{i32 786453, i32 0, metadata !"", i32 0, i32 0, i64 0, i64 0, i64 0, i32 0, null, metadata !1250, i32 0, i32 0} ; [ DW_TAG_subroutine_type ]
!1250 = metadata !{metadata !1244, metadata !1167, metadata !128}
!1251 = metadata !{i32 786478, i32 0, metadata !1151, metadata !"set", metadata !"set", metadata !"_ZN11ap_int_baseILi33ELb1ELb1EE3setEPKca", metadata !182, i32 1651, metadata !1252, i1 false, i1 false, i32 0, i32 0, null, i32 256, i1 false, null, null, i32 0, metadata !123, i32 1651} ; [ DW_TAG_subprogram ]
!1252 = metadata !{i32 786453, i32 0, metadata !"", i32 0, i32 0, i64 0, i64 0, i64 0, i32 0, null, metadata !1253, i32 0, i32 0} ; [ DW_TAG_subroutine_type ]
!1253 = metadata !{metadata !1244, metadata !1167, metadata !128, metadata !227}
!1254 = metadata !{i32 786478, i32 0, metadata !1151, metadata !"operator=", metadata !"operator=", metadata !"_ZN11ap_int_baseILi33ELb1ELb1EEaSEa", metadata !182, i32 1665, metadata !1255, i1 false, i1 false, i32 0, i32 0, null, i32 256, i1 false, null, null, i32 0, metadata !123, i32 1665} ; [ DW_TAG_subprogram ]
!1255 = metadata !{i32 786453, i32 0, metadata !"", i32 0, i32 0, i64 0, i64 0, i64 0, i32 0, null, metadata !1256, i32 0, i32 0} ; [ DW_TAG_subroutine_type ]
!1256 = metadata !{metadata !1244, metadata !1167, metadata !227}
!1257 = metadata !{i32 786478, i32 0, metadata !1151, metadata !"operator=", metadata !"operator=", metadata !"_ZN11ap_int_baseILi33ELb1ELb1EEaSEh", metadata !182, i32 1666, metadata !1258, i1 false, i1 false, i32 0, i32 0, null, i32 256, i1 false, null, null, i32 0, metadata !123, i32 1666} ; [ DW_TAG_subprogram ]
!1258 = metadata !{i32 786453, i32 0, metadata !"", i32 0, i32 0, i64 0, i64 0, i64 0, i32 0, null, metadata !1259, i32 0, i32 0} ; [ DW_TAG_subroutine_type ]
!1259 = metadata !{metadata !1244, metadata !1167, metadata !118}
!1260 = metadata !{i32 786478, i32 0, metadata !1151, metadata !"operator=", metadata !"operator=", metadata !"_ZN11ap_int_baseILi33ELb1ELb1EEaSEs", metadata !182, i32 1667, metadata !1261, i1 false, i1 false, i32 0, i32 0, null, i32 256, i1 false, null, null, i32 0, metadata !123, i32 1667} ; [ DW_TAG_subprogram ]
!1261 = metadata !{i32 786453, i32 0, metadata !"", i32 0, i32 0, i64 0, i64 0, i64 0, i32 0, null, metadata !1262, i32 0, i32 0} ; [ DW_TAG_subroutine_type ]
!1262 = metadata !{metadata !1244, metadata !1167, metadata !234}
!1263 = metadata !{i32 786478, i32 0, metadata !1151, metadata !"operator=", metadata !"operator=", metadata !"_ZN11ap_int_baseILi33ELb1ELb1EEaSEt", metadata !182, i32 1668, metadata !1264, i1 false, i1 false, i32 0, i32 0, null, i32 256, i1 false, null, null, i32 0, metadata !123, i32 1668} ; [ DW_TAG_subprogram ]
!1264 = metadata !{i32 786453, i32 0, metadata !"", i32 0, i32 0, i64 0, i64 0, i64 0, i32 0, null, metadata !1265, i32 0, i32 0} ; [ DW_TAG_subroutine_type ]
!1265 = metadata !{metadata !1244, metadata !1167, metadata !238}
!1266 = metadata !{i32 786478, i32 0, metadata !1151, metadata !"operator=", metadata !"operator=", metadata !"_ZN11ap_int_baseILi33ELb1ELb1EEaSEi", metadata !182, i32 1669, metadata !1267, i1 false, i1 false, i32 0, i32 0, null, i32 256, i1 false, null, null, i32 0, metadata !123, i32 1669} ; [ DW_TAG_subprogram ]
!1267 = metadata !{i32 786453, i32 0, metadata !"", i32 0, i32 0, i64 0, i64 0, i64 0, i32 0, null, metadata !1268, i32 0, i32 0} ; [ DW_TAG_subroutine_type ]
!1268 = metadata !{metadata !1244, metadata !1167, metadata !201}
!1269 = metadata !{i32 786478, i32 0, metadata !1151, metadata !"operator=", metadata !"operator=", metadata !"_ZN11ap_int_baseILi33ELb1ELb1EEaSEj", metadata !182, i32 1670, metadata !1270, i1 false, i1 false, i32 0, i32 0, null, i32 256, i1 false, null, null, i32 0, metadata !123, i32 1670} ; [ DW_TAG_subprogram ]
!1270 = metadata !{i32 786453, i32 0, metadata !"", i32 0, i32 0, i64 0, i64 0, i64 0, i32 0, null, metadata !1271, i32 0, i32 0} ; [ DW_TAG_subroutine_type ]
!1271 = metadata !{metadata !1244, metadata !1167, metadata !168}
!1272 = metadata !{i32 786478, i32 0, metadata !1151, metadata !"operator=", metadata !"operator=", metadata !"_ZN11ap_int_baseILi33ELb1ELb1EEaSEx", metadata !182, i32 1671, metadata !1273, i1 false, i1 false, i32 0, i32 0, null, i32 256, i1 false, null, null, i32 0, metadata !123, i32 1671} ; [ DW_TAG_subprogram ]
!1273 = metadata !{i32 786453, i32 0, metadata !"", i32 0, i32 0, i64 0, i64 0, i64 0, i32 0, null, metadata !1274, i32 0, i32 0} ; [ DW_TAG_subroutine_type ]
!1274 = metadata !{metadata !1244, metadata !1167, metadata !256}
!1275 = metadata !{i32 786478, i32 0, metadata !1151, metadata !"operator=", metadata !"operator=", metadata !"_ZN11ap_int_baseILi33ELb1ELb1EEaSEy", metadata !182, i32 1672, metadata !1276, i1 false, i1 false, i32 0, i32 0, null, i32 256, i1 false, null, null, i32 0, metadata !123, i32 1672} ; [ DW_TAG_subprogram ]
!1276 = metadata !{i32 786453, i32 0, metadata !"", i32 0, i32 0, i64 0, i64 0, i64 0, i32 0, null, metadata !1277, i32 0, i32 0} ; [ DW_TAG_subroutine_type ]
!1277 = metadata !{metadata !1244, metadata !1167, metadata !261}
!1278 = metadata !{i32 786478, i32 0, metadata !1151, metadata !"operator long long", metadata !"operator long long", metadata !"_ZNK11ap_int_baseILi33ELb1ELb1EEcvxEv", metadata !182, i32 1710, metadata !1279, i1 false, i1 false, i32 0, i32 0, null, i32 256, i1 false, null, null, i32 0, metadata !123, i32 1710} ; [ DW_TAG_subprogram ]
!1279 = metadata !{i32 786453, i32 0, metadata !"", i32 0, i32 0, i64 0, i64 0, i64 0, i32 0, null, metadata !1280, i32 0, i32 0} ; [ DW_TAG_subroutine_type ]
!1280 = metadata !{metadata !1281, metadata !1286}
!1281 = metadata !{i32 786454, metadata !1151, metadata !"RetType", metadata !182, i32 1458, i64 0, i64 0, i64 0, i32 0, metadata !1282} ; [ DW_TAG_typedef ]
!1282 = metadata !{i32 786454, metadata !1283, metadata !"Type", metadata !182, i32 1415, i64 0, i64 0, i64 0, i32 0, metadata !256} ; [ DW_TAG_typedef ]
!1283 = metadata !{i32 786434, null, metadata !"retval<5, true>", metadata !182, i32 1414, i64 8, i64 8, i32 0, i32 0, null, metadata !335, i32 0, null, metadata !1284} ; [ DW_TAG_class_type ]
!1284 = metadata !{metadata !1285, metadata !429}
!1285 = metadata !{i32 786480, null, metadata !"_AP_N", metadata !201, i64 5, null, i32 0, i32 0} ; [ DW_TAG_template_value_parameter ]
!1286 = metadata !{i32 786447, i32 0, metadata !"", i32 0, i32 0, i64 64, i64 64, i64 0, i32 64, metadata !1172} ; [ DW_TAG_pointer_type ]
!1287 = metadata !{i32 786478, i32 0, metadata !1151, metadata !"to_bool", metadata !"to_bool", metadata !"_ZNK11ap_int_baseILi33ELb1ELb1EE7to_boolEv", metadata !182, i32 1716, metadata !1288, i1 false, i1 false, i32 0, i32 0, null, i32 256, i1 false, null, null, i32 0, metadata !123, i32 1716} ; [ DW_TAG_subprogram ]
!1288 = metadata !{i32 786453, i32 0, metadata !"", i32 0, i32 0, i64 0, i64 0, i64 0, i32 0, null, metadata !1289, i32 0, i32 0} ; [ DW_TAG_subroutine_type ]
!1289 = metadata !{metadata !151, metadata !1286}
!1290 = metadata !{i32 786478, i32 0, metadata !1151, metadata !"to_uchar", metadata !"to_uchar", metadata !"_ZNK11ap_int_baseILi33ELb1ELb1EE8to_ucharEv", metadata !182, i32 1717, metadata !1291, i1 false, i1 false, i32 0, i32 0, null, i32 256, i1 false, null, null, i32 0, metadata !123, i32 1717} ; [ DW_TAG_subprogram ]
!1291 = metadata !{i32 786453, i32 0, metadata !"", i32 0, i32 0, i64 0, i64 0, i64 0, i32 0, null, metadata !1292, i32 0, i32 0} ; [ DW_TAG_subroutine_type ]
!1292 = metadata !{metadata !118, metadata !1286}
!1293 = metadata !{i32 786478, i32 0, metadata !1151, metadata !"to_char", metadata !"to_char", metadata !"_ZNK11ap_int_baseILi33ELb1ELb1EE7to_charEv", metadata !182, i32 1718, metadata !1294, i1 false, i1 false, i32 0, i32 0, null, i32 256, i1 false, null, null, i32 0, metadata !123, i32 1718} ; [ DW_TAG_subprogram ]
!1294 = metadata !{i32 786453, i32 0, metadata !"", i32 0, i32 0, i64 0, i64 0, i64 0, i32 0, null, metadata !1295, i32 0, i32 0} ; [ DW_TAG_subroutine_type ]
!1295 = metadata !{metadata !227, metadata !1286}
!1296 = metadata !{i32 786478, i32 0, metadata !1151, metadata !"to_ushort", metadata !"to_ushort", metadata !"_ZNK11ap_int_baseILi33ELb1ELb1EE9to_ushortEv", metadata !182, i32 1719, metadata !1297, i1 false, i1 false, i32 0, i32 0, null, i32 256, i1 false, null, null, i32 0, metadata !123, i32 1719} ; [ DW_TAG_subprogram ]
!1297 = metadata !{i32 786453, i32 0, metadata !"", i32 0, i32 0, i64 0, i64 0, i64 0, i32 0, null, metadata !1298, i32 0, i32 0} ; [ DW_TAG_subroutine_type ]
!1298 = metadata !{metadata !238, metadata !1286}
!1299 = metadata !{i32 786478, i32 0, metadata !1151, metadata !"to_short", metadata !"to_short", metadata !"_ZNK11ap_int_baseILi33ELb1ELb1EE8to_shortEv", metadata !182, i32 1720, metadata !1300, i1 false, i1 false, i32 0, i32 0, null, i32 256, i1 false, null, null, i32 0, metadata !123, i32 1720} ; [ DW_TAG_subprogram ]
!1300 = metadata !{i32 786453, i32 0, metadata !"", i32 0, i32 0, i64 0, i64 0, i64 0, i32 0, null, metadata !1301, i32 0, i32 0} ; [ DW_TAG_subroutine_type ]
!1301 = metadata !{metadata !234, metadata !1286}
!1302 = metadata !{i32 786478, i32 0, metadata !1151, metadata !"to_int", metadata !"to_int", metadata !"_ZNK11ap_int_baseILi33ELb1ELb1EE6to_intEv", metadata !182, i32 1721, metadata !1303, i1 false, i1 false, i32 0, i32 0, null, i32 256, i1 false, null, null, i32 0, metadata !123, i32 1721} ; [ DW_TAG_subprogram ]
!1303 = metadata !{i32 786453, i32 0, metadata !"", i32 0, i32 0, i64 0, i64 0, i64 0, i32 0, null, metadata !1304, i32 0, i32 0} ; [ DW_TAG_subroutine_type ]
!1304 = metadata !{metadata !201, metadata !1286}
!1305 = metadata !{i32 786478, i32 0, metadata !1151, metadata !"to_uint", metadata !"to_uint", metadata !"_ZNK11ap_int_baseILi33ELb1ELb1EE7to_uintEv", metadata !182, i32 1722, metadata !1306, i1 false, i1 false, i32 0, i32 0, null, i32 256, i1 false, null, null, i32 0, metadata !123, i32 1722} ; [ DW_TAG_subprogram ]
!1306 = metadata !{i32 786453, i32 0, metadata !"", i32 0, i32 0, i64 0, i64 0, i64 0, i32 0, null, metadata !1307, i32 0, i32 0} ; [ DW_TAG_subroutine_type ]
!1307 = metadata !{metadata !168, metadata !1286}
!1308 = metadata !{i32 786478, i32 0, metadata !1151, metadata !"to_long", metadata !"to_long", metadata !"_ZNK11ap_int_baseILi33ELb1ELb1EE7to_longEv", metadata !182, i32 1723, metadata !1309, i1 false, i1 false, i32 0, i32 0, null, i32 256, i1 false, null, null, i32 0, metadata !123, i32 1723} ; [ DW_TAG_subprogram ]
!1309 = metadata !{i32 786453, i32 0, metadata !"", i32 0, i32 0, i64 0, i64 0, i64 0, i32 0, null, metadata !1310, i32 0, i32 0} ; [ DW_TAG_subroutine_type ]
!1310 = metadata !{metadata !248, metadata !1286}
!1311 = metadata !{i32 786478, i32 0, metadata !1151, metadata !"to_ulong", metadata !"to_ulong", metadata !"_ZNK11ap_int_baseILi33ELb1ELb1EE8to_ulongEv", metadata !182, i32 1724, metadata !1312, i1 false, i1 false, i32 0, i32 0, null, i32 256, i1 false, null, null, i32 0, metadata !123, i32 1724} ; [ DW_TAG_subprogram ]
!1312 = metadata !{i32 786453, i32 0, metadata !"", i32 0, i32 0, i64 0, i64 0, i64 0, i32 0, null, metadata !1313, i32 0, i32 0} ; [ DW_TAG_subroutine_type ]
!1313 = metadata !{metadata !252, metadata !1286}
!1314 = metadata !{i32 786478, i32 0, metadata !1151, metadata !"to_int64", metadata !"to_int64", metadata !"_ZNK11ap_int_baseILi33ELb1ELb1EE8to_int64Ev", metadata !182, i32 1725, metadata !1315, i1 false, i1 false, i32 0, i32 0, null, i32 256, i1 false, null, null, i32 0, metadata !123, i32 1725} ; [ DW_TAG_subprogram ]
