; ModuleID = 'C:/Users/Riccardo/Documents/HLS_COMMON/DDR/DDR_TO_AXIS_READER_VGA64/solution1/.autopilot/db/a.o.3.bc'
target datalayout = "e-p:64:64:64-i1:8:8-i8:8:8-i16:16:16-i32:32:32-i64:64:64-f32:32:32-f64:64:64-v64:64:64-v128:128:128-a0:0:64-s0:64:64-f80:128:128-n8:16:32:64-S128"
target triple = "x86_64-w64-mingw32"

@memcpy_OC_buffer_OC_base_ddr_a = internal unnamed_addr constant [28 x i8] c"memcpy.buffer.base_ddr_addr\00" ; [#uses=1 type=[28 x i8]*]
@llvm_global_ctors_1 = appending global [1 x void ()*] [void ()* @_GLOBAL__I_a] ; [#uses=0 type=[1 x void ()*]*]
@llvm_global_ctors_0 = appending global [1 x i32] [i32 65535] ; [#uses=0 type=[1 x i32]*]
@index_old = internal unnamed_addr global i32 -1, align 4 ; [#uses=3 type=i32*]
@frame_count_inner = internal unnamed_addr global i32 0, align 4 ; [#uses=3 type=i32*]
@frame_count_equals_inner = internal unnamed_addr global i32 0, align 4 ; [#uses=3 type=i32*]
@ddr_to_axis_reader_str = internal unnamed_addr constant [19 x i8] c"ddr_to_axis_reader\00" ; [#uses=1 type=[19 x i8]*]
@burstread_OC_region_str = internal unnamed_addr constant [17 x i8] c"burstread.region\00" ; [#uses=2 type=[17 x i8]*]
@p_str6 = internal unnamed_addr constant [1 x i8] zeroinitializer ; [#uses=1 type=[1 x i8]*]
@p_str5 = private unnamed_addr constant [12 x i8] c"hls_label_0\00", align 1 ; [#uses=2 type=[12 x i8]*]
@p_str4 = private unnamed_addr constant [12 x i8] c"RAM_2P_BRAM\00", align 1 ; [#uses=1 type=[12 x i8]*]
@p_str3 = private unnamed_addr constant [6 x i8] c"m_axi\00", align 1 ; [#uses=1 type=[6 x i8]*]
@p_str2 = private unnamed_addr constant [5 x i8] c"axis\00", align 1 ; [#uses=1 type=[5 x i8]*]
@p_str1 = private unnamed_addr constant [1 x i8] zeroinitializer, align 1 ; [#uses=29 type=[1 x i8]*]
@p_str = private unnamed_addr constant [8 x i8] c"ap_none\00", align 1 ; [#uses=3 type=[8 x i8]*]

; [#uses=1]
declare i64 @llvm.part.select.i64(i64, i32, i32) nounwind readnone

; [#uses=1]
declare i22 @llvm.part.select.i22(i22, i32, i32) nounwind readnone

; [#uses=1]
declare i13 @llvm.part.select.i13(i13, i32, i32) nounwind readnone

; [#uses=16]
declare void @llvm.dbg.value(metadata, i64, metadata) nounwind readnone

; [#uses=1]
declare void @llvm.dbg.declare(metadata, metadata) nounwind readnone

; [#uses=0]
define void @ddr_to_axis_reader(i8* %outStream_V, i64* %base_ddr_addr, i3* %frame_index_V, i32* %frame_count, i32* %frame_count_equals) {
  call void (...)* @_ssdm_op_SpecBitsMap(i8* %outStream_V), !map !7
  call void (...)* @_ssdm_op_SpecBitsMap(i64* %base_ddr_addr), !map !11
  call void (...)* @_ssdm_op_SpecBitsMap(i3* %frame_index_V), !map !17
  call void (...)* @_ssdm_op_SpecBitsMap(i32* %frame_count), !map !21
  call void (...)* @_ssdm_op_SpecBitsMap(i32* %frame_count_equals), !map !25
  call void (...)* @_ssdm_op_SpecTopModule([19 x i8]* @ddr_to_axis_reader_str) nounwind
  %buffer = alloca [512 x i64], align 16          ; [#uses=3 type=[512 x i64]*]
  call void @llvm.dbg.value(metadata !{i8* %outStream_V}, i64 0, metadata !29), !dbg !445 ; [debug line = 9:48] [debug variable = outStream.V]
  call void @llvm.dbg.value(metadata !{i64* %base_ddr_addr}, i64 0, metadata !446), !dbg !447 ; [debug line = 9:73] [debug variable = base_ddr_addr]
  call void @llvm.dbg.value(metadata !{i3* %frame_index_V}, i64 0, metadata !448), !dbg !457 ; [debug line = 9:100] [debug variable = frame_index.V]
  call void @llvm.dbg.value(metadata !{i32* %frame_count}, i64 0, metadata !458), !dbg !459 ; [debug line = 10:17] [debug variable = frame_count]
  call void @llvm.dbg.value(metadata !{i32* %frame_count_equals}, i64 0, metadata !460), !dbg !461 ; [debug line = 10:44] [debug variable = frame_count_equals]
  call void (...)* @_ssdm_op_SpecInterface(i32* %frame_count_equals, [8 x i8]* @p_str, i32 0, i32 0, i32 0, i32 0, [1 x i8]* @p_str1, [1 x i8]* @p_str1, [1 x i8]* @p_str1, [1 x i8]* @p_str1) nounwind, !dbg !462 ; [debug line = 12:1]
  call void (...)* @_ssdm_op_SpecInterface(i32* %frame_count, [8 x i8]* @p_str, i32 0, i32 0, i32 0, i32 0, [1 x i8]* @p_str1, [1 x i8]* @p_str1, [1 x i8]* @p_str1, [1 x i8]* @p_str1) nounwind, !dbg !464 ; [debug line = 13:1]
  call void (...)* @_ssdm_op_SpecInterface(i8* %outStream_V, [5 x i8]* @p_str2, i32 0, i32 0, i32 0, i32 0, [1 x i8]* @p_str1, [1 x i8]* @p_str1, [1 x i8]* @p_str1, [1 x i8]* @p_str1) nounwind, !dbg !465 ; [debug line = 14:1]
  call void (...)* @_ssdm_op_SpecInterface(i64* %base_ddr_addr, [6 x i8]* @p_str3, i32 0, i32 0, i32 0, i32 128, [1 x i8]* @p_str1, [1 x i8]* @p_str1, [1 x i8]* @p_str1, [1 x i8]* @p_str1) nounwind, !dbg !466 ; [debug line = 15:1]
  call void (...)* @_ssdm_op_SpecInterface(i3* %frame_index_V, [8 x i8]* @p_str, i32 0, i32 0, i32 0, i32 0, [1 x i8]* @p_str1, [1 x i8]* @p_str1, [1 x i8]* @p_str1, [1 x i8]* @p_str1) nounwind, !dbg !467 ; [debug line = 16:1]
  call void @llvm.dbg.declare(metadata !{[512 x i64]* %buffer}, metadata !468), !dbg !472 ; [debug line = 18:12] [debug variable = buffer]
  call void (...)* @_ssdm_op_SpecMemCore([512 x i64]* %buffer, [1 x i8]* @p_str1, [12 x i8]* @p_str4, [1 x i8]* @p_str1, i32 -1, [1 x i8]* @p_str1, [1 x i8]* @p_str1, [1 x i8]* @p_str1), !dbg !473 ; [debug line = 19:1]
  call void (...)* @_ssdm_op_SpecReset(i32* @frame_count_inner, i32 1, [1 x i8]* @p_str1) nounwind, !dbg !474 ; [debug line = 24:1]
  call void (...)* @_ssdm_op_SpecReset(i32* @index_old, i32 1, [1 x i8]* @p_str1) nounwind, !dbg !475 ; [debug line = 25:1]
  call void (...)* @_ssdm_op_SpecReset(i32* @frame_count_equals_inner, i32 1, [1 x i8]* @p_str1) nounwind, !dbg !476 ; [debug line = 26:1]
  call void @llvm.dbg.value(metadata !{i3* %frame_index_V}, i64 0, metadata !477), !dbg !481 ; [debug line = 276:87@27:2] [debug variable = op2.V]
  %inner_index_V = call i3 @_ssdm_op_Read.ap_none.i3P(i3* %frame_index_V), !dbg !483 ; [#uses=1 type=i3] [debug line = 277:10@27:2]
  call void @llvm.dbg.value(metadata !{i3 %inner_index_V}, i64 0, metadata !485), !dbg !483 ; [debug line = 277:10@27:2] [debug variable = inner_index.V]
  %inner_index_V_2 = add i3 %inner_index_V, -1, !dbg !487 ; [#uses=2 type=i3] [debug line = 1821:147@1855:9@34:7]
  call void @llvm.dbg.value(metadata !{i3 %inner_index_V_2}, i64 0, metadata !485), !dbg !487 ; [debug line = 1821:147@1855:9@34:7] [debug variable = inner_index.V]
  %tmp = zext i3 %inner_index_V_2 to i32, !dbg !734 ; [#uses=2 type=i32] [debug line = 37:15]
  %tmp_cast = zext i3 %inner_index_V_2 to i22, !dbg !734 ; [#uses=1 type=i22] [debug line = 37:15]
  %tmp_1 = mul i22 %tmp_cast, 307200, !dbg !734   ; [#uses=1 type=i22] [debug line = 37:15]
  %offset_cast = call i19 @_ssdm_op_PartSelect.i19.i22.i32.i32(i22 %tmp_1, i32 3, i32 21), !dbg !734 ; [#uses=1 type=i19] [debug line = 37:15]
  br label %1, !dbg !735                          ; [debug line = 38:15]

; <label>:1                                       ; preds = %3, %0
  %offset1 = phi i19 [ %offset_cast, %0 ], [ %offset, %3 ] ; [#uses=2 type=i19]
  %i = phi i7 [ 0, %0 ], [ %i_1, %3 ]             ; [#uses=2 type=i7]
  %exitcond1 = icmp eq i7 %i, -53, !dbg !735      ; [#uses=1 type=i1] [debug line = 38:15]
  %empty = call i32 (...)* @_ssdm_op_SpecLoopTripCount(i64 75, i64 75, i64 75) ; [#uses=0 type=i32]
  %i_1 = add i7 %i, 1, !dbg !737                  ; [#uses=1 type=i7] [debug line = 38:36]
  br i1 %exitcond1, label %4, label %burst.rd.header.preheader, !dbg !735 ; [debug line = 38:15]

burst.rd.header.preheader:                        ; preds = %1
  %tmp_2 = zext i19 %offset1 to i64, !dbg !738    ; [#uses=1 type=i64] [debug line = 40:3]
  %base_ddr_addr_addr = getelementptr i64* %base_ddr_addr, i64 %tmp_2, !dbg !738 ; [#uses=2 type=i64*] [debug line = 40:3]
  %p_rd_req = call i1 @_ssdm_op_ReadReq.m_axi.i64P(i64* %base_ddr_addr_addr, i32 512), !dbg !738 ; [#uses=0 type=i1] [debug line = 40:3]
  br label %burst.rd.header

burst.rd.header:                                  ; preds = %burst.rd.body, %burst.rd.header.preheader
  %indvar = phi i10 [ %indvar_next, %burst.rd.body ], [ 0, %burst.rd.header.preheader ] ; [#uses=3 type=i10]
  %exitcond2 = icmp eq i10 %indvar, -512          ; [#uses=1 type=i1]
  %empty_9 = call i32 (...)* @_ssdm_op_SpecLoopTripCount(i64 512, i64 512, i64 512) ; [#uses=0 type=i32]
  %indvar_next = add i10 %indvar, 1               ; [#uses=1 type=i10]
  br i1 %exitcond2, label %burst.rd.end, label %burst.rd.body

burst.rd.body:                                    ; preds = %burst.rd.header
  %burstread_rbegin = call i32 (...)* @_ssdm_op_SpecRegionBegin([17 x i8]* @burstread_OC_region_str) nounwind ; [#uses=1 type=i32]
  call void (...)* @_ssdm_op_SpecPipeline(i32 1, i32 1, i32 1, i32 0, [1 x i8]* @p_str6)
  %empty_10 = call i32 (...)* @_ssdm_op_SpecLoopName([28 x i8]* @memcpy_OC_buffer_OC_base_ddr_a) nounwind ; [#uses=0 type=i32]
  %base_ddr_addr_addr_read = call i64 @_ssdm_op_Read.m_axi.i64P(i64* %base_ddr_addr_addr), !dbg !738 ; [#uses=1 type=i64] [debug line = 40:3]
  %tmp_7 = zext i10 %indvar to i64, !dbg !738     ; [#uses=1 type=i64] [debug line = 40:3]
  %buffer_addr = getelementptr [512 x i64]* %buffer, i64 0, i64 %tmp_7, !dbg !738 ; [#uses=1 type=i64*] [debug line = 40:3]
  store i64 %base_ddr_addr_addr_read, i64* %buffer_addr, align 8, !dbg !738 ; [debug line = 40:3]
  %burstread_rend = call i32 (...)* @_ssdm_op_SpecRegionEnd([17 x i8]* @burstread_OC_region_str, i32 %burstread_rbegin) nounwind ; [#uses=0 type=i32]
  br label %burst.rd.header

burst.rd.end:                                     ; preds = %2, %burst.rd.header
  %j = phi i13 [ %j_1, %2 ], [ 0, %burst.rd.header ] ; [#uses=4 type=i13]
  %exitcond = icmp eq i13 %j, -4096, !dbg !740    ; [#uses=1 type=i1] [debug line = 41:16]
  %j_1 = add i13 %j, 1, !dbg !742                 ; [#uses=1 type=i13] [debug line = 41:47]
  br i1 %exitcond, label %3, label %2, !dbg !740  ; [debug line = 41:16]

; <label>:2                                       ; preds = %burst.rd.end
  %empty_11 = call i32 (...)* @_ssdm_op_SpecLoopTripCount(i64 4096, i64 4096, i64 4096) ; [#uses=0 type=i32]
  %tmp_9 = call i32 (...)* @_ssdm_op_SpecRegionBegin([12 x i8]* @p_str5), !dbg !743 ; [#uses=1 type=i32] [debug line = 42:4]
  call void (...)* @_ssdm_op_SpecPipeline(i32 1, i32 1, i32 1, i32 0, [1 x i8]* @p_str1) nounwind, !dbg !745 ; [debug line = 43:1]
  %tmp_6 = trunc i13 %j to i3                     ; [#uses=1 type=i3]
  call void @llvm.dbg.value(metadata !{i8* %outStream_V}, i64 0, metadata !746), !dbg !751 ; [debug line = 144:48@44:2] [debug variable = stream<unsigned char>.V]
  %gepindex_cast = call i9 @_ssdm_op_PartSelect.i9.i13.i32.i32(i13 %j, i32 3, i32 11) ; [#uses=1 type=i9]
  %gepindex2_cast = zext i9 %gepindex_cast to i64 ; [#uses=1 type=i64]
  %buffer_addr_1 = getelementptr [512 x i64]* %buffer, i64 0, i64 %gepindex2_cast ; [#uses=1 type=i64*]
  %buffer_load = load i64* %buffer_addr_1, align 8 ; [#uses=2 type=i64]
  %start_pos = call i6 @_ssdm_op_BitConcatenate.i6.i3.i3(i3 %tmp_6, i3 0) ; [#uses=3 type=i6]
  %end_pos = or i6 %start_pos, 7                  ; [#uses=2 type=i6]
  %tmp_8 = icmp ugt i6 %start_pos, %end_pos       ; [#uses=3 type=i1]
  %tmp_10 = zext i6 %start_pos to i7              ; [#uses=4 type=i7]
  %tmp_11 = zext i6 %end_pos to i7                ; [#uses=2 type=i7]
  %tmp_12 = call i64 @llvm.part.select.i64(i64 %buffer_load, i32 63, i32 0) ; [#uses=1 type=i64]
  %tmp_13 = sub i7 %tmp_10, %tmp_11               ; [#uses=1 type=i7]
  %tmp_14 = xor i7 %tmp_10, 63                    ; [#uses=1 type=i7]
  %tmp_15 = sub i7 %tmp_11, %tmp_10               ; [#uses=1 type=i7]
  %tmp_16 = select i1 %tmp_8, i7 %tmp_13, i7 %tmp_15 ; [#uses=1 type=i7]
  %tmp_17 = select i1 %tmp_8, i64 %tmp_12, i64 %buffer_load ; [#uses=1 type=i64]
  %tmp_18 = select i1 %tmp_8, i7 %tmp_14, i7 %tmp_10 ; [#uses=1 type=i7]
  %tmp_19 = sub i7 63, %tmp_16                    ; [#uses=1 type=i7]
  %tmp_20 = zext i7 %tmp_18 to i64                ; [#uses=1 type=i64]
  %tmp_21 = zext i7 %tmp_19 to i64                ; [#uses=1 type=i64]
  %tmp_22 = lshr i64 %tmp_17, %tmp_20             ; [#uses=1 type=i64]
  %tmp_23 = lshr i64 -1, %tmp_21                  ; [#uses=1 type=i64]
  %tmp_24 = and i64 %tmp_22, %tmp_23              ; [#uses=1 type=i64]
  %tmp_25 = trunc i64 %tmp_24 to i8               ; [#uses=1 type=i8]
  call void @llvm.dbg.value(metadata !{i8 %tmp_25}, i64 0, metadata !753), !dbg !755 ; [debug line = 145:31@44:2] [debug variable = tmp]
  call void @_ssdm_op_Write.axis.volatile.i8P(i8* %outStream_V, i8 %tmp_25), !dbg !756 ; [debug line = 146:9@44:2]
  %empty_12 = call i32 (...)* @_ssdm_op_SpecRegionEnd([12 x i8]* @p_str5, i32 %tmp_9), !dbg !757 ; [#uses=0 type=i32] [debug line = 45:3]
  call void @llvm.dbg.value(metadata !{i13 %j_1}, i64 0, metadata !758), !dbg !742 ; [debug line = 41:47] [debug variable = j]
  br label %burst.rd.end, !dbg !742               ; [debug line = 41:47]

; <label>:3                                       ; preds = %burst.rd.end
  %offset = add i19 %offset1, 512, !dbg !759      ; [#uses=1 type=i19] [debug line = 46:3]
  call void @llvm.dbg.value(metadata !{i19 %offset}, i64 0, metadata !760), !dbg !759 ; [debug line = 46:3] [debug variable = offset]
  call void @llvm.dbg.value(metadata !{i7 %i_1}, i64 0, metadata !761), !dbg !737 ; [debug line = 38:36] [debug variable = i]
  br label %1, !dbg !737                          ; [debug line = 38:36]

; <label>:4                                       ; preds = %1
  %frame_count_inner_load = load i32* @frame_count_inner, align 4, !dbg !762 ; [#uses=1 type=i32] [debug line = 49:2]
  %tmp_3 = add nsw i32 %frame_count_inner_load, 1, !dbg !762 ; [#uses=2 type=i32] [debug line = 49:2]
  store i32 %tmp_3, i32* @frame_count_inner, align 4, !dbg !762 ; [debug line = 49:2]
  call void @_ssdm_op_Write.ap_none.i32P(i32* %frame_count, i32 %tmp_3), !dbg !763 ; [debug line = 50:2]
  %index_old_load = load i32* @index_old, align 4, !dbg !764 ; [#uses=1 type=i32] [debug line = 52:6]
  call void @llvm.dbg.value(metadata !{i32 %index_old_load}, i64 0, metadata !765), !dbg !770 ; [debug line = 3524:0@52:6] [debug variable = op2]
  call void @llvm.dbg.value(metadata !{i32 %index_old_load}, i64 0, metadata !771), !dbg !1295 ; [debug line = 1464:68@3524:0@52:6] [debug variable = op]
  call void @llvm.dbg.value(metadata !{i32 %index_old_load}, i64 0, metadata !1298), !dbg !1300 ; [debug line = 1464:68@1464:88@3524:0@52:6] [debug variable = op]
  %tmp_4 = icmp eq i32 %tmp, %index_old_load, !dbg !1302 ; [#uses=1 type=i1] [debug line = 1975:9@3524:0@52:6]
  br i1 %tmp_4, label %5, label %._crit_edge, !dbg !764 ; [debug line = 52:6]

; <label>:5                                       ; preds = %4
  %frame_count_equals_inner_load = load i32* @frame_count_equals_inner, align 4, !dbg !1307 ; [#uses=1 type=i32] [debug line = 54:3]
  %tmp_5 = add nsw i32 %frame_count_equals_inner_load, 1, !dbg !1307 ; [#uses=2 type=i32] [debug line = 54:3]
  store i32 %tmp_5, i32* @frame_count_equals_inner, align 4, !dbg !1307 ; [debug line = 54:3]
  call void @_ssdm_op_Write.ap_none.i32P(i32* %frame_count_equals, i32 %tmp_5), !dbg !1309 ; [debug line = 55:3]
  br label %._crit_edge, !dbg !1310               ; [debug line = 56:2]

._crit_edge:                                      ; preds = %5, %4
  store i32 %tmp, i32* @index_old, align 4, !dbg !1311 ; [debug line = 58:14]
  ret void, !dbg !1312                            ; [debug line = 61:1]
}

; [#uses=1]
define weak void @_ssdm_op_Write.axis.volatile.i8P(i8*, i8) {
entry:
  store i8 %1, i8* %0
  ret void
}

; [#uses=2]
define weak void @_ssdm_op_Write.ap_none.i32P(i32*, i32) {
entry:
  store i32 %1, i32* %0
  ret void
}

; [#uses=1]
define weak void @_ssdm_op_SpecTopModule(...) {
entry:
  ret void
}

; [#uses=3]
define weak void @_ssdm_op_SpecReset(...) nounwind {
entry:
  ret void
}

; [#uses=2]
define weak i32 @_ssdm_op_SpecRegionEnd(...) {
entry:
  ret i32 0
}

; [#uses=2]
define weak i32 @_ssdm_op_SpecRegionBegin(...) {
entry:
  ret i32 0
}

; [#uses=2]
define weak void @_ssdm_op_SpecPipeline(...) nounwind {
entry:
  ret void
}

; [#uses=1]
define weak void @_ssdm_op_SpecMemCore(...) {
entry:
  ret void
}

; [#uses=3]
define weak i32 @_ssdm_op_SpecLoopTripCount(...) {
entry:
  ret i32 0
}

; [#uses=1]
define weak i32 @_ssdm_op_SpecLoopName(...) {
entry:
  ret i32 0
}

; [#uses=5]
define weak void @_ssdm_op_SpecInterface(...) nounwind {
entry:
  ret void
}

; [#uses=5]
define weak void @_ssdm_op_SpecBitsMap(...) {
entry:
  ret void
}

; [#uses=1]
define weak i1 @_ssdm_op_ReadReq.m_axi.i64P(i64*, i32) {
entry:
  ret i1 true
}

; [#uses=1]
define weak i64 @_ssdm_op_Read.m_axi.i64P(i64*) {
entry:
  %empty = load i64* %0                           ; [#uses=1 type=i64]
  ret i64 %empty
}

; [#uses=1]
define weak i3 @_ssdm_op_Read.ap_none.i3P(i3*) {
entry:
  %empty = load i3* %0                            ; [#uses=1 type=i3]
  ret i3 %empty
}

; [#uses=1]
define weak i9 @_ssdm_op_PartSelect.i9.i13.i32.i32(i13, i32, i32) nounwind readnone {
entry:
  %empty = call i13 @llvm.part.select.i13(i13 %0, i32 %1, i32 %2) ; [#uses=1 type=i13]
  %empty_13 = trunc i13 %empty to i9              ; [#uses=1 type=i9]
  ret i9 %empty_13
}

; [#uses=0]
declare i8 @_ssdm_op_PartSelect.i8.i64.i32.i32(i64, i32, i32) nounwind readnone

; [#uses=0]
declare i3 @_ssdm_op_PartSelect.i3.i13.i32.i32(i13, i32, i32) nounwind readnone

; [#uses=1]
define weak i19 @_ssdm_op_PartSelect.i19.i22.i32.i32(i22, i32, i32) nounwind readnone {
entry:
  %empty = call i22 @llvm.part.select.i22(i22 %0, i32 %1, i32 %2) ; [#uses=1 type=i22]
  %empty_14 = trunc i22 %empty to i19             ; [#uses=1 type=i19]
  ret i19 %empty_14
}

; [#uses=0]
declare i16 @_ssdm_op_HSub(...)

; [#uses=0]
declare i16 @_ssdm_op_HMul(...)

; [#uses=0]
declare i16 @_ssdm_op_HDiv(...)

; [#uses=0]
declare i16 @_ssdm_op_HAdd(...)

; [#uses=1]
define weak i6 @_ssdm_op_BitConcatenate.i6.i3.i3(i3, i3) nounwind readnone {
entry:
  %empty = zext i3 %0 to i6                       ; [#uses=1 type=i6]
  %empty_15 = zext i3 %1 to i6                    ; [#uses=1 type=i6]
  %empty_16 = shl i6 %empty, 3                    ; [#uses=1 type=i6]
  %empty_17 = or i6 %empty_16, %empty_15          ; [#uses=1 type=i6]
  ret i6 %empty_17
}

; [#uses=1]
declare void @_GLOBAL__I_a() nounwind

!hls.encrypted.func = !{}
!llvm.map.gv = !{!0}

!0 = metadata !{metadata !1, [1 x i32]* @llvm_global_ctors_0}
!1 = metadata !{metadata !2}
!2 = metadata !{i32 0, i32 31, metadata !3}
!3 = metadata !{metadata !4}
!4 = metadata !{metadata !"llvm.global_ctors.0", metadata !5, metadata !"", i32 0, i32 31}
!5 = metadata !{metadata !6}
!6 = metadata !{i32 0, i32 0, i32 1}
!7 = metadata !{metadata !8}
!8 = metadata !{i32 0, i32 7, metadata !9}
!9 = metadata !{metadata !10}
!10 = metadata !{metadata !"outStream.V", metadata !5, metadata !"unsigned char", i32 0, i32 7}
!11 = metadata !{metadata !12}
!12 = metadata !{i32 0, i32 63, metadata !13}
!13 = metadata !{metadata !14}
!14 = metadata !{metadata !"base_ddr_addr", metadata !15, metadata !"long long unsigned int", i32 0, i32 63}
!15 = metadata !{metadata !16}
!16 = metadata !{i32 0, i32 127, i32 1}
!17 = metadata !{metadata !18}
!18 = metadata !{i32 0, i32 2, metadata !19}
!19 = metadata !{metadata !20}
!20 = metadata !{metadata !"frame_index.V", metadata !5, metadata !"uint3", i32 0, i32 2}
!21 = metadata !{metadata !22}
!22 = metadata !{i32 0, i32 31, metadata !23}
!23 = metadata !{metadata !24}
!24 = metadata !{metadata !"frame_count", metadata !5, metadata !"unsigned int", i32 0, i32 31}
!25 = metadata !{metadata !26}
!26 = metadata !{i32 0, i32 31, metadata !27}
!27 = metadata !{metadata !28}
!28 = metadata !{metadata !"frame_count_equals", metadata !5, metadata !"unsigned int", i32 0, i32 31}
!29 = metadata !{i32 790531, metadata !30, metadata !"outStream.V", null, i32 9, metadata !442, i32 0, i32 0} ; [ DW_TAG_arg_variable_field ]
!30 = metadata !{i32 786689, metadata !31, metadata !"outStream", metadata !32, i32 16777225, metadata !35, i32 0, i32 0} ; [ DW_TAG_arg_variable ]
!31 = metadata !{i32 786478, i32 0, metadata !32, metadata !"ddr_to_axis_reader", metadata !"ddr_to_axis_reader", metadata !"_Z18ddr_to_axis_readerRN3hls6streamIhEEPVyP7ap_uintILi3EEPjS8_", metadata !32, i32 9, metadata !33, i1 false, i1 true, i32 0, i32 0, null, i32 256, i1 false, null, null, null, metadata !46, i32 11} ; [ DW_TAG_subprogram ]
!32 = metadata !{i32 786473, metadata !"DDR_TO_AXIS_READER_VGA64/ddr_to_axis_reader.cpp", metadata !"c:/Users/Riccardo/Documents/HLS_COMMON/DDR", null} ; [ DW_TAG_file_type ]
!33 = metadata !{i32 786453, i32 0, metadata !"", i32 0, i32 0, i64 0, i64 0, i64 0, i32 0, null, metadata !34, i32 0, i32 0} ; [ DW_TAG_subroutine_type ]
!34 = metadata !{null, metadata !35, metadata !94, metadata !98, metadata !441, metadata !441}
!35 = metadata !{i32 786448, null, null, null, i32 0, i64 0, i64 0, i64 0, i32 0, metadata !36} ; [ DW_TAG_reference_type ]
!36 = metadata !{i32 786434, metadata !37, metadata !"stream<unsigned char>", metadata !38, i32 79, i64 8, i64 8, i32 0, i32 0, null, metadata !39, i32 0, null, metadata !92} ; [ DW_TAG_class_type ]
!37 = metadata !{i32 786489, null, metadata !"hls", metadata !38, i32 69} ; [ DW_TAG_namespace ]
!38 = metadata !{i32 786473, metadata !"C:/Xilinx/Vivado_HLS/2015.4/common/technology/autopilot\5Chls_stream.h", metadata !"c:/Users/Riccardo/Documents/HLS_COMMON/DDR", null} ; [ DW_TAG_file_type ]
!39 = metadata !{metadata !40, metadata !42, metadata !48, metadata !54, metadata !59, metadata !62, metadata !66, metadata !71, metadata !76, metadata !77, metadata !78, metadata !81, metadata !84, metadata !85, metadata !88}
!40 = metadata !{i32 786445, metadata !36, metadata !"V", metadata !38, i32 163, i64 8, i64 8, i64 0, i32 1, metadata !41} ; [ DW_TAG_member ]
!41 = metadata !{i32 786468, null, metadata !"unsigned char", null, i32 0, i64 8, i64 8, i64 0, i32 0, i32 8} ; [ DW_TAG_base_type ]
!42 = metadata !{i32 786478, i32 0, metadata !36, metadata !"stream", metadata !"stream", metadata !"", metadata !38, i32 83, metadata !43, i1 false, i1 false, i32 0, i32 0, null, i32 256, i1 false, null, null, i32 0, metadata !46, i32 83} ; [ DW_TAG_subprogram ]
!43 = metadata !{i32 786453, i32 0, metadata !"", i32 0, i32 0, i64 0, i64 0, i64 0, i32 0, null, metadata !44, i32 0, i32 0} ; [ DW_TAG_subroutine_type ]
!44 = metadata !{null, metadata !45}
!45 = metadata !{i32 786447, i32 0, metadata !"", i32 0, i32 0, i64 64, i64 64, i64 0, i32 64, metadata !36} ; [ DW_TAG_pointer_type ]
!46 = metadata !{metadata !47}
!47 = metadata !{i32 786468}                      ; [ DW_TAG_base_type ]
!48 = metadata !{i32 786478, i32 0, metadata !36, metadata !"stream", metadata !"stream", metadata !"", metadata !38, i32 86, metadata !49, i1 false, i1 false, i32 0, i32 0, null, i32 256, i1 false, null, null, i32 0, metadata !46, i32 86} ; [ DW_TAG_subprogram ]
!49 = metadata !{i32 786453, i32 0, metadata !"", i32 0, i32 0, i64 0, i64 0, i64 0, i32 0, null, metadata !50, i32 0, i32 0} ; [ DW_TAG_subroutine_type ]
!50 = metadata !{null, metadata !45, metadata !51}
!51 = metadata !{i32 786447, null, metadata !"", null, i32 0, i64 64, i64 64, i64 0, i32 0, metadata !52} ; [ DW_TAG_pointer_type ]
!52 = metadata !{i32 786470, null, metadata !"", null, i32 0, i64 0, i64 0, i64 0, i32 0, metadata !53} ; [ DW_TAG_const_type ]
!53 = metadata !{i32 786468, null, metadata !"char", null, i32 0, i64 8, i64 8, i64 0, i32 0, i32 6} ; [ DW_TAG_base_type ]
!54 = metadata !{i32 786478, i32 0, metadata !36, metadata !"stream", metadata !"stream", metadata !"", metadata !38, i32 91, metadata !55, i1 false, i1 false, i32 0, i32 0, null, i32 257, i1 false, null, null, i32 0, metadata !46, i32 91} ; [ DW_TAG_subprogram ]
!55 = metadata !{i32 786453, i32 0, metadata !"", i32 0, i32 0, i64 0, i64 0, i64 0, i32 0, null, metadata !56, i32 0, i32 0} ; [ DW_TAG_subroutine_type ]
!56 = metadata !{null, metadata !45, metadata !57}
!57 = metadata !{i32 786448, null, null, null, i32 0, i64 0, i64 0, i64 0, i32 0, metadata !58} ; [ DW_TAG_reference_type ]
!58 = metadata !{i32 786470, null, metadata !"", null, i32 0, i64 0, i64 0, i64 0, i32 0, metadata !36} ; [ DW_TAG_const_type ]
!59 = metadata !{i32 786478, i32 0, metadata !36, metadata !"operator=", metadata !"operator=", metadata !"_ZN3hls6streamIhEaSERKS1_", metadata !38, i32 94, metadata !60, i1 false, i1 false, i32 0, i32 0, null, i32 257, i1 false, null, null, i32 0, metadata !46, i32 94} ; [ DW_TAG_subprogram ]
!60 = metadata !{i32 786453, i32 0, metadata !"", i32 0, i32 0, i64 0, i64 0, i64 0, i32 0, null, metadata !61, i32 0, i32 0} ; [ DW_TAG_subroutine_type ]
!61 = metadata !{metadata !35, metadata !45, metadata !57}
!62 = metadata !{i32 786478, i32 0, metadata !36, metadata !"operator>>", metadata !"operator>>", metadata !"_ZN3hls6streamIhErsERh", metadata !38, i32 101, metadata !63, i1 false, i1 false, i32 0, i32 0, null, i32 256, i1 false, null, null, i32 0, metadata !46, i32 101} ; [ DW_TAG_subprogram ]
!63 = metadata !{i32 786453, i32 0, metadata !"", i32 0, i32 0, i64 0, i64 0, i64 0, i32 0, null, metadata !64, i32 0, i32 0} ; [ DW_TAG_subroutine_type ]
!64 = metadata !{null, metadata !45, metadata !65}
!65 = metadata !{i32 786448, null, null, null, i32 0, i64 0, i64 0, i64 0, i32 0, metadata !41} ; [ DW_TAG_reference_type ]
!66 = metadata !{i32 786478, i32 0, metadata !36, metadata !"operator<<", metadata !"operator<<", metadata !"_ZN3hls6streamIhElsERKh", metadata !38, i32 105, metadata !67, i1 false, i1 false, i32 0, i32 0, null, i32 256, i1 false, null, null, i32 0, metadata !46, i32 105} ; [ DW_TAG_subprogram ]
!67 = metadata !{i32 786453, i32 0, metadata !"", i32 0, i32 0, i64 0, i64 0, i64 0, i32 0, null, metadata !68, i32 0, i32 0} ; [ DW_TAG_subroutine_type ]
!68 = metadata !{null, metadata !45, metadata !69}
!69 = metadata !{i32 786448, null, null, null, i32 0, i64 0, i64 0, i64 0, i32 0, metadata !70} ; [ DW_TAG_reference_type ]
!70 = metadata !{i32 786470, null, metadata !"", null, i32 0, i64 0, i64 0, i64 0, i32 0, metadata !41} ; [ DW_TAG_const_type ]
!71 = metadata !{i32 786478, i32 0, metadata !36, metadata !"empty", metadata !"empty", metadata !"_ZNK3hls6streamIhE5emptyEv", metadata !38, i32 112, metadata !72, i1 false, i1 false, i32 0, i32 0, null, i32 256, i1 false, null, null, i32 0, metadata !46, i32 112} ; [ DW_TAG_subprogram ]
!72 = metadata !{i32 786453, i32 0, metadata !"", i32 0, i32 0, i64 0, i64 0, i64 0, i32 0, null, metadata !73, i32 0, i32 0} ; [ DW_TAG_subroutine_type ]
!73 = metadata !{metadata !74, metadata !75}
!74 = metadata !{i32 786468, null, metadata !"bool", null, i32 0, i64 8, i64 8, i64 0, i32 0, i32 2} ; [ DW_TAG_base_type ]
!75 = metadata !{i32 786447, i32 0, metadata !"", i32 0, i32 0, i64 64, i64 64, i64 0, i32 64, metadata !58} ; [ DW_TAG_pointer_type ]
!76 = metadata !{i32 786478, i32 0, metadata !36, metadata !"full", metadata !"full", metadata !"_ZNK3hls6streamIhE4fullEv", metadata !38, i32 117, metadata !72, i1 false, i1 false, i32 0, i32 0, null, i32 256, i1 false, null, null, i32 0, metadata !46, i32 117} ; [ DW_TAG_subprogram ]
!77 = metadata !{i32 786478, i32 0, metadata !36, metadata !"read", metadata !"read", metadata !"_ZN3hls6streamIhE4readERh", metadata !38, i32 123, metadata !63, i1 false, i1 false, i32 0, i32 0, null, i32 256, i1 false, null, null, i32 0, metadata !46, i32 123} ; [ DW_TAG_subprogram ]
!78 = metadata !{i32 786478, i32 0, metadata !36, metadata !"read", metadata !"read", metadata !"_ZN3hls6streamIhE4readEv", metadata !38, i32 129, metadata !79, i1 false, i1 false, i32 0, i32 0, null, i32 256, i1 false, null, null, i32 0, metadata !46, i32 129} ; [ DW_TAG_subprogram ]
!79 = metadata !{i32 786453, i32 0, metadata !"", i32 0, i32 0, i64 0, i64 0, i64 0, i32 0, null, metadata !80, i32 0, i32 0} ; [ DW_TAG_subroutine_type ]
!80 = metadata !{metadata !41, metadata !45}
!81 = metadata !{i32 786478, i32 0, metadata !36, metadata !"read_nb", metadata !"read_nb", metadata !"_ZN3hls6streamIhE7read_nbERh", metadata !38, i32 136, metadata !82, i1 false, i1 false, i32 0, i32 0, null, i32 256, i1 false, null, null, i32 0, metadata !46, i32 136} ; [ DW_TAG_subprogram ]
!82 = metadata !{i32 786453, i32 0, metadata !"", i32 0, i32 0, i64 0, i64 0, i64 0, i32 0, null, metadata !83, i32 0, i32 0} ; [ DW_TAG_subroutine_type ]
!83 = metadata !{metadata !74, metadata !45, metadata !65}
!84 = metadata !{i32 786478, i32 0, metadata !36, metadata !"write", metadata !"write", metadata !"_ZN3hls6streamIhE5writeERKh", metadata !38, i32 144, metadata !67, i1 false, i1 false, i32 0, i32 0, null, i32 256, i1 false, null, null, i32 0, metadata !46, i32 144} ; [ DW_TAG_subprogram ]
!85 = metadata !{i32 786478, i32 0, metadata !36, metadata !"write_nb", metadata !"write_nb", metadata !"_ZN3hls6streamIhE8write_nbERKh", metadata !38, i32 150, metadata !86, i1 false, i1 false, i32 0, i32 0, null, i32 256, i1 false, null, null, i32 0, metadata !46, i32 150} ; [ DW_TAG_subprogram ]
!86 = metadata !{i32 786453, i32 0, metadata !"", i32 0, i32 0, i64 0, i64 0, i64 0, i32 0, null, metadata !87, i32 0, i32 0} ; [ DW_TAG_subroutine_type ]
!87 = metadata !{metadata !74, metadata !45, metadata !69}
!88 = metadata !{i32 786478, i32 0, metadata !36, metadata !"size", metadata !"size", metadata !"_ZN3hls6streamIhE4sizeEv", metadata !38, i32 157, metadata !89, i1 false, i1 false, i32 0, i32 0, null, i32 256, i1 false, null, null, i32 0, metadata !46, i32 157} ; [ DW_TAG_subprogram ]
!89 = metadata !{i32 786453, i32 0, metadata !"", i32 0, i32 0, i64 0, i64 0, i64 0, i32 0, null, metadata !90, i32 0, i32 0} ; [ DW_TAG_subroutine_type ]
!90 = metadata !{metadata !91, metadata !45}
!91 = metadata !{i32 786468, null, metadata !"unsigned int", null, i32 0, i64 32, i64 32, i64 0, i32 0, i32 7} ; [ DW_TAG_base_type ]
!92 = metadata !{metadata !93}
!93 = metadata !{i32 786479, null, metadata !"__STREAM_T__", metadata !41, null, i32 0, i32 0} ; [ DW_TAG_template_type_parameter ]
!94 = metadata !{i32 786447, null, metadata !"", null, i32 0, i64 64, i64 64, i64 0, i32 0, metadata !95} ; [ DW_TAG_pointer_type ]
!95 = metadata !{i32 786485, null, metadata !"", null, i32 0, i64 0, i64 0, i64 0, i32 0, metadata !96} ; [ DW_TAG_volatile_type ]
!96 = metadata !{i32 786454, null, metadata !"u64", metadata !32, i32 20, i64 0, i64 0, i64 0, i32 0, metadata !97} ; [ DW_TAG_typedef ]
!97 = metadata !{i32 786468, null, metadata !"long long unsigned int", null, i32 0, i64 64, i64 64, i64 0, i32 0, i32 7} ; [ DW_TAG_base_type ]
!98 = metadata !{i32 786447, null, metadata !"", null, i32 0, i64 64, i64 64, i64 0, i32 0, metadata !99} ; [ DW_TAG_pointer_type ]
!99 = metadata !{i32 786434, null, metadata !"ap_uint<3>", metadata !100, i32 180, i64 8, i64 8, i32 0, i32 0, null, metadata !101, i32 0, null, metadata !440} ; [ DW_TAG_class_type ]
!100 = metadata !{i32 786473, metadata !"C:/Xilinx/Vivado_HLS/2015.4/common/technology/autopilot\5Cap_int.h", metadata !"c:/Users/Riccardo/Documents/HLS_COMMON/DDR", null} ; [ DW_TAG_file_type ]
!101 = metadata !{metadata !102, metadata !371, metadata !375, metadata !378, metadata !381, metadata !384, metadata !387, metadata !390, metadata !393, metadata !396, metadata !399, metadata !402, metadata !405, metadata !408, metadata !411, metadata !414, metadata !417, metadata !420, metadata !427, metadata !432, metadata !436, metadata !439}
!102 = metadata !{i32 786460, metadata !99, null, metadata !100, i32 0, i64 0, i64 0, i64 0, i32 0, metadata !103} ; [ DW_TAG_inheritance ]
!103 = metadata !{i32 786434, null, metadata !"ap_int_base<3, false, true>", metadata !104, i32 1396, i64 8, i64 8, i32 0, i32 0, null, metadata !105, i32 0, null, metadata !368} ; [ DW_TAG_class_type ]
!104 = metadata !{i32 786473, metadata !"C:/Xilinx/Vivado_HLS/2015.4/common/technology/autopilot/ap_int_syn.h", metadata !"c:/Users/Riccardo/Documents/HLS_COMMON/DDR", null} ; [ DW_TAG_file_type ]
!105 = metadata !{metadata !106, metadata !120, metadata !124, metadata !132, metadata !138, metadata !141, metadata !145, metadata !148, metadata !152, metadata !156, metadata !159, metadata !162, metadata !166, metadata !170, metadata !175, metadata !179, metadata !183, metadata !187, metadata !190, metadata !193, metadata !197, metadata !200, metadata !203, metadata !204, metadata !208, metadata !211, metadata !214, metadata !217, metadata !220, metadata !223, metadata !226, metadata !229, metadata !232, metadata !235, metadata !238, metadata !241, metadata !251, metadata !254, metadata !255, metadata !256, metadata !257, metadata !258, metadata !261, metadata !264, metadata !267, metadata !270, metadata !273, metadata !276, metadata !279, metadata !280, metadata !284, metadata !287, metadata !288, metadata !289, metadata !290, metadata !291, metadata !292, metadata !295, metadata !296, metadata !299, metadata !300, metadata !301, metadata !302, metadata !303, metadata !304, metadata !307, metadata !308, metadata !309, metadata !312, metadata !313, metadata !316, metadata !317, metadata !321, metadata !325, metadata !326, metadata !329, metadata !330, metadata !334, metadata !335, metadata !336, metadata !337, metadata !340, metadata !341, metadata !342, metadata !343, metadata !344, metadata !345, metadata !346, metadata !347, metadata !348, metadata !349, metadata !350, metadata !351, metadata !361, metadata !364, metadata !367}
!106 = metadata !{i32 786460, metadata !103, null, metadata !104, i32 0, i64 0, i64 0, i64 0, i32 0, metadata !107} ; [ DW_TAG_inheritance ]
!107 = metadata !{i32 786434, null, metadata !"ssdm_int<3 + 1024 * 0, false>", metadata !108, i32 5, i64 8, i64 8, i32 0, i32 0, null, metadata !109, i32 0, null, metadata !116} ; [ DW_TAG_class_type ]
!108 = metadata !{i32 786473, metadata !"C:/Xilinx/Vivado_HLS/2015.4/common/technology/autopilot/etc/autopilot_dt.def", metadata !"c:/Users/Riccardo/Documents/HLS_COMMON/DDR", null} ; [ DW_TAG_file_type ]
!109 = metadata !{metadata !110, metadata !112}
!110 = metadata !{i32 786445, metadata !107, metadata !"V", metadata !108, i32 5, i64 3, i64 4, i64 0, i32 0, metadata !111} ; [ DW_TAG_member ]
!111 = metadata !{i32 786468, null, metadata !"uint3", null, i32 0, i64 3, i64 4, i64 0, i32 0, i32 7} ; [ DW_TAG_base_type ]
!112 = metadata !{i32 786478, i32 0, metadata !107, metadata !"ssdm_int", metadata !"ssdm_int", metadata !"", metadata !108, i32 5, metadata !113, i1 false, i1 false, i32 0, i32 0, null, i32 256, i1 false, null, null, i32 0, metadata !46, i32 5} ; [ DW_TAG_subprogram ]
!113 = metadata !{i32 786453, i32 0, metadata !"", i32 0, i32 0, i64 0, i64 0, i64 0, i32 0, null, metadata !114, i32 0, i32 0} ; [ DW_TAG_subroutine_type ]
!114 = metadata !{null, metadata !115}
!115 = metadata !{i32 786447, i32 0, metadata !"", i32 0, i32 0, i64 64, i64 64, i64 0, i32 64, metadata !107} ; [ DW_TAG_pointer_type ]
!116 = metadata !{metadata !117, metadata !119}
!117 = metadata !{i32 786480, null, metadata !"_AP_N", metadata !118, i64 3, null, i32 0, i32 0} ; [ DW_TAG_template_value_parameter ]
!118 = metadata !{i32 786468, null, metadata !"int", null, i32 0, i64 32, i64 32, i64 0, i32 0, i32 5} ; [ DW_TAG_base_type ]
!119 = metadata !{i32 786480, null, metadata !"_AP_S", metadata !74, i64 0, null, i32 0, i32 0} ; [ DW_TAG_template_value_parameter ]
!120 = metadata !{i32 786478, i32 0, metadata !103, metadata !"ap_int_base", metadata !"ap_int_base", metadata !"", metadata !104, i32 1437, metadata !121, i1 false, i1 false, i32 0, i32 0, null, i32 256, i1 false, null, null, i32 0, metadata !46, i32 1437} ; [ DW_TAG_subprogram ]
!121 = metadata !{i32 786453, i32 0, metadata !"", i32 0, i32 0, i64 0, i64 0, i64 0, i32 0, null, metadata !122, i32 0, i32 0} ; [ DW_TAG_subroutine_type ]
!122 = metadata !{null, metadata !123}
!123 = metadata !{i32 786447, i32 0, metadata !"", i32 0, i32 0, i64 64, i64 64, i64 0, i32 64, metadata !103} ; [ DW_TAG_pointer_type ]
!124 = metadata !{i32 786478, i32 0, metadata !103, metadata !"ap_int_base<3, false>", metadata !"ap_int_base<3, false>", metadata !"", metadata !104, i32 1449, metadata !125, i1 false, i1 false, i32 0, i32 0, null, i32 256, i1 false, null, metadata !129, i32 0, metadata !46, i32 1449} ; [ DW_TAG_subprogram ]
!125 = metadata !{i32 786453, i32 0, metadata !"", i32 0, i32 0, i64 0, i64 0, i64 0, i32 0, null, metadata !126, i32 0, i32 0} ; [ DW_TAG_subroutine_type ]
!126 = metadata !{null, metadata !123, metadata !127}
!127 = metadata !{i32 786448, null, null, null, i32 0, i64 0, i64 0, i64 0, i32 0, metadata !128} ; [ DW_TAG_reference_type ]
!128 = metadata !{i32 786470, null, metadata !"", null, i32 0, i64 0, i64 0, i64 0, i32 0, metadata !103} ; [ DW_TAG_const_type ]
!129 = metadata !{metadata !130, metadata !131}
!130 = metadata !{i32 786480, null, metadata !"_AP_W2", metadata !118, i64 3, null, i32 0, i32 0} ; [ DW_TAG_template_value_parameter ]
!131 = metadata !{i32 786480, null, metadata !"_AP_S2", metadata !74, i64 0, null, i32 0, i32 0} ; [ DW_TAG_template_value_parameter ]
!132 = metadata !{i32 786478, i32 0, metadata !103, metadata !"ap_int_base<3, false>", metadata !"ap_int_base<3, false>", metadata !"", metadata !104, i32 1452, metadata !133, i1 false, i1 false, i32 0, i32 0, null, i32 256, i1 false, null, metadata !129, i32 0, metadata !46, i32 1452} ; [ DW_TAG_subprogram ]
!133 = metadata !{i32 786453, i32 0, metadata !"", i32 0, i32 0, i64 0, i64 0, i64 0, i32 0, null, metadata !134, i32 0, i32 0} ; [ DW_TAG_subroutine_type ]
!134 = metadata !{null, metadata !123, metadata !135}
!135 = metadata !{i32 786448, null, null, null, i32 0, i64 0, i64 0, i64 0, i32 0, metadata !136} ; [ DW_TAG_reference_type ]
!136 = metadata !{i32 786470, null, metadata !"", null, i32 0, i64 0, i64 0, i64 0, i32 0, metadata !137} ; [ DW_TAG_const_type ]
!137 = metadata !{i32 786485, null, metadata !"", null, i32 0, i64 0, i64 0, i64 0, i32 0, metadata !103} ; [ DW_TAG_volatile_type ]
!138 = metadata !{i32 786478, i32 0, metadata !103, metadata !"ap_int_base", metadata !"ap_int_base", metadata !"", metadata !104, i32 1459, metadata !139, i1 false, i1 false, i32 0, i32 0, null, i32 384, i1 false, null, null, i32 0, metadata !46, i32 1459} ; [ DW_TAG_subprogram ]
!139 = metadata !{i32 786453, i32 0, metadata !"", i32 0, i32 0, i64 0, i64 0, i64 0, i32 0, null, metadata !140, i32 0, i32 0} ; [ DW_TAG_subroutine_type ]
!140 = metadata !{null, metadata !123, metadata !74}
!141 = metadata !{i32 786478, i32 0, metadata !103, metadata !"ap_int_base", metadata !"ap_int_base", metadata !"", metadata !104, i32 1460, metadata !142, i1 false, i1 false, i32 0, i32 0, null, i32 384, i1 false, null, null, i32 0, metadata !46, i32 1460} ; [ DW_TAG_subprogram ]
!142 = metadata !{i32 786453, i32 0, metadata !"", i32 0, i32 0, i64 0, i64 0, i64 0, i32 0, null, metadata !143, i32 0, i32 0} ; [ DW_TAG_subroutine_type ]
!143 = metadata !{null, metadata !123, metadata !144}
!144 = metadata !{i32 786468, null, metadata !"signed char", null, i32 0, i64 8, i64 8, i64 0, i32 0, i32 6} ; [ DW_TAG_base_type ]
!145 = metadata !{i32 786478, i32 0, metadata !103, metadata !"ap_int_base", metadata !"ap_int_base", metadata !"", metadata !104, i32 1461, metadata !146, i1 false, i1 false, i32 0, i32 0, null, i32 384, i1 false, null, null, i32 0, metadata !46, i32 1461} ; [ DW_TAG_subprogram ]
!146 = metadata !{i32 786453, i32 0, metadata !"", i32 0, i32 0, i64 0, i64 0, i64 0, i32 0, null, metadata !147, i32 0, i32 0} ; [ DW_TAG_subroutine_type ]
!147 = metadata !{null, metadata !123, metadata !41}
!148 = metadata !{i32 786478, i32 0, metadata !103, metadata !"ap_int_base", metadata !"ap_int_base", metadata !"", metadata !104, i32 1462, metadata !149, i1 false, i1 false, i32 0, i32 0, null, i32 384, i1 false, null, null, i32 0, metadata !46, i32 1462} ; [ DW_TAG_subprogram ]
!149 = metadata !{i32 786453, i32 0, metadata !"", i32 0, i32 0, i64 0, i64 0, i64 0, i32 0, null, metadata !150, i32 0, i32 0} ; [ DW_TAG_subroutine_type ]
!150 = metadata !{null, metadata !123, metadata !151}
!151 = metadata !{i32 786468, null, metadata !"short", null, i32 0, i64 16, i64 16, i64 0, i32 0, i32 5} ; [ DW_TAG_base_type ]
!152 = metadata !{i32 786478, i32 0, metadata !103, metadata !"ap_int_base", metadata !"ap_int_base", metadata !"", metadata !104, i32 1463, metadata !153, i1 false, i1 false, i32 0, i32 0, null, i32 384, i1 false, null, null, i32 0, metadata !46, i32 1463} ; [ DW_TAG_subprogram ]
!153 = metadata !{i32 786453, i32 0, metadata !"", i32 0, i32 0, i64 0, i64 0, i64 0, i32 0, null, metadata !154, i32 0, i32 0} ; [ DW_TAG_subroutine_type ]
!154 = metadata !{null, metadata !123, metadata !155}
!155 = metadata !{i32 786468, null, metadata !"unsigned short", null, i32 0, i64 16, i64 16, i64 0, i32 0, i32 7} ; [ DW_TAG_base_type ]
!156 = metadata !{i32 786478, i32 0, metadata !103, metadata !"ap_int_base", metadata !"ap_int_base", metadata !"", metadata !104, i32 1464, metadata !157, i1 false, i1 false, i32 0, i32 0, null, i32 384, i1 false, null, null, i32 0, metadata !46, i32 1464} ; [ DW_TAG_subprogram ]
!157 = metadata !{i32 786453, i32 0, metadata !"", i32 0, i32 0, i64 0, i64 0, i64 0, i32 0, null, metadata !158, i32 0, i32 0} ; [ DW_TAG_subroutine_type ]
!158 = metadata !{null, metadata !123, metadata !118}
!159 = metadata !{i32 786478, i32 0, metadata !103, metadata !"ap_int_base", metadata !"ap_int_base", metadata !"", metadata !104, i32 1465, metadata !160, i1 false, i1 false, i32 0, i32 0, null, i32 384, i1 false, null, null, i32 0, metadata !46, i32 1465} ; [ DW_TAG_subprogram ]
!160 = metadata !{i32 786453, i32 0, metadata !"", i32 0, i32 0, i64 0, i64 0, i64 0, i32 0, null, metadata !161, i32 0, i32 0} ; [ DW_TAG_subroutine_type ]
!161 = metadata !{null, metadata !123, metadata !91}
!162 = metadata !{i32 786478, i32 0, metadata !103, metadata !"ap_int_base", metadata !"ap_int_base", metadata !"", metadata !104, i32 1466, metadata !163, i1 false, i1 false, i32 0, i32 0, null, i32 384, i1 false, null, null, i32 0, metadata !46, i32 1466} ; [ DW_TAG_subprogram ]
!163 = metadata !{i32 786453, i32 0, metadata !"", i32 0, i32 0, i64 0, i64 0, i64 0, i32 0, null, metadata !164, i32 0, i32 0} ; [ DW_TAG_subroutine_type ]
!164 = metadata !{null, metadata !123, metadata !165}
!165 = metadata !{i32 786468, null, metadata !"long int", null, i32 0, i64 32, i64 32, i64 0, i32 0, i32 5} ; [ DW_TAG_base_type ]
!166 = metadata !{i32 786478, i32 0, metadata !103, metadata !"ap_int_base", metadata !"ap_int_base", metadata !"", metadata !104, i32 1467, metadata !167, i1 false, i1 false, i32 0, i32 0, null, i32 384, i1 false, null, null, i32 0, metadata !46, i32 1467} ; [ DW_TAG_subprogram ]
!167 = metadata !{i32 786453, i32 0, metadata !"", i32 0, i32 0, i64 0, i64 0, i64 0, i32 0, null, metadata !168, i32 0, i32 0} ; [ DW_TAG_subroutine_type ]
!168 = metadata !{null, metadata !123, metadata !169}
!169 = metadata !{i32 786468, null, metadata !"long unsigned int", null, i32 0, i64 32, i64 32, i64 0, i32 0, i32 7} ; [ DW_TAG_base_type ]
!170 = metadata !{i32 786478, i32 0, metadata !103, metadata !"ap_int_base", metadata !"ap_int_base", metadata !"", metadata !104, i32 1468, metadata !171, i1 false, i1 false, i32 0, i32 0, null, i32 384, i1 false, null, null, i32 0, metadata !46, i32 1468} ; [ DW_TAG_subprogram ]
!171 = metadata !{i32 786453, i32 0, metadata !"", i32 0, i32 0, i64 0, i64 0, i64 0, i32 0, null, metadata !172, i32 0, i32 0} ; [ DW_TAG_subroutine_type ]
!172 = metadata !{null, metadata !123, metadata !173}
!173 = metadata !{i32 786454, null, metadata !"ap_slong", metadata !104, i32 110, i64 0, i64 0, i64 0, i32 0, metadata !174} ; [ DW_TAG_typedef ]
!174 = metadata !{i32 786468, null, metadata !"long long int", null, i32 0, i64 64, i64 64, i64 0, i32 0, i32 5} ; [ DW_TAG_base_type ]
!175 = metadata !{i32 786478, i32 0, metadata !103, metadata !"ap_int_base", metadata !"ap_int_base", metadata !"", metadata !104, i32 1469, metadata !176, i1 false, i1 false, i32 0, i32 0, null, i32 384, i1 false, null, null, i32 0, metadata !46, i32 1469} ; [ DW_TAG_subprogram ]
!176 = metadata !{i32 786453, i32 0, metadata !"", i32 0, i32 0, i64 0, i64 0, i64 0, i32 0, null, metadata !177, i32 0, i32 0} ; [ DW_TAG_subroutine_type ]
!177 = metadata !{null, metadata !123, metadata !178}
!178 = metadata !{i32 786454, null, metadata !"ap_ulong", metadata !104, i32 109, i64 0, i64 0, i64 0, i32 0, metadata !97} ; [ DW_TAG_typedef ]
!179 = metadata !{i32 786478, i32 0, metadata !103, metadata !"ap_int_base", metadata !"ap_int_base", metadata !"", metadata !104, i32 1470, metadata !180, i1 false, i1 false, i32 0, i32 0, null, i32 384, i1 false, null, null, i32 0, metadata !46, i32 1470} ; [ DW_TAG_subprogram ]
!180 = metadata !{i32 786453, i32 0, metadata !"", i32 0, i32 0, i64 0, i64 0, i64 0, i32 0, null, metadata !181, i32 0, i32 0} ; [ DW_TAG_subroutine_type ]
!181 = metadata !{null, metadata !123, metadata !182}
!182 = metadata !{i32 786468, null, metadata !"float", null, i32 0, i64 32, i64 32, i64 0, i32 0, i32 4} ; [ DW_TAG_base_type ]
!183 = metadata !{i32 786478, i32 0, metadata !103, metadata !"ap_int_base", metadata !"ap_int_base", metadata !"", metadata !104, i32 1471, metadata !184, i1 false, i1 false, i32 0, i32 0, null, i32 384, i1 false, null, null, i32 0, metadata !46, i32 1471} ; [ DW_TAG_subprogram ]
!184 = metadata !{i32 786453, i32 0, metadata !"", i32 0, i32 0, i64 0, i64 0, i64 0, i32 0, null, metadata !185, i32 0, i32 0} ; [ DW_TAG_subroutine_type ]
!185 = metadata !{null, metadata !123, metadata !186}
!186 = metadata !{i32 786468, null, metadata !"double", null, i32 0, i64 64, i64 64, i64 0, i32 0, i32 4} ; [ DW_TAG_base_type ]
!187 = metadata !{i32 786478, i32 0, metadata !103, metadata !"ap_int_base", metadata !"ap_int_base", metadata !"", metadata !104, i32 1498, metadata !188, i1 false, i1 false, i32 0, i32 0, null, i32 256, i1 false, null, null, i32 0, metadata !46, i32 1498} ; [ DW_TAG_subprogram ]
!188 = metadata !{i32 786453, i32 0, metadata !"", i32 0, i32 0, i64 0, i64 0, i64 0, i32 0, null, metadata !189, i32 0, i32 0} ; [ DW_TAG_subroutine_type ]
!189 = metadata !{null, metadata !123, metadata !51}
!190 = metadata !{i32 786478, i32 0, metadata !103, metadata !"ap_int_base", metadata !"ap_int_base", metadata !"", metadata !104, i32 1505, metadata !191, i1 false, i1 false, i32 0, i32 0, null, i32 256, i1 false, null, null, i32 0, metadata !46, i32 1505} ; [ DW_TAG_subprogram ]
!191 = metadata !{i32 786453, i32 0, metadata !"", i32 0, i32 0, i64 0, i64 0, i64 0, i32 0, null, metadata !192, i32 0, i32 0} ; [ DW_TAG_subroutine_type ]
!192 = metadata !{null, metadata !123, metadata !51, metadata !144}
!193 = metadata !{i32 786478, i32 0, metadata !103, metadata !"read", metadata !"read", metadata !"_ZNV11ap_int_baseILi3ELb0ELb1EE4readEv", metadata !104, i32 1526, metadata !194, i1 false, i1 false, i32 0, i32 0, null, i32 256, i1 false, null, null, i32 0, metadata !46, i32 1526} ; [ DW_TAG_subprogram ]
!194 = metadata !{i32 786453, i32 0, metadata !"", i32 0, i32 0, i64 0, i64 0, i64 0, i32 0, null, metadata !195, i32 0, i32 0} ; [ DW_TAG_subroutine_type ]
!195 = metadata !{metadata !103, metadata !196}
!196 = metadata !{i32 786447, i32 0, metadata !"", i32 0, i32 0, i64 64, i64 64, i64 0, i32 64, metadata !137} ; [ DW_TAG_pointer_type ]
!197 = metadata !{i32 786478, i32 0, metadata !103, metadata !"write", metadata !"write", metadata !"_ZNV11ap_int_baseILi3ELb0ELb1EE5writeERKS0_", metadata !104, i32 1532, metadata !198, i1 false, i1 false, i32 0, i32 0, null, i32 256, i1 false, null, null, i32 0, metadata !46, i32 1532} ; [ DW_TAG_subprogram ]
!198 = metadata !{i32 786453, i32 0, metadata !"", i32 0, i32 0, i64 0, i64 0, i64 0, i32 0, null, metadata !199, i32 0, i32 0} ; [ DW_TAG_subroutine_type ]
!199 = metadata !{null, metadata !196, metadata !127}
!200 = metadata !{i32 786478, i32 0, metadata !103, metadata !"operator=", metadata !"operator=", metadata !"_ZNV11ap_int_baseILi3ELb0ELb1EEaSERVKS0_", metadata !104, i32 1544, metadata !201, i1 false, i1 false, i32 0, i32 0, null, i32 256, i1 false, null, null, i32 0, metadata !46, i32 1544} ; [ DW_TAG_subprogram ]
!201 = metadata !{i32 786453, i32 0, metadata !"", i32 0, i32 0, i64 0, i64 0, i64 0, i32 0, null, metadata !202, i32 0, i32 0} ; [ DW_TAG_subroutine_type ]
!202 = metadata !{null, metadata !196, metadata !135}
!203 = metadata !{i32 786478, i32 0, metadata !103, metadata !"operator=", metadata !"operator=", metadata !"_ZNV11ap_int_baseILi3ELb0ELb1EEaSERKS0_", metadata !104, i32 1553, metadata !198, i1 false, i1 false, i32 0, i32 0, null, i32 256, i1 false, null, null, i32 0, metadata !46, i32 1553} ; [ DW_TAG_subprogram ]
!204 = metadata !{i32 786478, i32 0, metadata !103, metadata !"operator=", metadata !"operator=", metadata !"_ZN11ap_int_baseILi3ELb0ELb1EEaSERVKS0_", metadata !104, i32 1576, metadata !205, i1 false, i1 false, i32 0, i32 0, null, i32 256, i1 false, null, null, i32 0, metadata !46, i32 1576} ; [ DW_TAG_subprogram ]
!205 = metadata !{i32 786453, i32 0, metadata !"", i32 0, i32 0, i64 0, i64 0, i64 0, i32 0, null, metadata !206, i32 0, i32 0} ; [ DW_TAG_subroutine_type ]
!206 = metadata !{metadata !207, metadata !123, metadata !135}
!207 = metadata !{i32 786448, null, null, null, i32 0, i64 0, i64 0, i64 0, i32 0, metadata !103} ; [ DW_TAG_reference_type ]
!208 = metadata !{i32 786478, i32 0, metadata !103, metadata !"operator=", metadata !"operator=", metadata !"_ZN11ap_int_baseILi3ELb0ELb1EEaSERKS0_", metadata !104, i32 1581, metadata !209, i1 false, i1 false, i32 0, i32 0, null, i32 256, i1 false, null, null, i32 0, metadata !46, i32 1581} ; [ DW_TAG_subprogram ]
!209 = metadata !{i32 786453, i32 0, metadata !"", i32 0, i32 0, i64 0, i64 0, i64 0, i32 0, null, metadata !210, i32 0, i32 0} ; [ DW_TAG_subroutine_type ]
!210 = metadata !{metadata !207, metadata !123, metadata !127}
!211 = metadata !{i32 786478, i32 0, metadata !103, metadata !"operator=", metadata !"operator=", metadata !"_ZN11ap_int_baseILi3ELb0ELb1EEaSEPKc", metadata !104, i32 1585, metadata !212, i1 false, i1 false, i32 0, i32 0, null, i32 256, i1 false, null, null, i32 0, metadata !46, i32 1585} ; [ DW_TAG_subprogram ]
!212 = metadata !{i32 786453, i32 0, metadata !"", i32 0, i32 0, i64 0, i64 0, i64 0, i32 0, null, metadata !213, i32 0, i32 0} ; [ DW_TAG_subroutine_type ]
!213 = metadata !{metadata !207, metadata !123, metadata !51}
!214 = metadata !{i32 786478, i32 0, metadata !103, metadata !"set", metadata !"set", metadata !"_ZN11ap_int_baseILi3ELb0ELb1EE3setEPKca", metadata !104, i32 1593, metadata !215, i1 false, i1 false, i32 0, i32 0, null, i32 256, i1 false, null, null, i32 0, metadata !46, i32 1593} ; [ DW_TAG_subprogram ]
!215 = metadata !{i32 786453, i32 0, metadata !"", i32 0, i32 0, i64 0, i64 0, i64 0, i32 0, null, metadata !216, i32 0, i32 0} ; [ DW_TAG_subroutine_type ]
!216 = metadata !{metadata !207, metadata !123, metadata !51, metadata !144}
!217 = metadata !{i32 786478, i32 0, metadata !103, metadata !"operator=", metadata !"operator=", metadata !"_ZN11ap_int_baseILi3ELb0ELb1EEaSEc", metadata !104, i32 1607, metadata !218, i1 false, i1 false, i32 0, i32 0, null, i32 256, i1 false, null, null, i32 0, metadata !46, i32 1607} ; [ DW_TAG_subprogram ]
!218 = metadata !{i32 786453, i32 0, metadata !"", i32 0, i32 0, i64 0, i64 0, i64 0, i32 0, null, metadata !219, i32 0, i32 0} ; [ DW_TAG_subroutine_type ]
!219 = metadata !{metadata !207, metadata !123, metadata !53}
!220 = metadata !{i32 786478, i32 0, metadata !103, metadata !"operator=", metadata !"operator=", metadata !"_ZN11ap_int_baseILi3ELb0ELb1EEaSEh", metadata !104, i32 1608, metadata !221, i1 false, i1 false, i32 0, i32 0, null, i32 256, i1 false, null, null, i32 0, metadata !46, i32 1608} ; [ DW_TAG_subprogram ]
!221 = metadata !{i32 786453, i32 0, metadata !"", i32 0, i32 0, i64 0, i64 0, i64 0, i32 0, null, metadata !222, i32 0, i32 0} ; [ DW_TAG_subroutine_type ]
!222 = metadata !{metadata !207, metadata !123, metadata !41}
!223 = metadata !{i32 786478, i32 0, metadata !103, metadata !"operator=", metadata !"operator=", metadata !"_ZN11ap_int_baseILi3ELb0ELb1EEaSEs", metadata !104, i32 1609, metadata !224, i1 false, i1 false, i32 0, i32 0, null, i32 256, i1 false, null, null, i32 0, metadata !46, i32 1609} ; [ DW_TAG_subprogram ]
!224 = metadata !{i32 786453, i32 0, metadata !"", i32 0, i32 0, i64 0, i64 0, i64 0, i32 0, null, metadata !225, i32 0, i32 0} ; [ DW_TAG_subroutine_type ]
!225 = metadata !{metadata !207, metadata !123, metadata !151}
!226 = metadata !{i32 786478, i32 0, metadata !103, metadata !"operator=", metadata !"operator=", metadata !"_ZN11ap_int_baseILi3ELb0ELb1EEaSEt", metadata !104, i32 1610, metadata !227, i1 false, i1 false, i32 0, i32 0, null, i32 256, i1 false, null, null, i32 0, metadata !46, i32 1610} ; [ DW_TAG_subprogram ]
!227 = metadata !{i32 786453, i32 0, metadata !"", i32 0, i32 0, i64 0, i64 0, i64 0, i32 0, null, metadata !228, i32 0, i32 0} ; [ DW_TAG_subroutine_type ]
!228 = metadata !{metadata !207, metadata !123, metadata !155}
!229 = metadata !{i32 786478, i32 0, metadata !103, metadata !"operator=", metadata !"operator=", metadata !"_ZN11ap_int_baseILi3ELb0ELb1EEaSEi", metadata !104, i32 1611, metadata !230, i1 false, i1 false, i32 0, i32 0, null, i32 256, i1 false, null, null, i32 0, metadata !46, i32 1611} ; [ DW_TAG_subprogram ]
!230 = metadata !{i32 786453, i32 0, metadata !"", i32 0, i32 0, i64 0, i64 0, i64 0, i32 0, null, metadata !231, i32 0, i32 0} ; [ DW_TAG_subroutine_type ]
!231 = metadata !{metadata !207, metadata !123, metadata !118}
!232 = metadata !{i32 786478, i32 0, metadata !103, metadata !"operator=", metadata !"operator=", metadata !"_ZN11ap_int_baseILi3ELb0ELb1EEaSEj", metadata !104, i32 1612, metadata !233, i1 false, i1 false, i32 0, i32 0, null, i32 256, i1 false, null, null, i32 0, metadata !46, i32 1612} ; [ DW_TAG_subprogram ]
!233 = metadata !{i32 786453, i32 0, metadata !"", i32 0, i32 0, i64 0, i64 0, i64 0, i32 0, null, metadata !234, i32 0, i32 0} ; [ DW_TAG_subroutine_type ]
!234 = metadata !{metadata !207, metadata !123, metadata !91}
!235 = metadata !{i32 786478, i32 0, metadata !103, metadata !"operator=", metadata !"operator=", metadata !"_ZN11ap_int_baseILi3ELb0ELb1EEaSEx", metadata !104, i32 1613, metadata !236, i1 false, i1 false, i32 0, i32 0, null, i32 256, i1 false, null, null, i32 0, metadata !46, i32 1613} ; [ DW_TAG_subprogram ]
!236 = metadata !{i32 786453, i32 0, metadata !"", i32 0, i32 0, i64 0, i64 0, i64 0, i32 0, null, metadata !237, i32 0, i32 0} ; [ DW_TAG_subroutine_type ]
!237 = metadata !{metadata !207, metadata !123, metadata !173}
!238 = metadata !{i32 786478, i32 0, metadata !103, metadata !"operator=", metadata !"operator=", metadata !"_ZN11ap_int_baseILi3ELb0ELb1EEaSEy", metadata !104, i32 1614, metadata !239, i1 false, i1 false, i32 0, i32 0, null, i32 256, i1 false, null, null, i32 0, metadata !46, i32 1614} ; [ DW_TAG_subprogram ]
!239 = metadata !{i32 786453, i32 0, metadata !"", i32 0, i32 0, i64 0, i64 0, i64 0, i32 0, null, metadata !240, i32 0, i32 0} ; [ DW_TAG_subroutine_type ]
!240 = metadata !{metadata !207, metadata !123, metadata !178}
!241 = metadata !{i32 786478, i32 0, metadata !103, metadata !"operator unsigned char", metadata !"operator unsigned char", metadata !"_ZNK11ap_int_baseILi3ELb0ELb1EEcvhEv", metadata !104, i32 1652, metadata !242, i1 false, i1 false, i32 0, i32 0, null, i32 256, i1 false, null, null, i32 0, metadata !46, i32 1652} ; [ DW_TAG_subprogram ]
!242 = metadata !{i32 786453, i32 0, metadata !"", i32 0, i32 0, i64 0, i64 0, i64 0, i32 0, null, metadata !243, i32 0, i32 0} ; [ DW_TAG_subroutine_type ]
!243 = metadata !{metadata !244, metadata !250}
!244 = metadata !{i32 786454, metadata !103, metadata !"RetType", metadata !104, i32 1401, i64 0, i64 0, i64 0, i32 0, metadata !245} ; [ DW_TAG_typedef ]
!245 = metadata !{i32 786454, metadata !246, metadata !"Type", metadata !104, i32 1369, i64 0, i64 0, i64 0, i32 0, metadata !41} ; [ DW_TAG_typedef ]
!246 = metadata !{i32 786434, null, metadata !"retval<1, false>", metadata !104, i32 1368, i64 8, i64 8, i32 0, i32 0, null, metadata !247, i32 0, null, metadata !248} ; [ DW_TAG_class_type ]
!247 = metadata !{i32 0}
!248 = metadata !{metadata !249, metadata !119}
!249 = metadata !{i32 786480, null, metadata !"_AP_N", metadata !118, i64 1, null, i32 0, i32 0} ; [ DW_TAG_template_value_parameter ]
!250 = metadata !{i32 786447, i32 0, metadata !"", i32 0, i32 0, i64 64, i64 64, i64 0, i32 64, metadata !128} ; [ DW_TAG_pointer_type ]
!251 = metadata !{i32 786478, i32 0, metadata !103, metadata !"to_bool", metadata !"to_bool", metadata !"_ZNK11ap_int_baseILi3ELb0ELb1EE7to_boolEv", metadata !104, i32 1658, metadata !252, i1 false, i1 false, i32 0, i32 0, null, i32 256, i1 false, null, null, i32 0, metadata !46, i32 1658} ; [ DW_TAG_subprogram ]
!252 = metadata !{i32 786453, i32 0, metadata !"", i32 0, i32 0, i64 0, i64 0, i64 0, i32 0, null, metadata !253, i32 0, i32 0} ; [ DW_TAG_subroutine_type ]
!253 = metadata !{metadata !74, metadata !250}
!254 = metadata !{i32 786478, i32 0, metadata !103, metadata !"to_uchar", metadata !"to_uchar", metadata !"_ZNK11ap_int_baseILi3ELb0ELb1EE8to_ucharEv", metadata !104, i32 1659, metadata !252, i1 false, i1 false, i32 0, i32 0, null, i32 256, i1 false, null, null, i32 0, metadata !46, i32 1659} ; [ DW_TAG_subprogram ]
!255 = metadata !{i32 786478, i32 0, metadata !103, metadata !"to_char", metadata !"to_char", metadata !"_ZNK11ap_int_baseILi3ELb0ELb1EE7to_charEv", metadata !104, i32 1660, metadata !252, i1 false, i1 false, i32 0, i32 0, null, i32 256, i1 false, null, null, i32 0, metadata !46, i32 1660} ; [ DW_TAG_subprogram ]
!256 = metadata !{i32 786478, i32 0, metadata !103, metadata !"to_ushort", metadata !"to_ushort", metadata !"_ZNK11ap_int_baseILi3ELb0ELb1EE9to_ushortEv", metadata !104, i32 1661, metadata !252, i1 false, i1 false, i32 0, i32 0, null, i32 256, i1 false, null, null, i32 0, metadata !46, i32 1661} ; [ DW_TAG_subprogram ]
!257 = metadata !{i32 786478, i32 0, metadata !103, metadata !"to_short", metadata !"to_short", metadata !"_ZNK11ap_int_baseILi3ELb0ELb1EE8to_shortEv", metadata !104, i32 1662, metadata !252, i1 false, i1 false, i32 0, i32 0, null, i32 256, i1 false, null, null, i32 0, metadata !46, i32 1662} ; [ DW_TAG_subprogram ]
!258 = metadata !{i32 786478, i32 0, metadata !103, metadata !"to_int", metadata !"to_int", metadata !"_ZNK11ap_int_baseILi3ELb0ELb1EE6to_intEv", metadata !104, i32 1663, metadata !259, i1 false, i1 false, i32 0, i32 0, null, i32 256, i1 false, null, null, i32 0, metadata !46, i32 1663} ; [ DW_TAG_subprogram ]
!259 = metadata !{i32 786453, i32 0, metadata !"", i32 0, i32 0, i64 0, i64 0, i64 0, i32 0, null, metadata !260, i32 0, i32 0} ; [ DW_TAG_subroutine_type ]
!260 = metadata !{metadata !118, metadata !250}
!261 = metadata !{i32 786478, i32 0, metadata !103, metadata !"to_uint", metadata !"to_uint", metadata !"_ZNK11ap_int_baseILi3ELb0ELb1EE7to_uintEv", metadata !104, i32 1664, metadata !262, i1 false, i1 false, i32 0, i32 0, null, i32 256, i1 false, null, null, i32 0, metadata !46, i32 1664} ; [ DW_TAG_subprogram ]
!262 = metadata !{i32 786453, i32 0, metadata !"", i32 0, i32 0, i64 0, i64 0, i64 0, i32 0, null, metadata !263, i32 0, i32 0} ; [ DW_TAG_subroutine_type ]
!263 = metadata !{metadata !91, metadata !250}
!264 = metadata !{i32 786478, i32 0, metadata !103, metadata !"to_long", metadata !"to_long", metadata !"_ZNK11ap_int_baseILi3ELb0ELb1EE7to_longEv", metadata !104, i32 1665, metadata !265, i1 false, i1 false, i32 0, i32 0, null, i32 256, i1 false, null, null, i32 0, metadata !46, i32 1665} ; [ DW_TAG_subprogram ]
!265 = metadata !{i32 786453, i32 0, metadata !"", i32 0, i32 0, i64 0, i64 0, i64 0, i32 0, null, metadata !266, i32 0, i32 0} ; [ DW_TAG_subroutine_type ]
!266 = metadata !{metadata !165, metadata !250}
!267 = metadata !{i32 786478, i32 0, metadata !103, metadata !"to_ulong", metadata !"to_ulong", metadata !"_ZNK11ap_int_baseILi3ELb0ELb1EE8to_ulongEv", metadata !104, i32 1666, metadata !268, i1 false, i1 false, i32 0, i32 0, null, i32 256, i1 false, null, null, i32 0, metadata !46, i32 1666} ; [ DW_TAG_subprogram ]
!268 = metadata !{i32 786453, i32 0, metadata !"", i32 0, i32 0, i64 0, i64 0, i64 0, i32 0, null, metadata !269, i32 0, i32 0} ; [ DW_TAG_subroutine_type ]
!269 = metadata !{metadata !169, metadata !250}
!270 = metadata !{i32 786478, i32 0, metadata !103, metadata !"to_int64", metadata !"to_int64", metadata !"_ZNK11ap_int_baseILi3ELb0ELb1EE8to_int64Ev", metadata !104, i32 1667, metadata !271, i1 false, i1 false, i32 0, i32 0, null, i32 256, i1 false, null, null, i32 0, metadata !46, i32 1667} ; [ DW_TAG_subprogram ]
!271 = metadata !{i32 786453, i32 0, metadata !"", i32 0, i32 0, i64 0, i64 0, i64 0, i32 0, null, metadata !272, i32 0, i32 0} ; [ DW_TAG_subroutine_type ]
!272 = metadata !{metadata !173, metadata !250}
!273 = metadata !{i32 786478, i32 0, metadata !103, metadata !"to_uint64", metadata !"to_uint64", metadata !"_ZNK11ap_int_baseILi3ELb0ELb1EE9to_uint64Ev", metadata !104, i32 1668, metadata !274, i1 false, i1 false, i32 0, i32 0, null, i32 256, i1 false, null, null, i32 0, metadata !46, i32 1668} ; [ DW_TAG_subprogram ]
!274 = metadata !{i32 786453, i32 0, metadata !"", i32 0, i32 0, i64 0, i64 0, i64 0, i32 0, null, metadata !275, i32 0, i32 0} ; [ DW_TAG_subroutine_type ]
!275 = metadata !{metadata !178, metadata !250}
!276 = metadata !{i32 786478, i32 0, metadata !103, metadata !"to_double", metadata !"to_double", metadata !"_ZNK11ap_int_baseILi3ELb0ELb1EE9to_doubleEv", metadata !104, i32 1669, metadata !277, i1 false, i1 false, i32 0, i32 0, null, i32 256, i1 false, null, null, i32 0, metadata !46, i32 1669} ; [ DW_TAG_subprogram ]
!277 = metadata !{i32 786453, i32 0, metadata !"", i32 0, i32 0, i64 0, i64 0, i64 0, i32 0, null, metadata !278, i32 0, i32 0} ; [ DW_TAG_subroutine_type ]
!278 = metadata !{metadata !186, metadata !250}
!279 = metadata !{i32 786478, i32 0, metadata !103, metadata !"length", metadata !"length", metadata !"_ZNK11ap_int_baseILi3ELb0ELb1EE6lengthEv", metadata !104, i32 1682, metadata !259, i1 false, i1 false, i32 0, i32 0, null, i32 256, i1 false, null, null, i32 0, metadata !46, i32 1682} ; [ DW_TAG_subprogram ]
!280 = metadata !{i32 786478, i32 0, metadata !103, metadata !"length", metadata !"length", metadata !"_ZNVK11ap_int_baseILi3ELb0ELb1EE6lengthEv", metadata !104, i32 1683, metadata !281, i1 false, i1 false, i32 0, i32 0, null, i32 256, i1 false, null, null, i32 0, metadata !46, i32 1683} ; [ DW_TAG_subprogram ]
!281 = metadata !{i32 786453, i32 0, metadata !"", i32 0, i32 0, i64 0, i64 0, i64 0, i32 0, null, metadata !282, i32 0, i32 0} ; [ DW_TAG_subroutine_type ]
!282 = metadata !{metadata !118, metadata !283}
!283 = metadata !{i32 786447, i32 0, metadata !"", i32 0, i32 0, i64 64, i64 64, i64 0, i32 64, metadata !136} ; [ DW_TAG_pointer_type ]
!284 = metadata !{i32 786478, i32 0, metadata !103, metadata !"reverse", metadata !"reverse", metadata !"_ZN11ap_int_baseILi3ELb0ELb1EE7reverseEv", metadata !104, i32 1688, metadata !285, i1 false, i1 false, i32 0, i32 0, null, i32 256, i1 false, null, null, i32 0, metadata !46, i32 1688} ; [ DW_TAG_subprogram ]
!285 = metadata !{i32 786453, i32 0, metadata !"", i32 0, i32 0, i64 0, i64 0, i64 0, i32 0, null, metadata !286, i32 0, i32 0} ; [ DW_TAG_subroutine_type ]
!286 = metadata !{metadata !207, metadata !123}
!287 = metadata !{i32 786478, i32 0, metadata !103, metadata !"iszero", metadata !"iszero", metadata !"_ZNK11ap_int_baseILi3ELb0ELb1EE6iszeroEv", metadata !104, i32 1694, metadata !252, i1 false, i1 false, i32 0, i32 0, null, i32 256, i1 false, null, null, i32 0, metadata !46, i32 1694} ; [ DW_TAG_subprogram ]
!288 = metadata !{i32 786478, i32 0, metadata !103, metadata !"is_zero", metadata !"is_zero", metadata !"_ZNK11ap_int_baseILi3ELb0ELb1EE7is_zeroEv", metadata !104, i32 1699, metadata !252, i1 false, i1 false, i32 0, i32 0, null, i32 256, i1 false, null, null, i32 0, metadata !46, i32 1699} ; [ DW_TAG_subprogram ]
!289 = metadata !{i32 786478, i32 0, metadata !103, metadata !"sign", metadata !"sign", metadata !"_ZNK11ap_int_baseILi3ELb0ELb1EE4signEv", metadata !104, i32 1704, metadata !252, i1 false, i1 false, i32 0, i32 0, null, i32 256, i1 false, null, null, i32 0, metadata !46, i32 1704} ; [ DW_TAG_subprogram ]
!290 = metadata !{i32 786478, i32 0, metadata !103, metadata !"clear", metadata !"clear", metadata !"_ZN11ap_int_baseILi3ELb0ELb1EE5clearEi", metadata !104, i32 1712, metadata !157, i1 false, i1 false, i32 0, i32 0, null, i32 256, i1 false, null, null, i32 0, metadata !46, i32 1712} ; [ DW_TAG_subprogram ]
!291 = metadata !{i32 786478, i32 0, metadata !103, metadata !"invert", metadata !"invert", metadata !"_ZN11ap_int_baseILi3ELb0ELb1EE6invertEi", metadata !104, i32 1718, metadata !157, i1 false, i1 false, i32 0, i32 0, null, i32 256, i1 false, null, null, i32 0, metadata !46, i32 1718} ; [ DW_TAG_subprogram ]
!292 = metadata !{i32 786478, i32 0, metadata !103, metadata !"test", metadata !"test", metadata !"_ZNK11ap_int_baseILi3ELb0ELb1EE4testEi", metadata !104, i32 1726, metadata !293, i1 false, i1 false, i32 0, i32 0, null, i32 256, i1 false, null, null, i32 0, metadata !46, i32 1726} ; [ DW_TAG_subprogram ]
!293 = metadata !{i32 786453, i32 0, metadata !"", i32 0, i32 0, i64 0, i64 0, i64 0, i32 0, null, metadata !294, i32 0, i32 0} ; [ DW_TAG_subroutine_type ]
!294 = metadata !{metadata !74, metadata !250, metadata !118}
!295 = metadata !{i32 786478, i32 0, metadata !103, metadata !"set", metadata !"set", metadata !"_ZN11ap_int_baseILi3ELb0ELb1EE3setEi", metadata !104, i32 1732, metadata !157, i1 false, i1 false, i32 0, i32 0, null, i32 256, i1 false, null, null, i32 0, metadata !46, i32 1732} ; [ DW_TAG_subprogram ]
!296 = metadata !{i32 786478, i32 0, metadata !103, metadata !"set", metadata !"set", metadata !"_ZN11ap_int_baseILi3ELb0ELb1EE3setEib", metadata !104, i32 1738, metadata !297, i1 false, i1 false, i32 0, i32 0, null, i32 256, i1 false, null, null, i32 0, metadata !46, i32 1738} ; [ DW_TAG_subprogram ]
!297 = metadata !{i32 786453, i32 0, metadata !"", i32 0, i32 0, i64 0, i64 0, i64 0, i32 0, null, metadata !298, i32 0, i32 0} ; [ DW_TAG_subroutine_type ]
!298 = metadata !{null, metadata !123, metadata !118, metadata !74}
!299 = metadata !{i32 786478, i32 0, metadata !103, metadata !"lrotate", metadata !"lrotate", metadata !"_ZN11ap_int_baseILi3ELb0ELb1EE7lrotateEi", metadata !104, i32 1745, metadata !157, i1 false, i1 false, i32 0, i32 0, null, i32 256, i1 false, null, null, i32 0, metadata !46, i32 1745} ; [ DW_TAG_subprogram ]
!300 = metadata !{i32 786478, i32 0, metadata !103, metadata !"rrotate", metadata !"rrotate", metadata !"_ZN11ap_int_baseILi3ELb0ELb1EE7rrotateEi", metadata !104, i32 1754, metadata !157, i1 false, i1 false, i32 0, i32 0, null, i32 256, i1 false, null, null, i32 0, metadata !46, i32 1754} ; [ DW_TAG_subprogram ]
!301 = metadata !{i32 786478, i32 0, metadata !103, metadata !"set_bit", metadata !"set_bit", metadata !"_ZN11ap_int_baseILi3ELb0ELb1EE7set_bitEib", metadata !104, i32 1762, metadata !297, i1 false, i1 false, i32 0, i32 0, null, i32 256, i1 false, null, null, i32 0, metadata !46, i32 1762} ; [ DW_TAG_subprogram ]
!302 = metadata !{i32 786478, i32 0, metadata !103, metadata !"get_bit", metadata !"get_bit", metadata !"_ZNK11ap_int_baseILi3ELb0ELb1EE7get_bitEi", metadata !104, i32 1767, metadata !293, i1 false, i1 false, i32 0, i32 0, null, i32 256, i1 false, null, null, i32 0, metadata !46, i32 1767} ; [ DW_TAG_subprogram ]
!303 = metadata !{i32 786478, i32 0, metadata !103, metadata !"b_not", metadata !"b_not", metadata !"_ZN11ap_int_baseILi3ELb0ELb1EE5b_notEv", metadata !104, i32 1772, metadata !121, i1 false, i1 false, i32 0, i32 0, null, i32 256, i1 false, null, null, i32 0, metadata !46, i32 1772} ; [ DW_TAG_subprogram ]
!304 = metadata !{i32 786478, i32 0, metadata !103, metadata !"countLeadingZeros", metadata !"countLeadingZeros", metadata !"_ZN11ap_int_baseILi3ELb0ELb1EE17countLeadingZerosEv", metadata !104, i32 1779, metadata !305, i1 false, i1 false, i32 0, i32 0, null, i32 256, i1 false, null, null, i32 0, metadata !46, i32 1779} ; [ DW_TAG_subprogram ]
!305 = metadata !{i32 786453, i32 0, metadata !"", i32 0, i32 0, i64 0, i64 0, i64 0, i32 0, null, metadata !306, i32 0, i32 0} ; [ DW_TAG_subroutine_type ]
!306 = metadata !{metadata !118, metadata !123}
!307 = metadata !{i32 786478, i32 0, metadata !103, metadata !"operator++", metadata !"operator++", metadata !"_ZN11ap_int_baseILi3ELb0ELb1EEppEv", metadata !104, i32 1836, metadata !285, i1 false, i1 false, i32 0, i32 0, null, i32 256, i1 false, null, null, i32 0, metadata !46, i32 1836} ; [ DW_TAG_subprogram ]
!308 = metadata !{i32 786478, i32 0, metadata !103, metadata !"operator--", metadata !"operator--", metadata !"_ZN11ap_int_baseILi3ELb0ELb1EEmmEv", metadata !104, i32 1840, metadata !285, i1 false, i1 false, i32 0, i32 0, null, i32 256, i1 false, null, null, i32 0, metadata !46, i32 1840} ; [ DW_TAG_subprogram ]
!309 = metadata !{i32 786478, i32 0, metadata !103, metadata !"operator++", metadata !"operator++", metadata !"_ZN11ap_int_baseILi3ELb0ELb1EEppEi", metadata !104, i32 1848, metadata !310, i1 false, i1 false, i32 0, i32 0, null, i32 256, i1 false, null, null, i32 0, metadata !46, i32 1848} ; [ DW_TAG_subprogram ]
!310 = metadata !{i32 786453, i32 0, metadata !"", i32 0, i32 0, i64 0, i64 0, i64 0, i32 0, null, metadata !311, i32 0, i32 0} ; [ DW_TAG_subroutine_type ]
!311 = metadata !{metadata !128, metadata !123, metadata !118}
!312 = metadata !{i32 786478, i32 0, metadata !103, metadata !"operator--", metadata !"operator--", metadata !"_ZN11ap_int_baseILi3ELb0ELb1EEmmEi", metadata !104, i32 1853, metadata !310, i1 false, i1 false, i32 0, i32 0, null, i32 256, i1 false, null, null, i32 0, metadata !46, i32 1853} ; [ DW_TAG_subprogram ]
!313 = metadata !{i32 786478, i32 0, metadata !103, metadata !"operator+", metadata !"operator+", metadata !"_ZNK11ap_int_baseILi3ELb0ELb1EEpsEv", metadata !104, i32 1862, metadata !314, i1 false, i1 false, i32 0, i32 0, null, i32 256, i1 false, null, null, i32 0, metadata !46, i32 1862} ; [ DW_TAG_subprogram ]
!314 = metadata !{i32 786453, i32 0, metadata !"", i32 0, i32 0, i64 0, i64 0, i64 0, i32 0, null, metadata !315, i32 0, i32 0} ; [ DW_TAG_subroutine_type ]
!315 = metadata !{metadata !103, metadata !250}
!316 = metadata !{i32 786478, i32 0, metadata !103, metadata !"operator!", metadata !"operator!", metadata !"_ZNK11ap_int_baseILi3ELb0ELb1EEntEv", metadata !104, i32 1868, metadata !252, i1 false, i1 false, i32 0, i32 0, null, i32 256, i1 false, null, null, i32 0, metadata !46, i32 1868} ; [ DW_TAG_subprogram ]
!317 = metadata !{i32 786478, i32 0, metadata !103, metadata !"operator-", metadata !"operator-", metadata !"_ZNK11ap_int_baseILi3ELb0ELb1EEngEv", metadata !104, i32 1873, metadata !318, i1 false, i1 false, i32 0, i32 0, null, i32 256, i1 false, null, null, i32 0, metadata !46, i32 1873} ; [ DW_TAG_subprogram ]
!318 = metadata !{i32 786453, i32 0, metadata !"", i32 0, i32 0, i64 0, i64 0, i64 0, i32 0, null, metadata !319, i32 0, i32 0} ; [ DW_TAG_subroutine_type ]
!319 = metadata !{metadata !320, metadata !250}
!320 = metadata !{i32 786434, null, metadata !"ap_int_base<4, true, true>", metadata !104, i32 649, i32 0, i32 0, i32 0, i32 4, null, null, i32 0} ; [ DW_TAG_class_type ]
!321 = metadata !{i32 786478, i32 0, metadata !103, metadata !"range", metadata !"range", metadata !"_ZN11ap_int_baseILi3ELb0ELb1EE5rangeEii", metadata !104, i32 2003, metadata !322, i1 false, i1 false, i32 0, i32 0, null, i32 256, i1 false, null, null, i32 0, metadata !46, i32 2003} ; [ DW_TAG_subprogram ]
!322 = metadata !{i32 786453, i32 0, metadata !"", i32 0, i32 0, i64 0, i64 0, i64 0, i32 0, null, metadata !323, i32 0, i32 0} ; [ DW_TAG_subroutine_type ]
!323 = metadata !{metadata !324, metadata !123, metadata !118, metadata !118}
!324 = metadata !{i32 786434, null, metadata !"ap_range_ref<3, false>", metadata !104, i32 922, i32 0, i32 0, i32 0, i32 4, null, null, i32 0} ; [ DW_TAG_class_type ]
!325 = metadata !{i32 786478, i32 0, metadata !103, metadata !"operator()", metadata !"operator()", metadata !"_ZN11ap_int_baseILi3ELb0ELb1EEclEii", metadata !104, i32 2009, metadata !322, i1 false, i1 false, i32 0, i32 0, null, i32 256, i1 false, null, null, i32 0, metadata !46, i32 2009} ; [ DW_TAG_subprogram ]
!326 = metadata !{i32 786478, i32 0, metadata !103, metadata !"range", metadata !"range", metadata !"_ZNK11ap_int_baseILi3ELb0ELb1EE5rangeEii", metadata !104, i32 2015, metadata !327, i1 false, i1 false, i32 0, i32 0, null, i32 256, i1 false, null, null, i32 0, metadata !46, i32 2015} ; [ DW_TAG_subprogram ]
!327 = metadata !{i32 786453, i32 0, metadata !"", i32 0, i32 0, i64 0, i64 0, i64 0, i32 0, null, metadata !328, i32 0, i32 0} ; [ DW_TAG_subroutine_type ]
!328 = metadata !{metadata !324, metadata !250, metadata !118, metadata !118}
!329 = metadata !{i32 786478, i32 0, metadata !103, metadata !"operator()", metadata !"operator()", metadata !"_ZNK11ap_int_baseILi3ELb0ELb1EEclEii", metadata !104, i32 2021, metadata !327, i1 false, i1 false, i32 0, i32 0, null, i32 256, i1 false, null, null, i32 0, metadata !46, i32 2021} ; [ DW_TAG_subprogram ]
!330 = metadata !{i32 786478, i32 0, metadata !103, metadata !"operator[]", metadata !"operator[]", metadata !"_ZN11ap_int_baseILi3ELb0ELb1EEixEi", metadata !104, i32 2040, metadata !331, i1 false, i1 false, i32 0, i32 0, null, i32 256, i1 false, null, null, i32 0, metadata !46, i32 2040} ; [ DW_TAG_subprogram ]
!331 = metadata !{i32 786453, i32 0, metadata !"", i32 0, i32 0, i64 0, i64 0, i64 0, i32 0, null, metadata !332, i32 0, i32 0} ; [ DW_TAG_subroutine_type ]
!332 = metadata !{metadata !333, metadata !123, metadata !118}
!333 = metadata !{i32 786434, null, metadata !"ap_bit_ref<3, false>", metadata !104, i32 1192, i32 0, i32 0, i32 0, i32 4, null, null, i32 0} ; [ DW_TAG_class_type ]
!334 = metadata !{i32 786478, i32 0, metadata !103, metadata !"operator[]", metadata !"operator[]", metadata !"_ZNK11ap_int_baseILi3ELb0ELb1EEixEi", metadata !104, i32 2054, metadata !293, i1 false, i1 false, i32 0, i32 0, null, i32 256, i1 false, null, null, i32 0, metadata !46, i32 2054} ; [ DW_TAG_subprogram ]
!335 = metadata !{i32 786478, i32 0, metadata !103, metadata !"bit", metadata !"bit", metadata !"_ZN11ap_int_baseILi3ELb0ELb1EE3bitEi", metadata !104, i32 2068, metadata !331, i1 false, i1 false, i32 0, i32 0, null, i32 256, i1 false, null, null, i32 0, metadata !46, i32 2068} ; [ DW_TAG_subprogram ]
!336 = metadata !{i32 786478, i32 0, metadata !103, metadata !"bit", metadata !"bit", metadata !"_ZNK11ap_int_baseILi3ELb0ELb1EE3bitEi", metadata !104, i32 2082, metadata !293, i1 false, i1 false, i32 0, i32 0, null, i32 256, i1 false, null, null, i32 0, metadata !46, i32 2082} ; [ DW_TAG_subprogram ]
!337 = metadata !{i32 786478, i32 0, metadata !103, metadata !"and_reduce", metadata !"and_reduce", metadata !"_ZN11ap_int_baseILi3ELb0ELb1EE10and_reduceEv", metadata !104, i32 2262, metadata !338, i1 false, i1 false, i32 0, i32 0, null, i32 256, i1 false, null, null, i32 0, metadata !46, i32 2262} ; [ DW_TAG_subprogram ]
!338 = metadata !{i32 786453, i32 0, metadata !"", i32 0, i32 0, i64 0, i64 0, i64 0, i32 0, null, metadata !339, i32 0, i32 0} ; [ DW_TAG_subroutine_type ]
!339 = metadata !{metadata !74, metadata !123}
!340 = metadata !{i32 786478, i32 0, metadata !103, metadata !"nand_reduce", metadata !"nand_reduce", metadata !"_ZN11ap_int_baseILi3ELb0ELb1EE11nand_reduceEv", metadata !104, i32 2265, metadata !338, i1 false, i1 false, i32 0, i32 0, null, i32 256, i1 false, null, null, i32 0, metadata !46, i32 2265} ; [ DW_TAG_subprogram ]
!341 = metadata !{i32 786478, i32 0, metadata !103, metadata !"or_reduce", metadata !"or_reduce", metadata !"_ZN11ap_int_baseILi3ELb0ELb1EE9or_reduceEv", metadata !104, i32 2268, metadata !338, i1 false, i1 false, i32 0, i32 0, null, i32 256, i1 false, null, null, i32 0, metadata !46, i32 2268} ; [ DW_TAG_subprogram ]
!342 = metadata !{i32 786478, i32 0, metadata !103, metadata !"nor_reduce", metadata !"nor_reduce", metadata !"_ZN11ap_int_baseILi3ELb0ELb1EE10nor_reduceEv", metadata !104, i32 2271, metadata !338, i1 false, i1 false, i32 0, i32 0, null, i32 256, i1 false, null, null, i32 0, metadata !46, i32 2271} ; [ DW_TAG_subprogram ]
!343 = metadata !{i32 786478, i32 0, metadata !103, metadata !"xor_reduce", metadata !"xor_reduce", metadata !"_ZN11ap_int_baseILi3ELb0ELb1EE10xor_reduceEv", metadata !104, i32 2274, metadata !338, i1 false, i1 false, i32 0, i32 0, null, i32 256, i1 false, null, null, i32 0, metadata !46, i32 2274} ; [ DW_TAG_subprogram ]
!344 = metadata !{i32 786478, i32 0, metadata !103, metadata !"xnor_reduce", metadata !"xnor_reduce", metadata !"_ZN11ap_int_baseILi3ELb0ELb1EE11xnor_reduceEv", metadata !104, i32 2277, metadata !338, i1 false, i1 false, i32 0, i32 0, null, i32 256, i1 false, null, null, i32 0, metadata !46, i32 2277} ; [ DW_TAG_subprogram ]
!345 = metadata !{i32 786478, i32 0, metadata !103, metadata !"and_reduce", metadata !"and_reduce", metadata !"_ZNK11ap_int_baseILi3ELb0ELb1EE10and_reduceEv", metadata !104, i32 2281, metadata !252, i1 false, i1 false, i32 0, i32 0, null, i32 256, i1 false, null, null, i32 0, metadata !46, i32 2281} ; [ DW_TAG_subprogram ]
!346 = metadata !{i32 786478, i32 0, metadata !103, metadata !"nand_reduce", metadata !"nand_reduce", metadata !"_ZNK11ap_int_baseILi3ELb0ELb1EE11nand_reduceEv", metadata !104, i32 2284, metadata !252, i1 false, i1 false, i32 0, i32 0, null, i32 256, i1 false, null, null, i32 0, metadata !46, i32 2284} ; [ DW_TAG_subprogram ]
!347 = metadata !{i32 786478, i32 0, metadata !103, metadata !"or_reduce", metadata !"or_reduce", metadata !"_ZNK11ap_int_baseILi3ELb0ELb1EE9or_reduceEv", metadata !104, i32 2287, metadata !252, i1 false, i1 false, i32 0, i32 0, null, i32 256, i1 false, null, null, i32 0, metadata !46, i32 2287} ; [ DW_TAG_subprogram ]
!348 = metadata !{i32 786478, i32 0, metadata !103, metadata !"nor_reduce", metadata !"nor_reduce", metadata !"_ZNK11ap_int_baseILi3ELb0ELb1EE10nor_reduceEv", metadata !104, i32 2290, metadata !252, i1 false, i1 false, i32 0, i32 0, null, i32 256, i1 false, null, null, i32 0, metadata !46, i32 2290} ; [ DW_TAG_subprogram ]
!349 = metadata !{i32 786478, i32 0, metadata !103, metadata !"xor_reduce", metadata !"xor_reduce", metadata !"_ZNK11ap_int_baseILi3ELb0ELb1EE10xor_reduceEv", metadata !104, i32 2293, metadata !252, i1 false, i1 false, i32 0, i32 0, null, i32 256, i1 false, null, null, i32 0, metadata !46, i32 2293} ; [ DW_TAG_subprogram ]
!350 = metadata !{i32 786478, i32 0, metadata !103, metadata !"xnor_reduce", metadata !"xnor_reduce", metadata !"_ZNK11ap_int_baseILi3ELb0ELb1EE11xnor_reduceEv", metadata !104, i32 2296, metadata !252, i1 false, i1 false, i32 0, i32 0, null, i32 256, i1 false, null, null, i32 0, metadata !46, i32 2296} ; [ DW_TAG_subprogram ]
!351 = metadata !{i32 786478, i32 0, metadata !103, metadata !"to_string", metadata !"to_string", metadata !"_ZNK11ap_int_baseILi3ELb0ELb1EE9to_stringEPci8BaseModeb", metadata !104, i32 2303, metadata !352, i1 false, i1 false, i32 0, i32 0, null, i32 256, i1 false, null, null, i32 0, metadata !46, i32 2303} ; [ DW_TAG_subprogram ]
!352 = metadata !{i32 786453, i32 0, metadata !"", i32 0, i32 0, i64 0, i64 0, i64 0, i32 0, null, metadata !353, i32 0, i32 0} ; [ DW_TAG_subroutine_type ]
!353 = metadata !{null, metadata !250, metadata !354, metadata !118, metadata !355, metadata !74}
!354 = metadata !{i32 786447, null, metadata !"", null, i32 0, i64 64, i64 64, i64 0, i32 0, metadata !53} ; [ DW_TAG_pointer_type ]
!355 = metadata !{i32 786436, null, metadata !"BaseMode", metadata !104, i32 601, i64 5, i64 8, i32 0, i32 0, null, metadata !356, i32 0, i32 0} ; [ DW_TAG_enumeration_type ]
!356 = metadata !{metadata !357, metadata !358, metadata !359, metadata !360}
!357 = metadata !{i32 786472, metadata !"SC_BIN", i64 2} ; [ DW_TAG_enumerator ]
!358 = metadata !{i32 786472, metadata !"SC_OCT", i64 8} ; [ DW_TAG_enumerator ]
!359 = metadata !{i32 786472, metadata !"SC_DEC", i64 10} ; [ DW_TAG_enumerator ]
!360 = metadata !{i32 786472, metadata !"SC_HEX", i64 16} ; [ DW_TAG_enumerator ]
!361 = metadata !{i32 786478, i32 0, metadata !103, metadata !"to_string", metadata !"to_string", metadata !"_ZNK11ap_int_baseILi3ELb0ELb1EE9to_stringE8BaseModeb", metadata !104, i32 2330, metadata !362, i1 false, i1 false, i32 0, i32 0, null, i32 256, i1 false, null, null, i32 0, metadata !46, i32 2330} ; [ DW_TAG_subprogram ]
!362 = metadata !{i32 786453, i32 0, metadata !"", i32 0, i32 0, i64 0, i64 0, i64 0, i32 0, null, metadata !363, i32 0, i32 0} ; [ DW_TAG_subroutine_type ]
!363 = metadata !{metadata !354, metadata !250, metadata !355, metadata !74}
!364 = metadata !{i32 786478, i32 0, metadata !103, metadata !"to_string", metadata !"to_string", metadata !"_ZNK11ap_int_baseILi3ELb0ELb1EE9to_stringEab", metadata !104, i32 2334, metadata !365, i1 false, i1 false, i32 0, i32 0, null, i32 256, i1 false, null, null, i32 0, metadata !46, i32 2334} ; [ DW_TAG_subprogram ]
!365 = metadata !{i32 786453, i32 0, metadata !"", i32 0, i32 0, i64 0, i64 0, i64 0, i32 0, null, metadata !366, i32 0, i32 0} ; [ DW_TAG_subroutine_type ]
!366 = metadata !{metadata !354, metadata !250, metadata !144, metadata !74}
!367 = metadata !{i32 786478, i32 0, metadata !103, metadata !"~ap_int_base", metadata !"~ap_int_base", metadata !"", metadata !104, i32 1396, metadata !121, i1 false, i1 false, i32 0, i32 0, null, i32 320, i1 false, null, null, i32 0, metadata !46, i32 1396} ; [ DW_TAG_subprogram ]
!368 = metadata !{metadata !369, metadata !119, metadata !370}
!369 = metadata !{i32 786480, null, metadata !"_AP_W", metadata !118, i64 3, null, i32 0, i32 0} ; [ DW_TAG_template_value_parameter ]
!370 = metadata !{i32 786480, null, metadata !"_AP_C", metadata !74, i64 1, null, i32 0, i32 0} ; [ DW_TAG_template_value_parameter ]
!371 = metadata !{i32 786478, i32 0, metadata !99, metadata !"ap_uint", metadata !"ap_uint", metadata !"", metadata !100, i32 183, metadata !372, i1 false, i1 false, i32 0, i32 0, null, i32 256, i1 false, null, null, i32 0, metadata !46, i32 183} ; [ DW_TAG_subprogram ]
!372 = metadata !{i32 786453, i32 0, metadata !"", i32 0, i32 0, i64 0, i64 0, i64 0, i32 0, null, metadata !373, i32 0, i32 0} ; [ DW_TAG_subroutine_type ]
!373 = metadata !{null, metadata !374}
!374 = metadata !{i32 786447, i32 0, metadata !"", i32 0, i32 0, i64 64, i64 64, i64 0, i32 64, metadata !99} ; [ DW_TAG_pointer_type ]
!375 = metadata !{i32 786478, i32 0, metadata !99, metadata !"ap_uint", metadata !"ap_uint", metadata !"", metadata !100, i32 245, metadata !376, i1 false, i1 false, i32 0, i32 0, null, i32 256, i1 false, null, null, i32 0, metadata !46, i32 245} ; [ DW_TAG_subprogram ]
!376 = metadata !{i32 786453, i32 0, metadata !"", i32 0, i32 0, i64 0, i64 0, i64 0, i32 0, null, metadata !377, i32 0, i32 0} ; [ DW_TAG_subroutine_type ]
!377 = metadata !{null, metadata !374, metadata !74}
!378 = metadata !{i32 786478, i32 0, metadata !99, metadata !"ap_uint", metadata !"ap_uint", metadata !"", metadata !100, i32 246, metadata !379, i1 false, i1 false, i32 0, i32 0, null, i32 256, i1 false, null, null, i32 0, metadata !46, i32 246} ; [ DW_TAG_subprogram ]
!379 = metadata !{i32 786453, i32 0, metadata !"", i32 0, i32 0, i64 0, i64 0, i64 0, i32 0, null, metadata !380, i32 0, i32 0} ; [ DW_TAG_subroutine_type ]
!380 = metadata !{null, metadata !374, metadata !144}
!381 = metadata !{i32 786478, i32 0, metadata !99, metadata !"ap_uint", metadata !"ap_uint", metadata !"", metadata !100, i32 247, metadata !382, i1 false, i1 false, i32 0, i32 0, null, i32 256, i1 false, null, null, i32 0, metadata !46, i32 247} ; [ DW_TAG_subprogram ]
!382 = metadata !{i32 786453, i32 0, metadata !"", i32 0, i32 0, i64 0, i64 0, i64 0, i32 0, null, metadata !383, i32 0, i32 0} ; [ DW_TAG_subroutine_type ]
!383 = metadata !{null, metadata !374, metadata !41}
!384 = metadata !{i32 786478, i32 0, metadata !99, metadata !"ap_uint", metadata !"ap_uint", metadata !"", metadata !100, i32 248, metadata !385, i1 false, i1 false, i32 0, i32 0, null, i32 256, i1 false, null, null, i32 0, metadata !46, i32 248} ; [ DW_TAG_subprogram ]
!385 = metadata !{i32 786453, i32 0, metadata !"", i32 0, i32 0, i64 0, i64 0, i64 0, i32 0, null, metadata !386, i32 0, i32 0} ; [ DW_TAG_subroutine_type ]
!386 = metadata !{null, metadata !374, metadata !151}
!387 = metadata !{i32 786478, i32 0, metadata !99, metadata !"ap_uint", metadata !"ap_uint", metadata !"", metadata !100, i32 249, metadata !388, i1 false, i1 false, i32 0, i32 0, null, i32 256, i1 false, null, null, i32 0, metadata !46, i32 249} ; [ DW_TAG_subprogram ]
!388 = metadata !{i32 786453, i32 0, metadata !"", i32 0, i32 0, i64 0, i64 0, i64 0, i32 0, null, metadata !389, i32 0, i32 0} ; [ DW_TAG_subroutine_type ]
!389 = metadata !{null, metadata !374, metadata !155}
!390 = metadata !{i32 786478, i32 0, metadata !99, metadata !"ap_uint", metadata !"ap_uint", metadata !"", metadata !100, i32 250, metadata !391, i1 false, i1 false, i32 0, i32 0, null, i32 256, i1 false, null, null, i32 0, metadata !46, i32 250} ; [ DW_TAG_subprogram ]
!391 = metadata !{i32 786453, i32 0, metadata !"", i32 0, i32 0, i64 0, i64 0, i64 0, i32 0, null, metadata !392, i32 0, i32 0} ; [ DW_TAG_subroutine_type ]
!392 = metadata !{null, metadata !374, metadata !118}
!393 = metadata !{i32 786478, i32 0, metadata !99, metadata !"ap_uint", metadata !"ap_uint", metadata !"", metadata !100, i32 251, metadata !394, i1 false, i1 false, i32 0, i32 0, null, i32 256, i1 false, null, null, i32 0, metadata !46, i32 251} ; [ DW_TAG_subprogram ]
!394 = metadata !{i32 786453, i32 0, metadata !"", i32 0, i32 0, i64 0, i64 0, i64 0, i32 0, null, metadata !395, i32 0, i32 0} ; [ DW_TAG_subroutine_type ]
!395 = metadata !{null, metadata !374, metadata !91}
!396 = metadata !{i32 786478, i32 0, metadata !99, metadata !"ap_uint", metadata !"ap_uint", metadata !"", metadata !100, i32 252, metadata !397, i1 false, i1 false, i32 0, i32 0, null, i32 256, i1 false, null, null, i32 0, metadata !46, i32 252} ; [ DW_TAG_subprogram ]
!397 = metadata !{i32 786453, i32 0, metadata !"", i32 0, i32 0, i64 0, i64 0, i64 0, i32 0, null, metadata !398, i32 0, i32 0} ; [ DW_TAG_subroutine_type ]
!398 = metadata !{null, metadata !374, metadata !165}
!399 = metadata !{i32 786478, i32 0, metadata !99, metadata !"ap_uint", metadata !"ap_uint", metadata !"", metadata !100, i32 253, metadata !400, i1 false, i1 false, i32 0, i32 0, null, i32 256, i1 false, null, null, i32 0, metadata !46, i32 253} ; [ DW_TAG_subprogram ]
!400 = metadata !{i32 786453, i32 0, metadata !"", i32 0, i32 0, i64 0, i64 0, i64 0, i32 0, null, metadata !401, i32 0, i32 0} ; [ DW_TAG_subroutine_type ]
!401 = metadata !{null, metadata !374, metadata !169}
!402 = metadata !{i32 786478, i32 0, metadata !99, metadata !"ap_uint", metadata !"ap_uint", metadata !"", metadata !100, i32 254, metadata !403, i1 false, i1 false, i32 0, i32 0, null, i32 256, i1 false, null, null, i32 0, metadata !46, i32 254} ; [ DW_TAG_subprogram ]
!403 = metadata !{i32 786453, i32 0, metadata !"", i32 0, i32 0, i64 0, i64 0, i64 0, i32 0, null, metadata !404, i32 0, i32 0} ; [ DW_TAG_subroutine_type ]
!404 = metadata !{null, metadata !374, metadata !97}
!405 = metadata !{i32 786478, i32 0, metadata !99, metadata !"ap_uint", metadata !"ap_uint", metadata !"", metadata !100, i32 255, metadata !406, i1 false, i1 false, i32 0, i32 0, null, i32 256, i1 false, null, null, i32 0, metadata !46, i32 255} ; [ DW_TAG_subprogram ]
!406 = metadata !{i32 786453, i32 0, metadata !"", i32 0, i32 0, i64 0, i64 0, i64 0, i32 0, null, metadata !407, i32 0, i32 0} ; [ DW_TAG_subroutine_type ]
!407 = metadata !{null, metadata !374, metadata !174}
!408 = metadata !{i32 786478, i32 0, metadata !99, metadata !"ap_uint", metadata !"ap_uint", metadata !"", metadata !100, i32 256, metadata !409, i1 false, i1 false, i32 0, i32 0, null, i32 256, i1 false, null, null, i32 0, metadata !46, i32 256} ; [ DW_TAG_subprogram ]
!409 = metadata !{i32 786453, i32 0, metadata !"", i32 0, i32 0, i64 0, i64 0, i64 0, i32 0, null, metadata !410, i32 0, i32 0} ; [ DW_TAG_subroutine_type ]
!410 = metadata !{null, metadata !374, metadata !182}
!411 = metadata !{i32 786478, i32 0, metadata !99, metadata !"ap_uint", metadata !"ap_uint", metadata !"", metadata !100, i32 257, metadata !412, i1 false, i1 false, i32 0, i32 0, null, i32 256, i1 false, null, null, i32 0, metadata !46, i32 257} ; [ DW_TAG_subprogram ]
!412 = metadata !{i32 786453, i32 0, metadata !"", i32 0, i32 0, i64 0, i64 0, i64 0, i32 0, null, metadata !413, i32 0, i32 0} ; [ DW_TAG_subroutine_type ]
!413 = metadata !{null, metadata !374, metadata !186}
!414 = metadata !{i32 786478, i32 0, metadata !99, metadata !"ap_uint", metadata !"ap_uint", metadata !"", metadata !100, i32 259, metadata !415, i1 false, i1 false, i32 0, i32 0, null, i32 256, i1 false, null, null, i32 0, metadata !46, i32 259} ; [ DW_TAG_subprogram ]
!415 = metadata !{i32 786453, i32 0, metadata !"", i32 0, i32 0, i64 0, i64 0, i64 0, i32 0, null, metadata !416, i32 0, i32 0} ; [ DW_TAG_subroutine_type ]
!416 = metadata !{null, metadata !374, metadata !51}
!417 = metadata !{i32 786478, i32 0, metadata !99, metadata !"ap_uint", metadata !"ap_uint", metadata !"", metadata !100, i32 260, metadata !418, i1 false, i1 false, i32 0, i32 0, null, i32 256, i1 false, null, null, i32 0, metadata !46, i32 260} ; [ DW_TAG_subprogram ]
!418 = metadata !{i32 786453, i32 0, metadata !"", i32 0, i32 0, i64 0, i64 0, i64 0, i32 0, null, metadata !419, i32 0, i32 0} ; [ DW_TAG_subroutine_type ]
!419 = metadata !{null, metadata !374, metadata !51, metadata !144}
!420 = metadata !{i32 786478, i32 0, metadata !99, metadata !"operator=", metadata !"operator=", metadata !"_ZNV7ap_uintILi3EEaSERKS0_", metadata !100, i32 263, metadata !421, i1 false, i1 false, i32 0, i32 0, null, i32 256, i1 false, null, null, i32 0, metadata !46, i32 263} ; [ DW_TAG_subprogram ]
!421 = metadata !{i32 786453, i32 0, metadata !"", i32 0, i32 0, i64 0, i64 0, i64 0, i32 0, null, metadata !422, i32 0, i32 0} ; [ DW_TAG_subroutine_type ]
!422 = metadata !{null, metadata !423, metadata !425}
!423 = metadata !{i32 786447, i32 0, metadata !"", i32 0, i32 0, i64 64, i64 64, i64 0, i32 64, metadata !424} ; [ DW_TAG_pointer_type ]
!424 = metadata !{i32 786485, null, metadata !"", null, i32 0, i64 0, i64 0, i64 0, i32 0, metadata !99} ; [ DW_TAG_volatile_type ]
!425 = metadata !{i32 786448, null, null, null, i32 0, i64 0, i64 0, i64 0, i32 0, metadata !426} ; [ DW_TAG_reference_type ]
!426 = metadata !{i32 786470, null, metadata !"", null, i32 0, i64 0, i64 0, i64 0, i32 0, metadata !99} ; [ DW_TAG_const_type ]
!427 = metadata !{i32 786478, i32 0, metadata !99, metadata !"operator=", metadata !"operator=", metadata !"_ZNV7ap_uintILi3EEaSERVKS0_", metadata !100, i32 267, metadata !428, i1 false, i1 false, i32 0, i32 0, null, i32 256, i1 false, null, null, i32 0, metadata !46, i32 267} ; [ DW_TAG_subprogram ]
!428 = metadata !{i32 786453, i32 0, metadata !"", i32 0, i32 0, i64 0, i64 0, i64 0, i32 0, null, metadata !429, i32 0, i32 0} ; [ DW_TAG_subroutine_type ]
!429 = metadata !{null, metadata !423, metadata !430}
!430 = metadata !{i32 786448, null, null, null, i32 0, i64 0, i64 0, i64 0, i32 0, metadata !431} ; [ DW_TAG_reference_type ]
!431 = metadata !{i32 786470, null, metadata !"", null, i32 0, i64 0, i64 0, i64 0, i32 0, metadata !424} ; [ DW_TAG_const_type ]
!432 = metadata !{i32 786478, i32 0, metadata !99, metadata !"operator=", metadata !"operator=", metadata !"_ZN7ap_uintILi3EEaSERVKS0_", metadata !100, i32 271, metadata !433, i1 false, i1 false, i32 0, i32 0, null, i32 256, i1 false, null, null, i32 0, metadata !46, i32 271} ; [ DW_TAG_subprogram ]
!433 = metadata !{i32 786453, i32 0, metadata !"", i32 0, i32 0, i64 0, i64 0, i64 0, i32 0, null, metadata !434, i32 0, i32 0} ; [ DW_TAG_subroutine_type ]
!434 = metadata !{metadata !435, metadata !374, metadata !430}
!435 = metadata !{i32 786448, null, null, null, i32 0, i64 0, i64 0, i64 0, i32 0, metadata !99} ; [ DW_TAG_reference_type ]
!436 = metadata !{i32 786478, i32 0, metadata !99, metadata !"operator=", metadata !"operator=", metadata !"_ZN7ap_uintILi3EEaSERKS0_", metadata !100, i32 276, metadata !437, i1 false, i1 false, i32 0, i32 0, null, i32 256, i1 false, null, null, i32 0, metadata !46, i32 276} ; [ DW_TAG_subprogram ]
!437 = metadata !{i32 786453, i32 0, metadata !"", i32 0, i32 0, i64 0, i64 0, i64 0, i32 0, null, metadata !438, i32 0, i32 0} ; [ DW_TAG_subroutine_type ]
!438 = metadata !{metadata !435, metadata !374, metadata !425}
!439 = metadata !{i32 786478, i32 0, metadata !99, metadata !"~ap_uint", metadata !"~ap_uint", metadata !"", metadata !100, i32 180, metadata !372, i1 false, i1 false, i32 0, i32 0, null, i32 320, i1 false, null, null, i32 0, metadata !46, i32 180} ; [ DW_TAG_subprogram ]
!440 = metadata !{metadata !369}
!441 = metadata !{i32 786447, null, metadata !"", null, i32 0, i64 64, i64 64, i64 0, i32 0, metadata !91} ; [ DW_TAG_pointer_type ]
!442 = metadata !{i32 786447, null, metadata !"", null, i32 0, i64 0, i64 0, i64 0, i32 0, metadata !443} ; [ DW_TAG_pointer_type ]
!443 = metadata !{i32 786438, metadata !37, metadata !"stream<unsigned char>", metadata !38, i32 79, i64 8, i64 8, i32 0, i32 0, null, metadata !444, i32 0, null, metadata !92} ; [ DW_TAG_class_field_type ]
!444 = metadata !{metadata !40}
!445 = metadata !{i32 9, i32 48, metadata !31, null}
!446 = metadata !{i32 786689, metadata !31, metadata !"base_ddr_addr", metadata !32, i32 33554441, metadata !94, i32 0, i32 0} ; [ DW_TAG_arg_variable ]
!447 = metadata !{i32 9, i32 73, metadata !31, null}
!448 = metadata !{i32 790531, metadata !449, metadata !"frame_index.V", null, i32 9, metadata !450, i32 0, i32 0} ; [ DW_TAG_arg_variable_field ]
!449 = metadata !{i32 786689, metadata !31, metadata !"frame_index", metadata !32, i32 50331657, metadata !98, i32 0, i32 0} ; [ DW_TAG_arg_variable ]
!450 = metadata !{i32 786447, null, metadata !"", null, i32 0, i64 64, i64 64, i64 0, i32 0, metadata !451} ; [ DW_TAG_pointer_type ]
!451 = metadata !{i32 786438, null, metadata !"ap_uint<3>", metadata !100, i32 180, i64 3, i64 8, i32 0, i32 0, null, metadata !452, i32 0, null, metadata !440} ; [ DW_TAG_class_field_type ]
!452 = metadata !{metadata !453}
!453 = metadata !{i32 786438, null, metadata !"ap_int_base<3, false, true>", metadata !104, i32 1396, i64 3, i64 8, i32 0, i32 0, null, metadata !454, i32 0, null, metadata !368} ; [ DW_TAG_class_field_type ]
!454 = metadata !{metadata !455}
!455 = metadata !{i32 786438, null, metadata !"ssdm_int<3 + 1024 * 0, false>", metadata !108, i32 5, i64 3, i64 8, i32 0, i32 0, null, metadata !456, i32 0, null, metadata !116} ; [ DW_TAG_class_field_type ]
!456 = metadata !{metadata !110}
!457 = metadata !{i32 9, i32 100, metadata !31, null}
!458 = metadata !{i32 786689, metadata !31, metadata !"frame_count", metadata !32, i32 67108874, metadata !441, i32 0, i32 0} ; [ DW_TAG_arg_variable ]
!459 = metadata !{i32 10, i32 17, metadata !31, null}
!460 = metadata !{i32 786689, metadata !31, metadata !"frame_count_equals", metadata !32, i32 83886090, metadata !441, i32 0, i32 0} ; [ DW_TAG_arg_variable ]
!461 = metadata !{i32 10, i32 44, metadata !31, null}
!462 = metadata !{i32 12, i32 1, metadata !463, null}
!463 = metadata !{i32 786443, metadata !31, i32 11, i32 1, metadata !32, i32 0} ; [ DW_TAG_lexical_block ]
!464 = metadata !{i32 13, i32 1, metadata !463, null}
!465 = metadata !{i32 14, i32 1, metadata !463, null}
!466 = metadata !{i32 15, i32 1, metadata !463, null}
!467 = metadata !{i32 16, i32 1, metadata !463, null}
!468 = metadata !{i32 786688, metadata !463, metadata !"buffer", metadata !32, i32 18, metadata !469, i32 0, i32 0} ; [ DW_TAG_auto_variable ]
!469 = metadata !{i32 786433, null, metadata !"", null, i32 0, i64 32768, i64 64, i32 0, i32 0, metadata !174, metadata !470, i32 0, i32 0} ; [ DW_TAG_array_type ]
!470 = metadata !{metadata !471}
!471 = metadata !{i32 786465, i64 0, i64 511}     ; [ DW_TAG_subrange_type ]
!472 = metadata !{i32 18, i32 12, metadata !463, null}
!473 = metadata !{i32 19, i32 1, metadata !463, null}
!474 = metadata !{i32 24, i32 1, metadata !463, null}
!475 = metadata !{i32 25, i32 1, metadata !463, null}
!476 = metadata !{i32 26, i32 1, metadata !463, null}
!477 = metadata !{i32 790531, metadata !478, metadata !"op2.V", null, i32 276, metadata !480, i32 0, i32 0} ; [ DW_TAG_arg_variable_field ]
!478 = metadata !{i32 786689, metadata !479, metadata !"op2", metadata !100, i32 33554708, metadata !425, i32 0, i32 0} ; [ DW_TAG_arg_variable ]
!479 = metadata !{i32 786478, i32 0, null, metadata !"operator=", metadata !"operator=", metadata !"_ZN7ap_uintILi3EEaSERKS0_", metadata !100, i32 276, metadata !437, i1 false, i1 true, i32 0, i32 0, null, i32 256, i1 false, null, null, metadata !436, metadata !46, i32 276} ; [ DW_TAG_subprogram ]
!480 = metadata !{i32 786447, null, metadata !"", null, i32 0, i64 0, i64 0, i64 0, i32 0, metadata !451} ; [ DW_TAG_pointer_type ]
!481 = metadata !{i32 276, i32 87, metadata !479, metadata !482}
!482 = metadata !{i32 27, i32 2, metadata !463, null}
!483 = metadata !{i32 277, i32 10, metadata !484, metadata !482}
!484 = metadata !{i32 786443, metadata !479, i32 276, i32 92, metadata !100, i32 30} ; [ DW_TAG_lexical_block ]
!485 = metadata !{i32 790529, metadata !486, metadata !"inner_index.V", null, i32 21, metadata !451, i32 0, i32 0} ; [ DW_TAG_auto_variable_field ]
!486 = metadata !{i32 786688, metadata !463, metadata !"inner_index", metadata !32, i32 21, metadata !99, i32 0, i32 0} ; [ DW_TAG_auto_variable ]
!487 = metadata !{i32 1821, i32 147, metadata !488, metadata !730}
!488 = metadata !{i32 786443, metadata !489, i32 1821, i32 143, metadata !104, i32 24} ; [ DW_TAG_lexical_block ]
!489 = metadata !{i32 786478, i32 0, null, metadata !"operator-=<1, false>", metadata !"operator-=<1, false>", metadata !"_ZN11ap_int_baseILi3ELb0ELb1EEmIILi1ELb0EEERS0_RKS_IXT_EXT0_EXleT_Li64EEE", metadata !104, i32 1821, metadata !490, i1 false, i1 true, i32 0, i32 0, null, i32 256, i1 false, null, metadata !512, null, metadata !46, i32 1821} ; [ DW_TAG_subprogram ]
!490 = metadata !{i32 786453, i32 0, metadata !"", i32 0, i32 0, i64 0, i64 0, i64 0, i32 0, null, metadata !491, i32 0, i32 0} ; [ DW_TAG_subroutine_type ]
!491 = metadata !{metadata !207, metadata !123, metadata !492}
!492 = metadata !{i32 786448, null, null, null, i32 0, i64 0, i64 0, i64 0, i32 0, metadata !493} ; [ DW_TAG_reference_type ]
!493 = metadata !{i32 786470, null, metadata !"", null, i32 0, i64 0, i64 0, i64 0, i32 0, metadata !494} ; [ DW_TAG_const_type ]
!494 = metadata !{i32 786434, null, metadata !"ap_int_base<1, false, true>", metadata !104, i32 1396, i64 8, i64 8, i32 0, i32 0, null, metadata !495, i32 0, null, metadata !728} ; [ DW_TAG_class_type ]
!495 = metadata !{metadata !496, metadata !505, metadata !509, metadata !514, metadata !520, metadata !523, metadata !526, metadata !529, metadata !532, metadata !535, metadata !538, metadata !541, metadata !544, metadata !547, metadata !550, metadata !553, metadata !556, metadata !559, metadata !562, metadata !565, metadata !569, metadata !572, metadata !575, metadata !576, metadata !580, metadata !583, metadata !586, metadata !589, metadata !592, metadata !595, metadata !598, metadata !601, metadata !604, metadata !607, metadata !610, metadata !613, metadata !618, metadata !621, metadata !622, metadata !623, metadata !624, metadata !625, metadata !628, metadata !631, metadata !634, metadata !637, metadata !640, metadata !643, metadata !646, metadata !647, metadata !651, metadata !654, metadata !655, metadata !656, metadata !657, metadata !658, metadata !659, metadata !662, metadata !663, metadata !666, metadata !667, metadata !668, metadata !669, metadata !670, metadata !671, metadata !674, metadata !675, metadata !676, metadata !679, metadata !680, metadata !683, metadata !684, metadata !688, metadata !692, metadata !693, metadata !696, metadata !697, metadata !701, metadata !702, metadata !703, metadata !704, metadata !707, metadata !708, metadata !709, metadata !710, metadata !711, metadata !712, metadata !713, metadata !714, metadata !715, metadata !716, metadata !717, metadata !718, metadata !721, metadata !724, metadata !727}
!496 = metadata !{i32 786460, metadata !494, null, metadata !104, i32 0, i64 0, i64 0, i64 0, i32 0, metadata !497} ; [ DW_TAG_inheritance ]
!497 = metadata !{i32 786434, null, metadata !"ssdm_int<1 + 1024 * 0, false>", metadata !108, i32 3, i64 8, i64 8, i32 0, i32 0, null, metadata !498, i32 0, null, metadata !248} ; [ DW_TAG_class_type ]
!498 = metadata !{metadata !499, metadata !501}
!499 = metadata !{i32 786445, metadata !497, metadata !"V", metadata !108, i32 3, i64 1, i64 1, i64 0, i32 0, metadata !500} ; [ DW_TAG_member ]
!500 = metadata !{i32 786468, null, metadata !"uint1", null, i32 0, i64 1, i64 1, i64 0, i32 0, i32 7} ; [ DW_TAG_base_type ]
!501 = metadata !{i32 786478, i32 0, metadata !497, metadata !"ssdm_int", metadata !"ssdm_int", metadata !"", metadata !108, i32 3, metadata !502, i1 false, i1 false, i32 0, i32 0, null, i32 256, i1 false, null, null, i32 0, metadata !46, i32 3} ; [ DW_TAG_subprogram ]
!502 = metadata !{i32 786453, i32 0, metadata !"", i32 0, i32 0, i64 0, i64 0, i64 0, i32 0, null, metadata !503, i32 0, i32 0} ; [ DW_TAG_subroutine_type ]
!503 = metadata !{null, metadata !504}
!504 = metadata !{i32 786447, i32 0, metadata !"", i32 0, i32 0, i64 64, i64 64, i64 0, i32 64, metadata !497} ; [ DW_TAG_pointer_type ]
!505 = metadata !{i32 786478, i32 0, metadata !494, metadata !"ap_int_base", metadata !"ap_int_base", metadata !"", metadata !104, i32 1437, metadata !506, i1 false, i1 false, i32 0, i32 0, null, i32 256, i1 false, null, null, i32 0, metadata !46, i32 1437} ; [ DW_TAG_subprogram ]
!506 = metadata !{i32 786453, i32 0, metadata !"", i32 0, i32 0, i64 0, i64 0, i64 0, i32 0, null, metadata !507, i32 0, i32 0} ; [ DW_TAG_subroutine_type ]
!507 = metadata !{null, metadata !508}
!508 = metadata !{i32 786447, i32 0, metadata !"", i32 0, i32 0, i64 64, i64 64, i64 0, i32 64, metadata !494} ; [ DW_TAG_pointer_type ]
!509 = metadata !{i32 786478, i32 0, metadata !494, metadata !"ap_int_base<1, false>", metadata !"ap_int_base<1, false>", metadata !"", metadata !104, i32 1449, metadata !510, i1 false, i1 false, i32 0, i32 0, null, i32 256, i1 false, null, metadata !512, i32 0, metadata !46, i32 1449} ; [ DW_TAG_subprogram ]
!510 = metadata !{i32 786453, i32 0, metadata !"", i32 0, i32 0, i64 0, i64 0, i64 0, i32 0, null, metadata !511, i32 0, i32 0} ; [ DW_TAG_subroutine_type ]
!511 = metadata !{null, metadata !508, metadata !492}
!512 = metadata !{metadata !513, metadata !131}
!513 = metadata !{i32 786480, null, metadata !"_AP_W2", metadata !118, i64 1, null, i32 0, i32 0} ; [ DW_TAG_template_value_parameter ]
!514 = metadata !{i32 786478, i32 0, metadata !494, metadata !"ap_int_base<1, false>", metadata !"ap_int_base<1, false>", metadata !"", metadata !104, i32 1452, metadata !515, i1 false, i1 false, i32 0, i32 0, null, i32 256, i1 false, null, metadata !512, i32 0, metadata !46, i32 1452} ; [ DW_TAG_subprogram ]
!515 = metadata !{i32 786453, i32 0, metadata !"", i32 0, i32 0, i64 0, i64 0, i64 0, i32 0, null, metadata !516, i32 0, i32 0} ; [ DW_TAG_subroutine_type ]
!516 = metadata !{null, metadata !508, metadata !517}
!517 = metadata !{i32 786448, null, null, null, i32 0, i64 0, i64 0, i64 0, i32 0, metadata !518} ; [ DW_TAG_reference_type ]
!518 = metadata !{i32 786470, null, metadata !"", null, i32 0, i64 0, i64 0, i64 0, i32 0, metadata !519} ; [ DW_TAG_const_type ]
!519 = metadata !{i32 786485, null, metadata !"", null, i32 0, i64 0, i64 0, i64 0, i32 0, metadata !494} ; [ DW_TAG_volatile_type ]
!520 = metadata !{i32 786478, i32 0, metadata !494, metadata !"ap_int_base", metadata !"ap_int_base", metadata !"", metadata !104, i32 1459, metadata !521, i1 false, i1 false, i32 0, i32 0, null, i32 384, i1 false, null, null, i32 0, metadata !46, i32 1459} ; [ DW_TAG_subprogram ]
!521 = metadata !{i32 786453, i32 0, metadata !"", i32 0, i32 0, i64 0, i64 0, i64 0, i32 0, null, metadata !522, i32 0, i32 0} ; [ DW_TAG_subroutine_type ]
!522 = metadata !{null, metadata !508, metadata !74}
!523 = metadata !{i32 786478, i32 0, metadata !494, metadata !"ap_int_base", metadata !"ap_int_base", metadata !"", metadata !104, i32 1460, metadata !524, i1 false, i1 false, i32 0, i32 0, null, i32 384, i1 false, null, null, i32 0, metadata !46, i32 1460} ; [ DW_TAG_subprogram ]
!524 = metadata !{i32 786453, i32 0, metadata !"", i32 0, i32 0, i64 0, i64 0, i64 0, i32 0, null, metadata !525, i32 0, i32 0} ; [ DW_TAG_subroutine_type ]
!525 = metadata !{null, metadata !508, metadata !144}
!526 = metadata !{i32 786478, i32 0, metadata !494, metadata !"ap_int_base", metadata !"ap_int_base", metadata !"", metadata !104, i32 1461, metadata !527, i1 false, i1 false, i32 0, i32 0, null, i32 384, i1 false, null, null, i32 0, metadata !46, i32 1461} ; [ DW_TAG_subprogram ]
!527 = metadata !{i32 786453, i32 0, metadata !"", i32 0, i32 0, i64 0, i64 0, i64 0, i32 0, null, metadata !528, i32 0, i32 0} ; [ DW_TAG_subroutine_type ]
!528 = metadata !{null, metadata !508, metadata !41}
!529 = metadata !{i32 786478, i32 0, metadata !494, metadata !"ap_int_base", metadata !"ap_int_base", metadata !"", metadata !104, i32 1462, metadata !530, i1 false, i1 false, i32 0, i32 0, null, i32 384, i1 false, null, null, i32 0, metadata !46, i32 1462} ; [ DW_TAG_subprogram ]
!530 = metadata !{i32 786453, i32 0, metadata !"", i32 0, i32 0, i64 0, i64 0, i64 0, i32 0, null, metadata !531, i32 0, i32 0} ; [ DW_TAG_subroutine_type ]
!531 = metadata !{null, metadata !508, metadata !151}
!532 = metadata !{i32 786478, i32 0, metadata !494, metadata !"ap_int_base", metadata !"ap_int_base", metadata !"", metadata !104, i32 1463, metadata !533, i1 false, i1 false, i32 0, i32 0, null, i32 384, i1 false, null, null, i32 0, metadata !46, i32 1463} ; [ DW_TAG_subprogram ]
!533 = metadata !{i32 786453, i32 0, metadata !"", i32 0, i32 0, i64 0, i64 0, i64 0, i32 0, null, metadata !534, i32 0, i32 0} ; [ DW_TAG_subroutine_type ]
!534 = metadata !{null, metadata !508, metadata !155}
!535 = metadata !{i32 786478, i32 0, metadata !494, metadata !"ap_int_base", metadata !"ap_int_base", metadata !"", metadata !104, i32 1464, metadata !536, i1 false, i1 false, i32 0, i32 0, null, i32 384, i1 false, null, null, i32 0, metadata !46, i32 1464} ; [ DW_TAG_subprogram ]
!536 = metadata !{i32 786453, i32 0, metadata !"", i32 0, i32 0, i64 0, i64 0, i64 0, i32 0, null, metadata !537, i32 0, i32 0} ; [ DW_TAG_subroutine_type ]
!537 = metadata !{null, metadata !508, metadata !118}
!538 = metadata !{i32 786478, i32 0, metadata !494, metadata !"ap_int_base", metadata !"ap_int_base", metadata !"", metadata !104, i32 1465, metadata !539, i1 false, i1 false, i32 0, i32 0, null, i32 384, i1 false, null, null, i32 0, metadata !46, i32 1465} ; [ DW_TAG_subprogram ]
!539 = metadata !{i32 786453, i32 0, metadata !"", i32 0, i32 0, i64 0, i64 0, i64 0, i32 0, null, metadata !540, i32 0, i32 0} ; [ DW_TAG_subroutine_type ]
!540 = metadata !{null, metadata !508, metadata !91}
!541 = metadata !{i32 786478, i32 0, metadata !494, metadata !"ap_int_base", metadata !"ap_int_base", metadata !"", metadata !104, i32 1466, metadata !542, i1 false, i1 false, i32 0, i32 0, null, i32 384, i1 false, null, null, i32 0, metadata !46, i32 1466} ; [ DW_TAG_subprogram ]
!542 = metadata !{i32 786453, i32 0, metadata !"", i32 0, i32 0, i64 0, i64 0, i64 0, i32 0, null, metadata !543, i32 0, i32 0} ; [ DW_TAG_subroutine_type ]
!543 = metadata !{null, metadata !508, metadata !165}
!544 = metadata !{i32 786478, i32 0, metadata !494, metadata !"ap_int_base", metadata !"ap_int_base", metadata !"", metadata !104, i32 1467, metadata !545, i1 false, i1 false, i32 0, i32 0, null, i32 384, i1 false, null, null, i32 0, metadata !46, i32 1467} ; [ DW_TAG_subprogram ]
!545 = metadata !{i32 786453, i32 0, metadata !"", i32 0, i32 0, i64 0, i64 0, i64 0, i32 0, null, metadata !546, i32 0, i32 0} ; [ DW_TAG_subroutine_type ]
!546 = metadata !{null, metadata !508, metadata !169}
!547 = metadata !{i32 786478, i32 0, metadata !494, metadata !"ap_int_base", metadata !"ap_int_base", metadata !"", metadata !104, i32 1468, metadata !548, i1 false, i1 false, i32 0, i32 0, null, i32 384, i1 false, null, null, i32 0, metadata !46, i32 1468} ; [ DW_TAG_subprogram ]
!548 = metadata !{i32 786453, i32 0, metadata !"", i32 0, i32 0, i64 0, i64 0, i64 0, i32 0, null, metadata !549, i32 0, i32 0} ; [ DW_TAG_subroutine_type ]
!549 = metadata !{null, metadata !508, metadata !173}
!550 = metadata !{i32 786478, i32 0, metadata !494, metadata !"ap_int_base", metadata !"ap_int_base", metadata !"", metadata !104, i32 1469, metadata !551, i1 false, i1 false, i32 0, i32 0, null, i32 384, i1 false, null, null, i32 0, metadata !46, i32 1469} ; [ DW_TAG_subprogram ]
!551 = metadata !{i32 786453, i32 0, metadata !"", i32 0, i32 0, i64 0, i64 0, i64 0, i32 0, null, metadata !552, i32 0, i32 0} ; [ DW_TAG_subroutine_type ]
!552 = metadata !{null, metadata !508, metadata !178}
!553 = metadata !{i32 786478, i32 0, metadata !494, metadata !"ap_int_base", metadata !"ap_int_base", metadata !"", metadata !104, i32 1470, metadata !554, i1 false, i1 false, i32 0, i32 0, null, i32 384, i1 false, null, null, i32 0, metadata !46, i32 1470} ; [ DW_TAG_subprogram ]
!554 = metadata !{i32 786453, i32 0, metadata !"", i32 0, i32 0, i64 0, i64 0, i64 0, i32 0, null, metadata !555, i32 0, i32 0} ; [ DW_TAG_subroutine_type ]
!555 = metadata !{null, metadata !508, metadata !182}
!556 = metadata !{i32 786478, i32 0, metadata !494, metadata !"ap_int_base", metadata !"ap_int_base", metadata !"", metadata !104, i32 1471, metadata !557, i1 false, i1 false, i32 0, i32 0, null, i32 384, i1 false, null, null, i32 0, metadata !46, i32 1471} ; [ DW_TAG_subprogram ]
!557 = metadata !{i32 786453, i32 0, metadata !"", i32 0, i32 0, i64 0, i64 0, i64 0, i32 0, null, metadata !558, i32 0, i32 0} ; [ DW_TAG_subroutine_type ]
!558 = metadata !{null, metadata !508, metadata !186}
!559 = metadata !{i32 786478, i32 0, metadata !494, metadata !"ap_int_base", metadata !"ap_int_base", metadata !"", metadata !104, i32 1498, metadata !560, i1 false, i1 false, i32 0, i32 0, null, i32 256, i1 false, null, null, i32 0, metadata !46, i32 1498} ; [ DW_TAG_subprogram ]
!560 = metadata !{i32 786453, i32 0, metadata !"", i32 0, i32 0, i64 0, i64 0, i64 0, i32 0, null, metadata !561, i32 0, i32 0} ; [ DW_TAG_subroutine_type ]
!561 = metadata !{null, metadata !508, metadata !51}
!562 = metadata !{i32 786478, i32 0, metadata !494, metadata !"ap_int_base", metadata !"ap_int_base", metadata !"", metadata !104, i32 1505, metadata !563, i1 false, i1 false, i32 0, i32 0, null, i32 256, i1 false, null, null, i32 0, metadata !46, i32 1505} ; [ DW_TAG_subprogram ]
!563 = metadata !{i32 786453, i32 0, metadata !"", i32 0, i32 0, i64 0, i64 0, i64 0, i32 0, null, metadata !564, i32 0, i32 0} ; [ DW_TAG_subroutine_type ]
!564 = metadata !{null, metadata !508, metadata !51, metadata !144}
!565 = metadata !{i32 786478, i32 0, metadata !494, metadata !"read", metadata !"read", metadata !"_ZNV11ap_int_baseILi1ELb0ELb1EE4readEv", metadata !104, i32 1526, metadata !566, i1 false, i1 false, i32 0, i32 0, null, i32 256, i1 false, null, null, i32 0, metadata !46, i32 1526} ; [ DW_TAG_subprogram ]
!566 = metadata !{i32 786453, i32 0, metadata !"", i32 0, i32 0, i64 0, i64 0, i64 0, i32 0, null, metadata !567, i32 0, i32 0} ; [ DW_TAG_subroutine_type ]
!567 = metadata !{metadata !494, metadata !568}
!568 = metadata !{i32 786447, i32 0, metadata !"", i32 0, i32 0, i64 64, i64 64, i64 0, i32 64, metadata !519} ; [ DW_TAG_pointer_type ]
!569 = metadata !{i32 786478, i32 0, metadata !494, metadata !"write", metadata !"write", metadata !"_ZNV11ap_int_baseILi1ELb0ELb1EE5writeERKS0_", metadata !104, i32 1532, metadata !570, i1 false, i1 false, i32 0, i32 0, null, i32 256, i1 false, null, null, i32 0, metadata !46, i32 1532} ; [ DW_TAG_subprogram ]
!570 = metadata !{i32 786453, i32 0, metadata !"", i32 0, i32 0, i64 0, i64 0, i64 0, i32 0, null, metadata !571, i32 0, i32 0} ; [ DW_TAG_subroutine_type ]
!571 = metadata !{null, metadata !568, metadata !492}
!572 = metadata !{i32 786478, i32 0, metadata !494, metadata !"operator=", metadata !"operator=", metadata !"_ZNV11ap_int_baseILi1ELb0ELb1EEaSERVKS0_", metadata !104, i32 1544, metadata !573, i1 false, i1 false, i32 0, i32 0, null, i32 256, i1 false, null, null, i32 0, metadata !46, i32 1544} ; [ DW_TAG_subprogram ]
!573 = metadata !{i32 786453, i32 0, metadata !"", i32 0, i32 0, i64 0, i64 0, i64 0, i32 0, null, metadata !574, i32 0, i32 0} ; [ DW_TAG_subroutine_type ]
!574 = metadata !{null, metadata !568, metadata !517}
!575 = metadata !{i32 786478, i32 0, metadata !494, metadata !"operator=", metadata !"operator=", metadata !"_ZNV11ap_int_baseILi1ELb0ELb1EEaSERKS0_", metadata !104, i32 1553, metadata !570, i1 false, i1 false, i32 0, i32 0, null, i32 256, i1 false, null, null, i32 0, metadata !46, i32 1553} ; [ DW_TAG_subprogram ]
!576 = metadata !{i32 786478, i32 0, metadata !494, metadata !"operator=", metadata !"operator=", metadata !"_ZN11ap_int_baseILi1ELb0ELb1EEaSERVKS0_", metadata !104, i32 1576, metadata !577, i1 false, i1 false, i32 0, i32 0, null, i32 256, i1 false, null, null, i32 0, metadata !46, i32 1576} ; [ DW_TAG_subprogram ]
!577 = metadata !{i32 786453, i32 0, metadata !"", i32 0, i32 0, i64 0, i64 0, i64 0, i32 0, null, metadata !578, i32 0, i32 0} ; [ DW_TAG_subroutine_type ]
!578 = metadata !{metadata !579, metadata !508, metadata !517}
!579 = metadata !{i32 786448, null, null, null, i32 0, i64 0, i64 0, i64 0, i32 0, metadata !494} ; [ DW_TAG_reference_type ]
!580 = metadata !{i32 786478, i32 0, metadata !494, metadata !"operator=", metadata !"operator=", metadata !"_ZN11ap_int_baseILi1ELb0ELb1EEaSERKS0_", metadata !104, i32 1581, metadata !581, i1 false, i1 false, i32 0, i32 0, null, i32 256, i1 false, null, null, i32 0, metadata !46, i32 1581} ; [ DW_TAG_subprogram ]
!581 = metadata !{i32 786453, i32 0, metadata !"", i32 0, i32 0, i64 0, i64 0, i64 0, i32 0, null, metadata !582, i32 0, i32 0} ; [ DW_TAG_subroutine_type ]
!582 = metadata !{metadata !579, metadata !508, metadata !492}
!583 = metadata !{i32 786478, i32 0, metadata !494, metadata !"operator=", metadata !"operator=", metadata !"_ZN11ap_int_baseILi1ELb0ELb1EEaSEPKc", metadata !104, i32 1585, metadata !584, i1 false, i1 false, i32 0, i32 0, null, i32 256, i1 false, null, null, i32 0, metadata !46, i32 1585} ; [ DW_TAG_subprogram ]
!584 = metadata !{i32 786453, i32 0, metadata !"", i32 0, i32 0, i64 0, i64 0, i64 0, i32 0, null, metadata !585, i32 0, i32 0} ; [ DW_TAG_subroutine_type ]
!585 = metadata !{metadata !579, metadata !508, metadata !51}
!586 = metadata !{i32 786478, i32 0, metadata !494, metadata !"set", metadata !"set", metadata !"_ZN11ap_int_baseILi1ELb0ELb1EE3setEPKca", metadata !104, i32 1593, metadata !587, i1 false, i1 false, i32 0, i32 0, null, i32 256, i1 false, null, null, i32 0, metadata !46, i32 1593} ; [ DW_TAG_subprogram ]
!587 = metadata !{i32 786453, i32 0, metadata !"", i32 0, i32 0, i64 0, i64 0, i64 0, i32 0, null, metadata !588, i32 0, i32 0} ; [ DW_TAG_subroutine_type ]
!588 = metadata !{metadata !579, metadata !508, metadata !51, metadata !144}
!589 = metadata !{i32 786478, i32 0, metadata !494, metadata !"operator=", metadata !"operator=", metadata !"_ZN11ap_int_baseILi1ELb0ELb1EEaSEc", metadata !104, i32 1607, metadata !590, i1 false, i1 false, i32 0, i32 0, null, i32 256, i1 false, null, null, i32 0, metadata !46, i32 1607} ; [ DW_TAG_subprogram ]
!590 = metadata !{i32 786453, i32 0, metadata !"", i32 0, i32 0, i64 0, i64 0, i64 0, i32 0, null, metadata !591, i32 0, i32 0} ; [ DW_TAG_subroutine_type ]
!591 = metadata !{metadata !579, metadata !508, metadata !53}
!592 = metadata !{i32 786478, i32 0, metadata !494, metadata !"operator=", metadata !"operator=", metadata !"_ZN11ap_int_baseILi1ELb0ELb1EEaSEh", metadata !104, i32 1608, metadata !593, i1 false, i1 false, i32 0, i32 0, null, i32 256, i1 false, null, null, i32 0, metadata !46, i32 1608} ; [ DW_TAG_subprogram ]
!593 = metadata !{i32 786453, i32 0, metadata !"", i32 0, i32 0, i64 0, i64 0, i64 0, i32 0, null, metadata !594, i32 0, i32 0} ; [ DW_TAG_subroutine_type ]
!594 = metadata !{metadata !579, metadata !508, metadata !41}
!595 = metadata !{i32 786478, i32 0, metadata !494, metadata !"operator=", metadata !"operator=", metadata !"_ZN11ap_int_baseILi1ELb0ELb1EEaSEs", metadata !104, i32 1609, metadata !596, i1 false, i1 false, i32 0, i32 0, null, i32 256, i1 false, null, null, i32 0, metadata !46, i32 1609} ; [ DW_TAG_subprogram ]
!596 = metadata !{i32 786453, i32 0, metadata !"", i32 0, i32 0, i64 0, i64 0, i64 0, i32 0, null, metadata !597, i32 0, i32 0} ; [ DW_TAG_subroutine_type ]
!597 = metadata !{metadata !579, metadata !508, metadata !151}
!598 = metadata !{i32 786478, i32 0, metadata !494, metadata !"operator=", metadata !"operator=", metadata !"_ZN11ap_int_baseILi1ELb0ELb1EEaSEt", metadata !104, i32 1610, metadata !599, i1 false, i1 false, i32 0, i32 0, null, i32 256, i1 false, null, null, i32 0, metadata !46, i32 1610} ; [ DW_TAG_subprogram ]
!599 = metadata !{i32 786453, i32 0, metadata !"", i32 0, i32 0, i64 0, i64 0, i64 0, i32 0, null, metadata !600, i32 0, i32 0} ; [ DW_TAG_subroutine_type ]
!600 = metadata !{metadata !579, metadata !508, metadata !155}
!601 = metadata !{i32 786478, i32 0, metadata !494, metadata !"operator=", metadata !"operator=", metadata !"_ZN11ap_int_baseILi1ELb0ELb1EEaSEi", metadata !104, i32 1611, metadata !602, i1 false, i1 false, i32 0, i32 0, null, i32 256, i1 false, null, null, i32 0, metadata !46, i32 1611} ; [ DW_TAG_subprogram ]
!602 = metadata !{i32 786453, i32 0, metadata !"", i32 0, i32 0, i64 0, i64 0, i64 0, i32 0, null, metadata !603, i32 0, i32 0} ; [ DW_TAG_subroutine_type ]
!603 = metadata !{metadata !579, metadata !508, metadata !118}
!604 = metadata !{i32 786478, i32 0, metadata !494, metadata !"operator=", metadata !"operator=", metadata !"_ZN11ap_int_baseILi1ELb0ELb1EEaSEj", metadata !104, i32 1612, metadata !605, i1 false, i1 false, i32 0, i32 0, null, i32 256, i1 false, null, null, i32 0, metadata !46, i32 1612} ; [ DW_TAG_subprogram ]
!605 = metadata !{i32 786453, i32 0, metadata !"", i32 0, i32 0, i64 0, i64 0, i64 0, i32 0, null, metadata !606, i32 0, i32 0} ; [ DW_TAG_subroutine_type ]
!606 = metadata !{metadata !579, metadata !508, metadata !91}
!607 = metadata !{i32 786478, i32 0, metadata !494, metadata !"operator=", metadata !"operator=", metadata !"_ZN11ap_int_baseILi1ELb0ELb1EEaSEx", metadata !104, i32 1613, metadata !608, i1 false, i1 false, i32 0, i32 0, null, i32 256, i1 false, null, null, i32 0, metadata !46, i32 1613} ; [ DW_TAG_subprogram ]
!608 = metadata !{i32 786453, i32 0, metadata !"", i32 0, i32 0, i64 0, i64 0, i64 0, i32 0, null, metadata !609, i32 0, i32 0} ; [ DW_TAG_subroutine_type ]
!609 = metadata !{metadata !579, metadata !508, metadata !173}
!610 = metadata !{i32 786478, i32 0, metadata !494, metadata !"operator=", metadata !"operator=", metadata !"_ZN11ap_int_baseILi1ELb0ELb1EEaSEy", metadata !104, i32 1614, metadata !611, i1 false, i1 false, i32 0, i32 0, null, i32 256, i1 false, null, null, i32 0, metadata !46, i32 1614} ; [ DW_TAG_subprogram ]
!611 = metadata !{i32 786453, i32 0, metadata !"", i32 0, i32 0, i64 0, i64 0, i64 0, i32 0, null, metadata !612, i32 0, i32 0} ; [ DW_TAG_subroutine_type ]
!612 = metadata !{metadata !579, metadata !508, metadata !178}
!613 = metadata !{i32 786478, i32 0, metadata !494, metadata !"operator unsigned char", metadata !"operator unsigned char", metadata !"_ZNK11ap_int_baseILi1ELb0ELb1EEcvhEv", metadata !104, i32 1652, metadata !614, i1 false, i1 false, i32 0, i32 0, null, i32 256, i1 false, null, null, i32 0, metadata !46, i32 1652} ; [ DW_TAG_subprogram ]
!614 = metadata !{i32 786453, i32 0, metadata !"", i32 0, i32 0, i64 0, i64 0, i64 0, i32 0, null, metadata !615, i32 0, i32 0} ; [ DW_TAG_subroutine_type ]
!615 = metadata !{metadata !616, metadata !617}
!616 = metadata !{i32 786454, metadata !494, metadata !"RetType", metadata !104, i32 1401, i64 0, i64 0, i64 0, i32 0, metadata !245} ; [ DW_TAG_typedef ]
!617 = metadata !{i32 786447, i32 0, metadata !"", i32 0, i32 0, i64 64, i64 64, i64 0, i32 64, metadata !493} ; [ DW_TAG_pointer_type ]
!618 = metadata !{i32 786478, i32 0, metadata !494, metadata !"to_bool", metadata !"to_bool", metadata !"_ZNK11ap_int_baseILi1ELb0ELb1EE7to_boolEv", metadata !104, i32 1658, metadata !619, i1 false, i1 false, i32 0, i32 0, null, i32 256, i1 false, null, null, i32 0, metadata !46, i32 1658} ; [ DW_TAG_subprogram ]
!619 = metadata !{i32 786453, i32 0, metadata !"", i32 0, i32 0, i64 0, i64 0, i64 0, i32 0, null, metadata !620, i32 0, i32 0} ; [ DW_TAG_subroutine_type ]
!620 = metadata !{metadata !74, metadata !617}
!621 = metadata !{i32 786478, i32 0, metadata !494, metadata !"to_uchar", metadata !"to_uchar", metadata !"_ZNK11ap_int_baseILi1ELb0ELb1EE8to_ucharEv", metadata !104, i32 1659, metadata !619, i1 false, i1 false, i32 0, i32 0, null, i32 256, i1 false, null, null, i32 0, metadata !46, i32 1659} ; [ DW_TAG_subprogram ]
!622 = metadata !{i32 786478, i32 0, metadata !494, metadata !"to_char", metadata !"to_char", metadata !"_ZNK11ap_int_baseILi1ELb0ELb1EE7to_charEv", metadata !104, i32 1660, metadata !619, i1 false, i1 false, i32 0, i32 0, null, i32 256, i1 false, null, null, i32 0, metadata !46, i32 1660} ; [ DW_TAG_subprogram ]
!623 = metadata !{i32 786478, i32 0, metadata !494, metadata !"to_ushort", metadata !"to_ushort", metadata !"_ZNK11ap_int_baseILi1ELb0ELb1EE9to_ushortEv", metadata !104, i32 1661, metadata !619, i1 false, i1 false, i32 0, i32 0, null, i32 256, i1 false, null, null, i32 0, metadata !46, i32 1661} ; [ DW_TAG_subprogram ]
!624 = metadata !{i32 786478, i32 0, metadata !494, metadata !"to_short", metadata !"to_short", metadata !"_ZNK11ap_int_baseILi1ELb0ELb1EE8to_shortEv", metadata !104, i32 1662, metadata !619, i1 false, i1 false, i32 0, i32 0, null, i32 256, i1 false, null, null, i32 0, metadata !46, i32 1662} ; [ DW_TAG_subprogram ]
!625 = metadata !{i32 786478, i32 0, metadata !494, metadata !"to_int", metadata !"to_int", metadata !"_ZNK11ap_int_baseILi1ELb0ELb1EE6to_intEv", metadata !104, i32 1663, metadata !626, i1 false, i1 false, i32 0, i32 0, null, i32 256, i1 false, null, null, i32 0, metadata !46, i32 1663} ; [ DW_TAG_subprogram ]
!626 = metadata !{i32 786453, i32 0, metadata !"", i32 0, i32 0, i64 0, i64 0, i64 0, i32 0, null, metadata !627, i32 0, i32 0} ; [ DW_TAG_subroutine_type ]
!627 = metadata !{metadata !118, metadata !617}
!628 = metadata !{i32 786478, i32 0, metadata !494, metadata !"to_uint", metadata !"to_uint", metadata !"_ZNK11ap_int_baseILi1ELb0ELb1EE7to_uintEv", metadata !104, i32 1664, metadata !629, i1 false, i1 false, i32 0, i32 0, null, i32 256, i1 false, null, null, i32 0, metadata !46, i32 1664} ; [ DW_TAG_subprogram ]
!629 = metadata !{i32 786453, i32 0, metadata !"", i32 0, i32 0, i64 0, i64 0, i64 0, i32 0, null, metadata !630, i32 0, i32 0} ; [ DW_TAG_subroutine_type ]
!630 = metadata !{metadata !91, metadata !617}
!631 = metadata !{i32 786478, i32 0, metadata !494, metadata !"to_long", metadata !"to_long", metadata !"_ZNK11ap_int_baseILi1ELb0ELb1EE7to_longEv", metadata !104, i32 1665, metadata !632, i1 false, i1 false, i32 0, i32 0, null, i32 256, i1 false, null, null, i32 0, metadata !46, i32 1665} ; [ DW_TAG_subprogram ]
!632 = metadata !{i32 786453, i32 0, metadata !"", i32 0, i32 0, i64 0, i64 0, i64 0, i32 0, null, metadata !633, i32 0, i32 0} ; [ DW_TAG_subroutine_type ]
!633 = metadata !{metadata !165, metadata !617}
!634 = metadata !{i32 786478, i32 0, metadata !494, metadata !"to_ulong", metadata !"to_ulong", metadata !"_ZNK11ap_int_baseILi1ELb0ELb1EE8to_ulongEv", metadata !104, i32 1666, metadata !635, i1 false, i1 false, i32 0, i32 0, null, i32 256, i1 false, null, null, i32 0, metadata !46, i32 1666} ; [ DW_TAG_subprogram ]
!635 = metadata !{i32 786453, i32 0, metadata !"", i32 0, i32 0, i64 0, i64 0, i64 0, i32 0, null, metadata !636, i32 0, i32 0} ; [ DW_TAG_subroutine_type ]
!636 = metadata !{metadata !169, metadata !617}
!637 = metadata !{i32 786478, i32 0, metadata !494, metadata !"to_int64", metadata !"to_int64", metadata !"_ZNK11ap_int_baseILi1ELb0ELb1EE8to_int64Ev", metadata !104, i32 1667, metadata !638, i1 false, i1 false, i32 0, i32 0, null, i32 256, i1 false, null, null, i32 0, metadata !46, i32 1667} ; [ DW_TAG_subprogram ]
!638 = metadata !{i32 786453, i32 0, metadata !"", i32 0, i32 0, i64 0, i64 0, i64 0, i32 0, null, metadata !639, i32 0, i32 0} ; [ DW_TAG_subroutine_type ]
!639 = metadata !{metadata !173, metadata !617}
!640 = metadata !{i32 786478, i32 0, metadata !494, metadata !"to_uint64", metadata !"to_uint64", metadata !"_ZNK11ap_int_baseILi1ELb0ELb1EE9to_uint64Ev", metadata !104, i32 1668, metadata !641, i1 false, i1 false, i32 0, i32 0, null, i32 256, i1 false, null, null, i32 0, metadata !46, i32 1668} ; [ DW_TAG_subprogram ]
!641 = metadata !{i32 786453, i32 0, metadata !"", i32 0, i32 0, i64 0, i64 0, i64 0, i32 0, null, metadata !642, i32 0, i32 0} ; [ DW_TAG_subroutine_type ]
!642 = metadata !{metadata !178, metadata !617}
!643 = metadata !{i32 786478, i32 0, metadata !494, metadata !"to_double", metadata !"to_double", metadata !"_ZNK11ap_int_baseILi1ELb0ELb1EE9to_doubleEv", metadata !104, i32 1669, metadata !644, i1 false, i1 false, i32 0, i32 0, null, i32 256, i1 false, null, null, i32 0, metadata !46, i32 1669} ; [ DW_TAG_subprogram ]
!644 = metadata !{i32 786453, i32 0, metadata !"", i32 0, i32 0, i64 0, i64 0, i64 0, i32 0, null, metadata !645, i32 0, i32 0} ; [ DW_TAG_subroutine_type ]
!645 = metadata !{metadata !186, metadata !617}
!646 = metadata !{i32 786478, i32 0, metadata !494, metadata !"length", metadata !"length", metadata !"_ZNK11ap_int_baseILi1ELb0ELb1EE6lengthEv", metadata !104, i32 1682, metadata !626, i1 false, i1 false, i32 0, i32 0, null, i32 256, i1 false, null, null, i32 0, metadata !46, i32 1682} ; [ DW_TAG_subprogram ]
!647 = metadata !{i32 786478, i32 0, metadata !494, metadata !"length", metadata !"length", metadata !"_ZNVK11ap_int_baseILi1ELb0ELb1EE6lengthEv", metadata !104, i32 1683, metadata !648, i1 false, i1 false, i32 0, i32 0, null, i32 256, i1 false, null, null, i32 0, metadata !46, i32 1683} ; [ DW_TAG_subprogram ]
!648 = metadata !{i32 786453, i32 0, metadata !"", i32 0, i32 0, i64 0, i64 0, i64 0, i32 0, null, metadata !649, i32 0, i32 0} ; [ DW_TAG_subroutine_type ]
!649 = metadata !{metadata !118, metadata !650}
!650 = metadata !{i32 786447, i32 0, metadata !"", i32 0, i32 0, i64 64, i64 64, i64 0, i32 64, metadata !518} ; [ DW_TAG_pointer_type ]
!651 = metadata !{i32 786478, i32 0, metadata !494, metadata !"reverse", metadata !"reverse", metadata !"_ZN11ap_int_baseILi1ELb0ELb1EE7reverseEv", metadata !104, i32 1688, metadata !652, i1 false, i1 false, i32 0, i32 0, null, i32 256, i1 false, null, null, i32 0, metadata !46, i32 1688} ; [ DW_TAG_subprogram ]
!652 = metadata !{i32 786453, i32 0, metadata !"", i32 0, i32 0, i64 0, i64 0, i64 0, i32 0, null, metadata !653, i32 0, i32 0} ; [ DW_TAG_subroutine_type ]
!653 = metadata !{metadata !579, metadata !508}
!654 = metadata !{i32 786478, i32 0, metadata !494, metadata !"iszero", metadata !"iszero", metadata !"_ZNK11ap_int_baseILi1ELb0ELb1EE6iszeroEv", metadata !104, i32 1694, metadata !619, i1 false, i1 false, i32 0, i32 0, null, i32 256, i1 false, null, null, i32 0, metadata !46, i32 1694} ; [ DW_TAG_subprogram ]
!655 = metadata !{i32 786478, i32 0, metadata !494, metadata !"is_zero", metadata !"is_zero", metadata !"_ZNK11ap_int_baseILi1ELb0ELb1EE7is_zeroEv", metadata !104, i32 1699, metadata !619, i1 false, i1 false, i32 0, i32 0, null, i32 256, i1 false, null, null, i32 0, metadata !46, i32 1699} ; [ DW_TAG_subprogram ]
!656 = metadata !{i32 786478, i32 0, metadata !494, metadata !"sign", metadata !"sign", metadata !"_ZNK11ap_int_baseILi1ELb0ELb1EE4signEv", metadata !104, i32 1704, metadata !619, i1 false, i1 false, i32 0, i32 0, null, i32 256, i1 false, null, null, i32 0, metadata !46, i32 1704} ; [ DW_TAG_subprogram ]
!657 = metadata !{i32 786478, i32 0, metadata !494, metadata !"clear", metadata !"clear", metadata !"_ZN11ap_int_baseILi1ELb0ELb1EE5clearEi", metadata !104, i32 1712, metadata !536, i1 false, i1 false, i32 0, i32 0, null, i32 256, i1 false, null, null, i32 0, metadata !46, i32 1712} ; [ DW_TAG_subprogram ]
!658 = metadata !{i32 786478, i32 0, metadata !494, metadata !"invert", metadata !"invert", metadata !"_ZN11ap_int_baseILi1ELb0ELb1EE6invertEi", metadata !104, i32 1718, metadata !536, i1 false, i1 false, i32 0, i32 0, null, i32 256, i1 false, null, null, i32 0, metadata !46, i32 1718} ; [ DW_TAG_subprogram ]
!659 = metadata !{i32 786478, i32 0, metadata !494, metadata !"test", metadata !"test", metadata !"_ZNK11ap_int_baseILi1ELb0ELb1EE4testEi", metadata !104, i32 1726, metadata !660, i1 false, i1 false, i32 0, i32 0, null, i32 256, i1 false, null, null, i32 0, metadata !46, i32 1726} ; [ DW_TAG_subprogram ]
!660 = metadata !{i32 786453, i32 0, metadata !"", i32 0, i32 0, i64 0, i64 0, i64 0, i32 0, null, metadata !661, i32 0, i32 0} ; [ DW_TAG_subroutine_type ]
!661 = metadata !{metadata !74, metadata !617, metadata !118}
!662 = metadata !{i32 786478, i32 0, metadata !494, metadata !"set", metadata !"set", metadata !"_ZN11ap_int_baseILi1ELb0ELb1EE3setEi", metadata !104, i32 1732, metadata !536, i1 false, i1 false, i32 0, i32 0, null, i32 256, i1 false, null, null, i32 0, metadata !46, i32 1732} ; [ DW_TAG_subprogram ]
!663 = metadata !{i32 786478, i32 0, metadata !494, metadata !"set", metadata !"set", metadata !"_ZN11ap_int_baseILi1ELb0ELb1EE3setEib", metadata !104, i32 1738, metadata !664, i1 false, i1 false, i32 0, i32 0, null, i32 256, i1 false, null, null, i32 0, metadata !46, i32 1738} ; [ DW_TAG_subprogram ]
!664 = metadata !{i32 786453, i32 0, metadata !"", i32 0, i32 0, i64 0, i64 0, i64 0, i32 0, null, metadata !665, i32 0, i32 0} ; [ DW_TAG_subroutine_type ]
!665 = metadata !{null, metadata !508, metadata !118, metadata !74}
!666 = metadata !{i32 786478, i32 0, metadata !494, metadata !"lrotate", metadata !"lrotate", metadata !"_ZN11ap_int_baseILi1ELb0ELb1EE7lrotateEi", metadata !104, i32 1745, metadata !536, i1 false, i1 false, i32 0, i32 0, null, i32 256, i1 false, null, null, i32 0, metadata !46, i32 1745} ; [ DW_TAG_subprogram ]
!667 = metadata !{i32 786478, i32 0, metadata !494, metadata !"rrotate", metadata !"rrotate", metadata !"_ZN11ap_int_baseILi1ELb0ELb1EE7rrotateEi", metadata !104, i32 1754, metadata !536, i1 false, i1 false, i32 0, i32 0, null, i32 256, i1 false, null, null, i32 0, metadata !46, i32 1754} ; [ DW_TAG_subprogram ]
!668 = metadata !{i32 786478, i32 0, metadata !494, metadata !"set_bit", metadata !"set_bit", metadata !"_ZN11ap_int_baseILi1ELb0ELb1EE7set_bitEib", metadata !104, i32 1762, metadata !664, i1 false, i1 false, i32 0, i32 0, null, i32 256, i1 false, null, null, i32 0, metadata !46, i32 1762} ; [ DW_TAG_subprogram ]
!669 = metadata !{i32 786478, i32 0, metadata !494, metadata !"get_bit", metadata !"get_bit", metadata !"_ZNK11ap_int_baseILi1ELb0ELb1EE7get_bitEi", metadata !104, i32 1767, metadata !660, i1 false, i1 false, i32 0, i32 0, null, i32 256, i1 false, null, null, i32 0, metadata !46, i32 1767} ; [ DW_TAG_subprogram ]
!670 = metadata !{i32 786478, i32 0, metadata !494, metadata !"b_not", metadata !"b_not", metadata !"_ZN11ap_int_baseILi1ELb0ELb1EE5b_notEv", metadata !104, i32 1772, metadata !506, i1 false, i1 false, i32 0, i32 0, null, i32 256, i1 false, null, null, i32 0, metadata !46, i32 1772} ; [ DW_TAG_subprogram ]
!671 = metadata !{i32 786478, i32 0, metadata !494, metadata !"countLeadingZeros", metadata !"countLeadingZeros", metadata !"_ZN11ap_int_baseILi1ELb0ELb1EE17countLeadingZerosEv", metadata !104, i32 1779, metadata !672, i1 false, i1 false, i32 0, i32 0, null, i32 256, i1 false, null, null, i32 0, metadata !46, i32 1779} ; [ DW_TAG_subprogram ]
!672 = metadata !{i32 786453, i32 0, metadata !"", i32 0, i32 0, i64 0, i64 0, i64 0, i32 0, null, metadata !673, i32 0, i32 0} ; [ DW_TAG_subroutine_type ]
!673 = metadata !{metadata !118, metadata !508}
!674 = metadata !{i32 786478, i32 0, metadata !494, metadata !"operator++", metadata !"operator++", metadata !"_ZN11ap_int_baseILi1ELb0ELb1EEppEv", metadata !104, i32 1836, metadata !652, i1 false, i1 false, i32 0, i32 0, null, i32 256, i1 false, null, null, i32 0, metadata !46, i32 1836} ; [ DW_TAG_subprogram ]
!675 = metadata !{i32 786478, i32 0, metadata !494, metadata !"operator--", metadata !"operator--", metadata !"_ZN11ap_int_baseILi1ELb0ELb1EEmmEv", metadata !104, i32 1840, metadata !652, i1 false, i1 false, i32 0, i32 0, null, i32 256, i1 false, null, null, i32 0, metadata !46, i32 1840} ; [ DW_TAG_subprogram ]
!676 = metadata !{i32 786478, i32 0, metadata !494, metadata !"operator++", metadata !"operator++", metadata !"_ZN11ap_int_baseILi1ELb0ELb1EEppEi", metadata !104, i32 1848, metadata !677, i1 false, i1 false, i32 0, i32 0, null, i32 256, i1 false, null, null, i32 0, metadata !46, i32 1848} ; [ DW_TAG_subprogram ]
!677 = metadata !{i32 786453, i32 0, metadata !"", i32 0, i32 0, i64 0, i64 0, i64 0, i32 0, null, metadata !678, i32 0, i32 0} ; [ DW_TAG_subroutine_type ]
!678 = metadata !{metadata !493, metadata !508, metadata !118}
!679 = metadata !{i32 786478, i32 0, metadata !494, metadata !"operator--", metadata !"operator--", metadata !"_ZN11ap_int_baseILi1ELb0ELb1EEmmEi", metadata !104, i32 1853, metadata !677, i1 false, i1 false, i32 0, i32 0, null, i32 256, i1 false, null, null, i32 0, metadata !46, i32 1853} ; [ DW_TAG_subprogram ]
!680 = metadata !{i32 786478, i32 0, metadata !494, metadata !"operator+", metadata !"operator+", metadata !"_ZNK11ap_int_baseILi1ELb0ELb1EEpsEv", metadata !104, i32 1862, metadata !681, i1 false, i1 false, i32 0, i32 0, null, i32 256, i1 false, null, null, i32 0, metadata !46, i32 1862} ; [ DW_TAG_subprogram ]
!681 = metadata !{i32 786453, i32 0, metadata !"", i32 0, i32 0, i64 0, i64 0, i64 0, i32 0, null, metadata !682, i32 0, i32 0} ; [ DW_TAG_subroutine_type ]
!682 = metadata !{metadata !494, metadata !617}
!683 = metadata !{i32 786478, i32 0, metadata !494, metadata !"operator!", metadata !"operator!", metadata !"_ZNK11ap_int_baseILi1ELb0ELb1EEntEv", metadata !104, i32 1868, metadata !619, i1 false, i1 false, i32 0, i32 0, null, i32 256, i1 false, null, null, i32 0, metadata !46, i32 1868} ; [ DW_TAG_subprogram ]
!684 = metadata !{i32 786478, i32 0, metadata !494, metadata !"operator-", metadata !"operator-", metadata !"_ZNK11ap_int_baseILi1ELb0ELb1EEngEv", metadata !104, i32 1873, metadata !685, i1 false, i1 false, i32 0, i32 0, null, i32 256, i1 false, null, null, i32 0, metadata !46, i32 1873} ; [ DW_TAG_subprogram ]
!685 = metadata !{i32 786453, i32 0, metadata !"", i32 0, i32 0, i64 0, i64 0, i64 0, i32 0, null, metadata !686, i32 0, i32 0} ; [ DW_TAG_subroutine_type ]
!686 = metadata !{metadata !687, metadata !617}
!687 = metadata !{i32 786434, null, metadata !"ap_int_base<2, true, true>", metadata !104, i32 649, i32 0, i32 0, i32 0, i32 4, null, null, i32 0} ; [ DW_TAG_class_type ]
!688 = metadata !{i32 786478, i32 0, metadata !494, metadata !"range", metadata !"range", metadata !"_ZN11ap_int_baseILi1ELb0ELb1EE5rangeEii", metadata !104, i32 2003, metadata !689, i1 false, i1 false, i32 0, i32 0, null, i32 256, i1 false, null, null, i32 0, metadata !46, i32 2003} ; [ DW_TAG_subprogram ]
!689 = metadata !{i32 786453, i32 0, metadata !"", i32 0, i32 0, i64 0, i64 0, i64 0, i32 0, null, metadata !690, i32 0, i32 0} ; [ DW_TAG_subroutine_type ]
!690 = metadata !{metadata !691, metadata !508, metadata !118, metadata !118}
!691 = metadata !{i32 786434, null, metadata !"ap_range_ref<1, false>", metadata !104, i32 922, i32 0, i32 0, i32 0, i32 4, null, null, i32 0} ; [ DW_TAG_class_type ]
!692 = metadata !{i32 786478, i32 0, metadata !494, metadata !"operator()", metadata !"operator()", metadata !"_ZN11ap_int_baseILi1ELb0ELb1EEclEii", metadata !104, i32 2009, metadata !689, i1 false, i1 false, i32 0, i32 0, null, i32 256, i1 false, null, null, i32 0, metadata !46, i32 2009} ; [ DW_TAG_subprogram ]
!693 = metadata !{i32 786478, i32 0, metadata !494, metadata !"range", metadata !"range", metadata !"_ZNK11ap_int_baseILi1ELb0ELb1EE5rangeEii", metadata !104, i32 2015, metadata !694, i1 false, i1 false, i32 0, i32 0, null, i32 256, i1 false, null, null, i32 0, metadata !46, i32 2015} ; [ DW_TAG_subprogram ]
!694 = metadata !{i32 786453, i32 0, metadata !"", i32 0, i32 0, i64 0, i64 0, i64 0, i32 0, null, metadata !695, i32 0, i32 0} ; [ DW_TAG_subroutine_type ]
!695 = metadata !{metadata !691, metadata !617, metadata !118, metadata !118}
!696 = metadata !{i32 786478, i32 0, metadata !494, metadata !"operator()", metadata !"operator()", metadata !"_ZNK11ap_int_baseILi1ELb0ELb1EEclEii", metadata !104, i32 2021, metadata !694, i1 false, i1 false, i32 0, i32 0, null, i32 256, i1 false, null, null, i32 0, metadata !46, i32 2021} ; [ DW_TAG_subprogram ]
!697 = metadata !{i32 786478, i32 0, metadata !494, metadata !"operator[]", metadata !"operator[]", metadata !"_ZN11ap_int_baseILi1ELb0ELb1EEixEi", metadata !104, i32 2040, metadata !698, i1 false, i1 false, i32 0, i32 0, null, i32 256, i1 false, null, null, i32 0, metadata !46, i32 2040} ; [ DW_TAG_subprogram ]
!698 = metadata !{i32 786453, i32 0, metadata !"", i32 0, i32 0, i64 0, i64 0, i64 0, i32 0, null, metadata !699, i32 0, i32 0} ; [ DW_TAG_subroutine_type ]
!699 = metadata !{metadata !700, metadata !508, metadata !118}
!700 = metadata !{i32 786434, null, metadata !"ap_bit_ref<1, false>", metadata !104, i32 1192, i32 0, i32 0, i32 0, i32 4, null, null, i32 0} ; [ DW_TAG_class_type ]
!701 = metadata !{i32 786478, i32 0, metadata !494, metadata !"operator[]", metadata !"operator[]", metadata !"_ZNK11ap_int_baseILi1ELb0ELb1EEixEi", metadata !104, i32 2054, metadata !660, i1 false, i1 false, i32 0, i32 0, null, i32 256, i1 false, null, null, i32 0, metadata !46, i32 2054} ; [ DW_TAG_subprogram ]
!702 = metadata !{i32 786478, i32 0, metadata !494, metadata !"bit", metadata !"bit", metadata !"_ZN11ap_int_baseILi1ELb0ELb1EE3bitEi", metadata !104, i32 2068, metadata !698, i1 false, i1 false, i32 0, i32 0, null, i32 256, i1 false, null, null, i32 0, metadata !46, i32 2068} ; [ DW_TAG_subprogram ]
!703 = metadata !{i32 786478, i32 0, metadata !494, metadata !"bit", metadata !"bit", metadata !"_ZNK11ap_int_baseILi1ELb0ELb1EE3bitEi", metadata !104, i32 2082, metadata !660, i1 false, i1 false, i32 0, i32 0, null, i32 256, i1 false, null, null, i32 0, metadata !46, i32 2082} ; [ DW_TAG_subprogram ]
!704 = metadata !{i32 786478, i32 0, metadata !494, metadata !"and_reduce", metadata !"and_reduce", metadata !"_ZN11ap_int_baseILi1ELb0ELb1EE10and_reduceEv", metadata !104, i32 2262, metadata !705, i1 false, i1 false, i32 0, i32 0, null, i32 256, i1 false, null, null, i32 0, metadata !46, i32 2262} ; [ DW_TAG_subprogram ]
!705 = metadata !{i32 786453, i32 0, metadata !"", i32 0, i32 0, i64 0, i64 0, i64 0, i32 0, null, metadata !706, i32 0, i32 0} ; [ DW_TAG_subroutine_type ]
!706 = metadata !{metadata !74, metadata !508}
!707 = metadata !{i32 786478, i32 0, metadata !494, metadata !"nand_reduce", metadata !"nand_reduce", metadata !"_ZN11ap_int_baseILi1ELb0ELb1EE11nand_reduceEv", metadata !104, i32 2265, metadata !705, i1 false, i1 false, i32 0, i32 0, null, i32 256, i1 false, null, null, i32 0, metadata !46, i32 2265} ; [ DW_TAG_subprogram ]
!708 = metadata !{i32 786478, i32 0, metadata !494, metadata !"or_reduce", metadata !"or_reduce", metadata !"_ZN11ap_int_baseILi1ELb0ELb1EE9or_reduceEv", metadata !104, i32 2268, metadata !705, i1 false, i1 false, i32 0, i32 0, null, i32 256, i1 false, null, null, i32 0, metadata !46, i32 2268} ; [ DW_TAG_subprogram ]
!709 = metadata !{i32 786478, i32 0, metadata !494, metadata !"nor_reduce", metadata !"nor_reduce", metadata !"_ZN11ap_int_baseILi1ELb0ELb1EE10nor_reduceEv", metadata !104, i32 2271, metadata !705, i1 false, i1 false, i32 0, i32 0, null, i32 256, i1 false, null, null, i32 0, metadata !46, i32 2271} ; [ DW_TAG_subprogram ]
!710 = metadata !{i32 786478, i32 0, metadata !494, metadata !"xor_reduce", metadata !"xor_reduce", metadata !"_ZN11ap_int_baseILi1ELb0ELb1EE10xor_reduceEv", metadata !104, i32 2274, metadata !705, i1 false, i1 false, i32 0, i32 0, null, i32 256, i1 false, null, null, i32 0, metadata !46, i32 2274} ; [ DW_TAG_subprogram ]
!711 = metadata !{i32 786478, i32 0, metadata !494, metadata !"xnor_reduce", metadata !"xnor_reduce", metadata !"_ZN11ap_int_baseILi1ELb0ELb1EE11xnor_reduceEv", metadata !104, i32 2277, metadata !705, i1 false, i1 false, i32 0, i32 0, null, i32 256, i1 false, null, null, i32 0, metadata !46, i32 2277} ; [ DW_TAG_subprogram ]
!712 = metadata !{i32 786478, i32 0, metadata !494, metadata !"and_reduce", metadata !"and_reduce", metadata !"_ZNK11ap_int_baseILi1ELb0ELb1EE10and_reduceEv", metadata !104, i32 2281, metadata !619, i1 false, i1 false, i32 0, i32 0, null, i32 256, i1 false, null, null, i32 0, metadata !46, i32 2281} ; [ DW_TAG_subprogram ]
!713 = metadata !{i32 786478, i32 0, metadata !494, metadata !"nand_reduce", metadata !"nand_reduce", metadata !"_ZNK11ap_int_baseILi1ELb0ELb1EE11nand_reduceEv", metadata !104, i32 2284, metadata !619, i1 false, i1 false, i32 0, i32 0, null, i32 256, i1 false, null, null, i32 0, metadata !46, i32 2284} ; [ DW_TAG_subprogram ]
!714 = metadata !{i32 786478, i32 0, metadata !494, metadata !"or_reduce", metadata !"or_reduce", metadata !"_ZNK11ap_int_baseILi1ELb0ELb1EE9or_reduceEv", metadata !104, i32 2287, metadata !619, i1 false, i1 false, i32 0, i32 0, null, i32 256, i1 false, null, null, i32 0, metadata !46, i32 2287} ; [ DW_TAG_subprogram ]
!715 = metadata !{i32 786478, i32 0, metadata !494, metadata !"nor_reduce", metadata !"nor_reduce", metadata !"_ZNK11ap_int_baseILi1ELb0ELb1EE10nor_reduceEv", metadata !104, i32 2290, metadata !619, i1 false, i1 false, i32 0, i32 0, null, i32 256, i1 false, null, null, i32 0, metadata !46, i32 2290} ; [ DW_TAG_subprogram ]
!716 = metadata !{i32 786478, i32 0, metadata !494, metadata !"xor_reduce", metadata !"xor_reduce", metadata !"_ZNK11ap_int_baseILi1ELb0ELb1EE10xor_reduceEv", metadata !104, i32 2293, metadata !619, i1 false, i1 false, i32 0, i32 0, null, i32 256, i1 false, null, null, i32 0, metadata !46, i32 2293} ; [ DW_TAG_subprogram ]
!717 = metadata !{i32 786478, i32 0, metadata !494, metadata !"xnor_reduce", metadata !"xnor_reduce", metadata !"_ZNK11ap_int_baseILi1ELb0ELb1EE11xnor_reduceEv", metadata !104, i32 2296, metadata !619, i1 false, i1 false, i32 0, i32 0, null, i32 256, i1 false, null, null, i32 0, metadata !46, i32 2296} ; [ DW_TAG_subprogram ]
!718 = metadata !{i32 786478, i32 0, metadata !494, metadata !"to_string", metadata !"to_string", metadata !"_ZNK11ap_int_baseILi1ELb0ELb1EE9to_stringEPci8BaseModeb", metadata !104, i32 2303, metadata !719, i1 false, i1 false, i32 0, i32 0, null, i32 256, i1 false, null, null, i32 0, metadata !46, i32 2303} ; [ DW_TAG_subprogram ]
!719 = metadata !{i32 786453, i32 0, metadata !"", i32 0, i32 0, i64 0, i64 0, i64 0, i32 0, null, metadata !720, i32 0, i32 0} ; [ DW_TAG_subroutine_type ]
!720 = metadata !{null, metadata !617, metadata !354, metadata !118, metadata !355, metadata !74}
!721 = metadata !{i32 786478, i32 0, metadata !494, metadata !"to_string", metadata !"to_string", metadata !"_ZNK11ap_int_baseILi1ELb0ELb1EE9to_stringE8BaseModeb", metadata !104, i32 2330, metadata !722, i1 false, i1 false, i32 0, i32 0, null, i32 256, i1 false, null, null, i32 0, metadata !46, i32 2330} ; [ DW_TAG_subprogram ]
!722 = metadata !{i32 786453, i32 0, metadata !"", i32 0, i32 0, i64 0, i64 0, i64 0, i32 0, null, metadata !723, i32 0, i32 0} ; [ DW_TAG_subroutine_type ]
!723 = metadata !{metadata !354, metadata !617, metadata !355, metadata !74}
!724 = metadata !{i32 786478, i32 0, metadata !494, metadata !"to_string", metadata !"to_string", metadata !"_ZNK11ap_int_baseILi1ELb0ELb1EE9to_stringEab", metadata !104, i32 2334, metadata !725, i1 false, i1 false, i32 0, i32 0, null, i32 256, i1 false, null, null, i32 0, metadata !46, i32 2334} ; [ DW_TAG_subprogram ]
!725 = metadata !{i32 786453, i32 0, metadata !"", i32 0, i32 0, i64 0, i64 0, i64 0, i32 0, null, metadata !726, i32 0, i32 0} ; [ DW_TAG_subroutine_type ]
!726 = metadata !{metadata !354, metadata !617, metadata !144, metadata !74}
!727 = metadata !{i32 786478, i32 0, metadata !494, metadata !"~ap_int_base", metadata !"~ap_int_base", metadata !"", metadata !104, i32 1396, metadata !506, i1 false, i1 false, i32 0, i32 0, null, i32 320, i1 false, null, null, i32 0, metadata !46, i32 1396} ; [ DW_TAG_subprogram ]
!728 = metadata !{metadata !729, metadata !119, metadata !370}
!729 = metadata !{i32 786480, null, metadata !"_AP_W", metadata !118, i64 1, null, i32 0, i32 0} ; [ DW_TAG_template_value_parameter ]
!730 = metadata !{i32 1855, i32 9, metadata !731, metadata !733}
!731 = metadata !{i32 786443, metadata !732, i32 1853, i32 78, metadata !104, i32 21} ; [ DW_TAG_lexical_block ]
!732 = metadata !{i32 786478, i32 0, null, metadata !"operator--", metadata !"operator--", metadata !"_ZN11ap_int_baseILi3ELb0ELb1EEmmEi", metadata !104, i32 1853, metadata !310, i1 false, i1 true, i32 0, i32 0, null, i32 256, i1 false, null, null, metadata !312, metadata !46, i32 1853} ; [ DW_TAG_subprogram ]
!733 = metadata !{i32 34, i32 7, metadata !463, null}
!734 = metadata !{i32 37, i32 15, metadata !463, null}
!735 = metadata !{i32 38, i32 15, metadata !736, null}
!736 = metadata !{i32 786443, metadata !463, i32 38, i32 2, metadata !32, i32 1} ; [ DW_TAG_lexical_block ]
!737 = metadata !{i32 38, i32 36, metadata !736, null}
!738 = metadata !{i32 40, i32 3, metadata !739, null}
!739 = metadata !{i32 786443, metadata !736, i32 39, i32 2, metadata !32, i32 2} ; [ DW_TAG_lexical_block ]
!740 = metadata !{i32 41, i32 16, metadata !741, null}
!741 = metadata !{i32 786443, metadata !739, i32 41, i32 3, metadata !32, i32 3} ; [ DW_TAG_lexical_block ]
!742 = metadata !{i32 41, i32 47, metadata !741, null}
!743 = metadata !{i32 42, i32 4, metadata !744, null}
!744 = metadata !{i32 786443, metadata !741, i32 42, i32 3, metadata !32, i32 4} ; [ DW_TAG_lexical_block ]
!745 = metadata !{i32 43, i32 1, metadata !744, null}
!746 = metadata !{i32 790531, metadata !747, metadata !"stream<unsigned char>.V", null, i32 144, metadata !750, i32 0, i32 0} ; [ DW_TAG_arg_variable_field ]
!747 = metadata !{i32 786689, metadata !748, metadata !"this", metadata !38, i32 16777360, metadata !749, i32 64, i32 0} ; [ DW_TAG_arg_variable ]
!748 = metadata !{i32 786478, i32 0, metadata !37, metadata !"write", metadata !"write", metadata !"_ZN3hls6streamIhE5writeERKh", metadata !38, i32 144, metadata !67, i1 false, i1 true, i32 0, i32 0, null, i32 256, i1 false, null, null, metadata !84, metadata !46, i32 144} ; [ DW_TAG_subprogram ]
!749 = metadata !{i32 786447, null, metadata !"", null, i32 0, i64 64, i64 64, i64 0, i32 0, metadata !36} ; [ DW_TAG_pointer_type ]
!750 = metadata !{i32 786447, null, metadata !"", null, i32 0, i64 64, i64 64, i64 0, i32 0, metadata !443} ; [ DW_TAG_pointer_type ]
!751 = metadata !{i32 144, i32 48, metadata !748, metadata !752}
!752 = metadata !{i32 44, i32 2, metadata !744, null}
!753 = metadata !{i32 786688, metadata !754, metadata !"tmp", metadata !38, i32 145, metadata !41, i32 0, i32 0} ; [ DW_TAG_auto_variable ]
!754 = metadata !{i32 786443, metadata !748, i32 144, i32 79, metadata !38, i32 7} ; [ DW_TAG_lexical_block ]
!755 = metadata !{i32 145, i32 31, metadata !754, metadata !752}
!756 = metadata !{i32 146, i32 9, metadata !754, metadata !752}
!757 = metadata !{i32 45, i32 3, metadata !744, null}
!758 = metadata !{i32 786688, metadata !741, metadata !"j", metadata !32, i32 41, metadata !118, i32 0, i32 0} ; [ DW_TAG_auto_variable ]
!759 = metadata !{i32 46, i32 3, metadata !739, null}
!760 = metadata !{i32 786688, metadata !463, metadata !"offset", metadata !32, i32 37, metadata !118, i32 0, i32 0} ; [ DW_TAG_auto_variable ]
!761 = metadata !{i32 786688, metadata !736, metadata !"i", metadata !32, i32 38, metadata !118, i32 0, i32 0} ; [ DW_TAG_auto_variable ]
!762 = metadata !{i32 49, i32 2, metadata !463, null}
!763 = metadata !{i32 50, i32 2, metadata !463, null}
!764 = metadata !{i32 52, i32 6, metadata !463, null}
!765 = metadata !{i32 786689, metadata !766, metadata !"op2", metadata !104, i32 33557956, metadata !118, i32 0, i32 0} ; [ DW_TAG_arg_variable ]
!766 = metadata !{i32 786478, i32 0, metadata !104, metadata !"operator==<3, false>", metadata !"operator==<3, false>", metadata !"_ZeqILi3ELb0EEbRK11ap_int_baseIXT_EXT0_EXleT_Li64EEEi", metadata !104, i32 3524, metadata !767, i1 false, i1 true, i32 0, i32 0, null, i32 256, i1 false, null, metadata !769, null, metadata !46, i32 3524} ; [ DW_TAG_subprogram ]
!767 = metadata !{i32 786453, i32 0, metadata !"", i32 0, i32 0, i64 0, i64 0, i64 0, i32 0, null, metadata !768, i32 0, i32 0} ; [ DW_TAG_subroutine_type ]
!768 = metadata !{metadata !74, metadata !127, metadata !118}
!769 = metadata !{metadata !369, metadata !119}
!770 = metadata !{i32 3524, i32 0, metadata !766, metadata !764}
!771 = metadata !{i32 786689, metadata !772, metadata !"op", metadata !104, i32 33555896, metadata !118, i32 0, i32 0} ; [ DW_TAG_arg_variable ]
!772 = metadata !{i32 786478, i32 0, null, metadata !"ap_int_base", metadata !"ap_int_base", metadata !"_ZN11ap_int_baseILi32ELb1ELb1EEC1Ei", metadata !104, i32 1464, metadata !773, i1 false, i1 true, i32 0, i32 0, null, i32 256, i1 false, null, null, metadata !822, metadata !46, i32 1464} ; [ DW_TAG_subprogram ]
!773 = metadata !{i32 786453, i32 0, metadata !"", i32 0, i32 0, i64 0, i64 0, i64 0, i32 0, null, metadata !774, i32 0, i32 0} ; [ DW_TAG_subroutine_type ]
!774 = metadata !{null, metadata !775, metadata !118}
!775 = metadata !{i32 786447, i32 0, metadata !"", i32 0, i32 0, i64 64, i64 64, i64 0, i32 64, metadata !776} ; [ DW_TAG_pointer_type ]
!776 = metadata !{i32 786434, null, metadata !"ap_int_base<32, true, true>", metadata !104, i32 1396, i64 32, i64 32, i32 0, i32 0, null, metadata !777, i32 0, null, metadata !1293} ; [ DW_TAG_class_type ]
!777 = metadata !{metadata !778, metadata !790, metadata !793, metadata !801, metadata !807, metadata !810, metadata !813, metadata !816, metadata !819, metadata !822, metadata !823, metadata !826, metadata !829, metadata !832, metadata !835, metadata !838, metadata !841, metadata !844, metadata !847, metadata !850, metadata !854, metadata !857, metadata !860, metadata !861, metadata !865, metadata !868, metadata !871, metadata !874, metadata !877, metadata !880, metadata !883, metadata !886, metadata !889, metadata !892, metadata !895, metadata !898, metadata !907, metadata !910, metadata !911, metadata !912, metadata !913, metadata !914, metadata !917, metadata !920, metadata !923, metadata !926, metadata !929, metadata !932, metadata !935, metadata !936, metadata !940, metadata !943, metadata !944, metadata !945, metadata !946, metadata !947, metadata !948, metadata !951, metadata !952, metadata !955, metadata !956, metadata !957, metadata !958, metadata !959, metadata !960, metadata !963, metadata !964, metadata !965, metadata !968, metadata !969, metadata !972, metadata !973, metadata !1253, metadata !1257, metadata !1258, metadata !1261, metadata !1262, metadata !1266, metadata !1267, metadata !1268, metadata !1269, metadata !1272, metadata !1273, metadata !1274, metadata !1275, metadata !1276, metadata !1277, metadata !1278, metadata !1279, metadata !1280, metadata !1281, metadata !1282, metadata !1283, metadata !1286, metadata !1289, metadata !1292}
!778 = metadata !{i32 786460, metadata !776, null, metadata !104, i32 0, i64 0, i64 0, i64 0, i32 0, metadata !779} ; [ DW_TAG_inheritance ]
!779 = metadata !{i32 786434, null, metadata !"ssdm_int<32 + 1024 * 0, true>", metadata !108, i32 34, i64 32, i64 32, i32 0, i32 0, null, metadata !780, i32 0, null, metadata !787} ; [ DW_TAG_class_type ]
!780 = metadata !{metadata !781, metadata !783}
!781 = metadata !{i32 786445, metadata !779, metadata !"V", metadata !108, i32 34, i64 32, i64 32, i64 0, i32 0, metadata !782} ; [ DW_TAG_member ]
!782 = metadata !{i32 786468, null, metadata !"int32", null, i32 0, i64 32, i64 32, i64 0, i32 0, i32 5} ; [ DW_TAG_base_type ]
!783 = metadata !{i32 786478, i32 0, metadata !779, metadata !"ssdm_int", metadata !"ssdm_int", metadata !"", metadata !108, i32 34, metadata !784, i1 false, i1 false, i32 0, i32 0, null, i32 256, i1 false, null, null, i32 0, metadata !46, i32 34} ; [ DW_TAG_subprogram ]
!784 = metadata !{i32 786453, i32 0, metadata !"", i32 0, i32 0, i64 0, i64 0, i64 0, i32 0, null, metadata !785, i32 0, i32 0} ; [ DW_TAG_subroutine_type ]
!785 = metadata !{null, metadata !786}
!786 = metadata !{i32 786447, i32 0, metadata !"", i32 0, i32 0, i64 64, i64 64, i64 0, i32 64, metadata !779} ; [ DW_TAG_pointer_type ]
!787 = metadata !{metadata !788, metadata !789}
!788 = metadata !{i32 786480, null, metadata !"_AP_N", metadata !118, i64 32, null, i32 0, i32 0} ; [ DW_TAG_template_value_parameter ]
!789 = metadata !{i32 786480, null, metadata !"_AP_S", metadata !74, i64 1, null, i32 0, i32 0} ; [ DW_TAG_template_value_parameter ]
!790 = metadata !{i32 786478, i32 0, metadata !776, metadata !"ap_int_base", metadata !"ap_int_base", metadata !"", metadata !104, i32 1437, metadata !791, i1 false, i1 false, i32 0, i32 0, null, i32 256, i1 false, null, null, i32 0, metadata !46, i32 1437} ; [ DW_TAG_subprogram ]
!791 = metadata !{i32 786453, i32 0, metadata !"", i32 0, i32 0, i64 0, i64 0, i64 0, i32 0, null, metadata !792, i32 0, i32 0} ; [ DW_TAG_subroutine_type ]
!792 = metadata !{null, metadata !775}
!793 = metadata !{i32 786478, i32 0, metadata !776, metadata !"ap_int_base<32, true>", metadata !"ap_int_base<32, true>", metadata !"", metadata !104, i32 1449, metadata !794, i1 false, i1 false, i32 0, i32 0, null, i32 256, i1 false, null, metadata !798, i32 0, metadata !46, i32 1449} ; [ DW_TAG_subprogram ]
!794 = metadata !{i32 786453, i32 0, metadata !"", i32 0, i32 0, i64 0, i64 0, i64 0, i32 0, null, metadata !795, i32 0, i32 0} ; [ DW_TAG_subroutine_type ]
!795 = metadata !{null, metadata !775, metadata !796}
!796 = metadata !{i32 786448, null, null, null, i32 0, i64 0, i64 0, i64 0, i32 0, metadata !797} ; [ DW_TAG_reference_type ]
!797 = metadata !{i32 786470, null, metadata !"", null, i32 0, i64 0, i64 0, i64 0, i32 0, metadata !776} ; [ DW_TAG_const_type ]
!798 = metadata !{metadata !799, metadata !800}
!799 = metadata !{i32 786480, null, metadata !"_AP_W2", metadata !118, i64 32, null, i32 0, i32 0} ; [ DW_TAG_template_value_parameter ]
!800 = metadata !{i32 786480, null, metadata !"_AP_S2", metadata !74, i64 1, null, i32 0, i32 0} ; [ DW_TAG_template_value_parameter ]
!801 = metadata !{i32 786478, i32 0, metadata !776, metadata !"ap_int_base<32, true>", metadata !"ap_int_base<32, true>", metadata !"", metadata !104, i32 1452, metadata !802, i1 false, i1 false, i32 0, i32 0, null, i32 256, i1 false, null, metadata !798, i32 0, metadata !46, i32 1452} ; [ DW_TAG_subprogram ]
!802 = metadata !{i32 786453, i32 0, metadata !"", i32 0, i32 0, i64 0, i64 0, i64 0, i32 0, null, metadata !803, i32 0, i32 0} ; [ DW_TAG_subroutine_type ]
!803 = metadata !{null, metadata !775, metadata !804}
!804 = metadata !{i32 786448, null, null, null, i32 0, i64 0, i64 0, i64 0, i32 0, metadata !805} ; [ DW_TAG_reference_type ]
!805 = metadata !{i32 786470, null, metadata !"", null, i32 0, i64 0, i64 0, i64 0, i32 0, metadata !806} ; [ DW_TAG_const_type ]
!806 = metadata !{i32 786485, null, metadata !"", null, i32 0, i64 0, i64 0, i64 0, i32 0, metadata !776} ; [ DW_TAG_volatile_type ]
!807 = metadata !{i32 786478, i32 0, metadata !776, metadata !"ap_int_base", metadata !"ap_int_base", metadata !"", metadata !104, i32 1459, metadata !808, i1 false, i1 false, i32 0, i32 0, null, i32 384, i1 false, null, null, i32 0, metadata !46, i32 1459} ; [ DW_TAG_subprogram ]
!808 = metadata !{i32 786453, i32 0, metadata !"", i32 0, i32 0, i64 0, i64 0, i64 0, i32 0, null, metadata !809, i32 0, i32 0} ; [ DW_TAG_subroutine_type ]
!809 = metadata !{null, metadata !775, metadata !74}
!810 = metadata !{i32 786478, i32 0, metadata !776, metadata !"ap_int_base", metadata !"ap_int_base", metadata !"", metadata !104, i32 1460, metadata !811, i1 false, i1 false, i32 0, i32 0, null, i32 384, i1 false, null, null, i32 0, metadata !46, i32 1460} ; [ DW_TAG_subprogram ]
!811 = metadata !{i32 786453, i32 0, metadata !"", i32 0, i32 0, i64 0, i64 0, i64 0, i32 0, null, metadata !812, i32 0, i32 0} ; [ DW_TAG_subroutine_type ]
!812 = metadata !{null, metadata !775, metadata !144}
!813 = metadata !{i32 786478, i32 0, metadata !776, metadata !"ap_int_base", metadata !"ap_int_base", metadata !"", metadata !104, i32 1461, metadata !814, i1 false, i1 false, i32 0, i32 0, null, i32 384, i1 false, null, null, i32 0, metadata !46, i32 1461} ; [ DW_TAG_subprogram ]
!814 = metadata !{i32 786453, i32 0, metadata !"", i32 0, i32 0, i64 0, i64 0, i64 0, i32 0, null, metadata !815, i32 0, i32 0} ; [ DW_TAG_subroutine_type ]
!815 = metadata !{null, metadata !775, metadata !41}
!816 = metadata !{i32 786478, i32 0, metadata !776, metadata !"ap_int_base", metadata !"ap_int_base", metadata !"", metadata !104, i32 1462, metadata !817, i1 false, i1 false, i32 0, i32 0, null, i32 384, i1 false, null, null, i32 0, metadata !46, i32 1462} ; [ DW_TAG_subprogram ]
!817 = metadata !{i32 786453, i32 0, metadata !"", i32 0, i32 0, i64 0, i64 0, i64 0, i32 0, null, metadata !818, i32 0, i32 0} ; [ DW_TAG_subroutine_type ]
!818 = metadata !{null, metadata !775, metadata !151}
!819 = metadata !{i32 786478, i32 0, metadata !776, metadata !"ap_int_base", metadata !"ap_int_base", metadata !"", metadata !104, i32 1463, metadata !820, i1 false, i1 false, i32 0, i32 0, null, i32 384, i1 false, null, null, i32 0, metadata !46, i32 1463} ; [ DW_TAG_subprogram ]
!820 = metadata !{i32 786453, i32 0, metadata !"", i32 0, i32 0, i64 0, i64 0, i64 0, i32 0, null, metadata !821, i32 0, i32 0} ; [ DW_TAG_subroutine_type ]
!821 = metadata !{null, metadata !775, metadata !155}
!822 = metadata !{i32 786478, i32 0, metadata !776, metadata !"ap_int_base", metadata !"ap_int_base", metadata !"", metadata !104, i32 1464, metadata !773, i1 false, i1 false, i32 0, i32 0, null, i32 384, i1 false, null, null, i32 0, metadata !46, i32 1464} ; [ DW_TAG_subprogram ]
!823 = metadata !{i32 786478, i32 0, metadata !776, metadata !"ap_int_base", metadata !"ap_int_base", metadata !"", metadata !104, i32 1465, metadata !824, i1 false, i1 false, i32 0, i32 0, null, i32 384, i1 false, null, null, i32 0, metadata !46, i32 1465} ; [ DW_TAG_subprogram ]
!824 = metadata !{i32 786453, i32 0, metadata !"", i32 0, i32 0, i64 0, i64 0, i64 0, i32 0, null, metadata !825, i32 0, i32 0} ; [ DW_TAG_subroutine_type ]
!825 = metadata !{null, metadata !775, metadata !91}
!826 = metadata !{i32 786478, i32 0, metadata !776, metadata !"ap_int_base", metadata !"ap_int_base", metadata !"", metadata !104, i32 1466, metadata !827, i1 false, i1 false, i32 0, i32 0, null, i32 384, i1 false, null, null, i32 0, metadata !46, i32 1466} ; [ DW_TAG_subprogram ]
!827 = metadata !{i32 786453, i32 0, metadata !"", i32 0, i32 0, i64 0, i64 0, i64 0, i32 0, null, metadata !828, i32 0, i32 0} ; [ DW_TAG_subroutine_type ]
!828 = metadata !{null, metadata !775, metadata !165}
!829 = metadata !{i32 786478, i32 0, metadata !776, metadata !"ap_int_base", metadata !"ap_int_base", metadata !"", metadata !104, i32 1467, metadata !830, i1 false, i1 false, i32 0, i32 0, null, i32 384, i1 false, null, null, i32 0, metadata !46, i32 1467} ; [ DW_TAG_subprogram ]
!830 = metadata !{i32 786453, i32 0, metadata !"", i32 0, i32 0, i64 0, i64 0, i64 0, i32 0, null, metadata !831, i32 0, i32 0} ; [ DW_TAG_subroutine_type ]
!831 = metadata !{null, metadata !775, metadata !169}
!832 = metadata !{i32 786478, i32 0, metadata !776, metadata !"ap_int_base", metadata !"ap_int_base", metadata !"", metadata !104, i32 1468, metadata !833, i1 false, i1 false, i32 0, i32 0, null, i32 384, i1 false, null, null, i32 0, metadata !46, i32 1468} ; [ DW_TAG_subprogram ]
!833 = metadata !{i32 786453, i32 0, metadata !"", i32 0, i32 0, i64 0, i64 0, i64 0, i32 0, null, metadata !834, i32 0, i32 0} ; [ DW_TAG_subroutine_type ]
!834 = metadata !{null, metadata !775, metadata !173}
!835 = metadata !{i32 786478, i32 0, metadata !776, metadata !"ap_int_base", metadata !"ap_int_base", metadata !"", metadata !104, i32 1469, metadata !836, i1 false, i1 false, i32 0, i32 0, null, i32 384, i1 false, null, null, i32 0, metadata !46, i32 1469} ; [ DW_TAG_subprogram ]
!836 = metadata !{i32 786453, i32 0, metadata !"", i32 0, i32 0, i64 0, i64 0, i64 0, i32 0, null, metadata !837, i32 0, i32 0} ; [ DW_TAG_subroutine_type ]
!837 = metadata !{null, metadata !775, metadata !178}
!838 = metadata !{i32 786478, i32 0, metadata !776, metadata !"ap_int_base", metadata !"ap_int_base", metadata !"", metadata !104, i32 1470, metadata !839, i1 false, i1 false, i32 0, i32 0, null, i32 384, i1 false, null, null, i32 0, metadata !46, i32 1470} ; [ DW_TAG_subprogram ]
!839 = metadata !{i32 786453, i32 0, metadata !"", i32 0, i32 0, i64 0, i64 0, i64 0, i32 0, null, metadata !840, i32 0, i32 0} ; [ DW_TAG_subroutine_type ]
!840 = metadata !{null, metadata !775, metadata !182}
!841 = metadata !{i32 786478, i32 0, metadata !776, metadata !"ap_int_base", metadata !"ap_int_base", metadata !"", metadata !104, i32 1471, metadata !842, i1 false, i1 false, i32 0, i32 0, null, i32 384, i1 false, null, null, i32 0, metadata !46, i32 1471} ; [ DW_TAG_subprogram ]
!842 = metadata !{i32 786453, i32 0, metadata !"", i32 0, i32 0, i64 0, i64 0, i64 0, i32 0, null, metadata !843, i32 0, i32 0} ; [ DW_TAG_subroutine_type ]
!843 = metadata !{null, metadata !775, metadata !186}
!844 = metadata !{i32 786478, i32 0, metadata !776, metadata !"ap_int_base", metadata !"ap_int_base", metadata !"", metadata !104, i32 1498, metadata !845, i1 false, i1 false, i32 0, i32 0, null, i32 256, i1 false, null, null, i32 0, metadata !46, i32 1498} ; [ DW_TAG_subprogram ]
!845 = metadata !{i32 786453, i32 0, metadata !"", i32 0, i32 0, i64 0, i64 0, i64 0, i32 0, null, metadata !846, i32 0, i32 0} ; [ DW_TAG_subroutine_type ]
!846 = metadata !{null, metadata !775, metadata !51}
!847 = metadata !{i32 786478, i32 0, metadata !776, metadata !"ap_int_base", metadata !"ap_int_base", metadata !"", metadata !104, i32 1505, metadata !848, i1 false, i1 false, i32 0, i32 0, null, i32 256, i1 false, null, null, i32 0, metadata !46, i32 1505} ; [ DW_TAG_subprogram ]
!848 = metadata !{i32 786453, i32 0, metadata !"", i32 0, i32 0, i64 0, i64 0, i64 0, i32 0, null, metadata !849, i32 0, i32 0} ; [ DW_TAG_subroutine_type ]
!849 = metadata !{null, metadata !775, metadata !51, metadata !144}
!850 = metadata !{i32 786478, i32 0, metadata !776, metadata !"read", metadata !"read", metadata !"_ZNV11ap_int_baseILi32ELb1ELb1EE4readEv", metadata !104, i32 1526, metadata !851, i1 false, i1 false, i32 0, i32 0, null, i32 256, i1 false, null, null, i32 0, metadata !46, i32 1526} ; [ DW_TAG_subprogram ]
!851 = metadata !{i32 786453, i32 0, metadata !"", i32 0, i32 0, i64 0, i64 0, i64 0, i32 0, null, metadata !852, i32 0, i32 0} ; [ DW_TAG_subroutine_type ]
!852 = metadata !{metadata !776, metadata !853}
!853 = metadata !{i32 786447, i32 0, metadata !"", i32 0, i32 0, i64 64, i64 64, i64 0, i32 64, metadata !806} ; [ DW_TAG_pointer_type ]
!854 = metadata !{i32 786478, i32 0, metadata !776, metadata !"write", metadata !"write", metadata !"_ZNV11ap_int_baseILi32ELb1ELb1EE5writeERKS0_", metadata !104, i32 1532, metadata !855, i1 false, i1 false, i32 0, i32 0, null, i32 256, i1 false, null, null, i32 0, metadata !46, i32 1532} ; [ DW_TAG_subprogram ]
!855 = metadata !{i32 786453, i32 0, metadata !"", i32 0, i32 0, i64 0, i64 0, i64 0, i32 0, null, metadata !856, i32 0, i32 0} ; [ DW_TAG_subroutine_type ]
!856 = metadata !{null, metadata !853, metadata !796}
!857 = metadata !{i32 786478, i32 0, metadata !776, metadata !"operator=", metadata !"operator=", metadata !"_ZNV11ap_int_baseILi32ELb1ELb1EEaSERVKS0_", metadata !104, i32 1544, metadata !858, i1 false, i1 false, i32 0, i32 0, null, i32 256, i1 false, null, null, i32 0, metadata !46, i32 1544} ; [ DW_TAG_subprogram ]
!858 = metadata !{i32 786453, i32 0, metadata !"", i32 0, i32 0, i64 0, i64 0, i64 0, i32 0, null, metadata !859, i32 0, i32 0} ; [ DW_TAG_subroutine_type ]
!859 = metadata !{null, metadata !853, metadata !804}
!860 = metadata !{i32 786478, i32 0, metadata !776, metadata !"operator=", metadata !"operator=", metadata !"_ZNV11ap_int_baseILi32ELb1ELb1EEaSERKS0_", metadata !104, i32 1553, metadata !855, i1 false, i1 false, i32 0, i32 0, null, i32 256, i1 false, null, null, i32 0, metadata !46, i32 1553} ; [ DW_TAG_subprogram ]
!861 = metadata !{i32 786478, i32 0, metadata !776, metadata !"operator=", metadata !"operator=", metadata !"_ZN11ap_int_baseILi32ELb1ELb1EEaSERVKS0_", metadata !104, i32 1576, metadata !862, i1 false, i1 false, i32 0, i32 0, null, i32 256, i1 false, null, null, i32 0, metadata !46, i32 1576} ; [ DW_TAG_subprogram ]
!862 = metadata !{i32 786453, i32 0, metadata !"", i32 0, i32 0, i64 0, i64 0, i64 0, i32 0, null, metadata !863, i32 0, i32 0} ; [ DW_TAG_subroutine_type ]
!863 = metadata !{metadata !864, metadata !775, metadata !804}
!864 = metadata !{i32 786448, null, null, null, i32 0, i64 0, i64 0, i64 0, i32 0, metadata !776} ; [ DW_TAG_reference_type ]
!865 = metadata !{i32 786478, i32 0, metadata !776, metadata !"operator=", metadata !"operator=", metadata !"_ZN11ap_int_baseILi32ELb1ELb1EEaSERKS0_", metadata !104, i32 1581, metadata !866, i1 false, i1 false, i32 0, i32 0, null, i32 256, i1 false, null, null, i32 0, metadata !46, i32 1581} ; [ DW_TAG_subprogram ]
!866 = metadata !{i32 786453, i32 0, metadata !"", i32 0, i32 0, i64 0, i64 0, i64 0, i32 0, null, metadata !867, i32 0, i32 0} ; [ DW_TAG_subroutine_type ]
!867 = metadata !{metadata !864, metadata !775, metadata !796}
!868 = metadata !{i32 786478, i32 0, metadata !776, metadata !"operator=", metadata !"operator=", metadata !"_ZN11ap_int_baseILi32ELb1ELb1EEaSEPKc", metadata !104, i32 1585, metadata !869, i1 false, i1 false, i32 0, i32 0, null, i32 256, i1 false, null, null, i32 0, metadata !46, i32 1585} ; [ DW_TAG_subprogram ]
!869 = metadata !{i32 786453, i32 0, metadata !"", i32 0, i32 0, i64 0, i64 0, i64 0, i32 0, null, metadata !870, i32 0, i32 0} ; [ DW_TAG_subroutine_type ]
!870 = metadata !{metadata !864, metadata !775, metadata !51}
!871 = metadata !{i32 786478, i32 0, metadata !776, metadata !"set", metadata !"set", metadata !"_ZN11ap_int_baseILi32ELb1ELb1EE3setEPKca", metadata !104, i32 1593, metadata !872, i1 false, i1 false, i32 0, i32 0, null, i32 256, i1 false, null, null, i32 0, metadata !46, i32 1593} ; [ DW_TAG_subprogram ]
!872 = metadata !{i32 786453, i32 0, metadata !"", i32 0, i32 0, i64 0, i64 0, i64 0, i32 0, null, metadata !873, i32 0, i32 0} ; [ DW_TAG_subroutine_type ]
!873 = metadata !{metadata !864, metadata !775, metadata !51, metadata !144}
!874 = metadata !{i32 786478, i32 0, metadata !776, metadata !"operator=", metadata !"operator=", metadata !"_ZN11ap_int_baseILi32ELb1ELb1EEaSEc", metadata !104, i32 1607, metadata !875, i1 false, i1 false, i32 0, i32 0, null, i32 256, i1 false, null, null, i32 0, metadata !46, i32 1607} ; [ DW_TAG_subprogram ]
!875 = metadata !{i32 786453, i32 0, metadata !"", i32 0, i32 0, i64 0, i64 0, i64 0, i32 0, null, metadata !876, i32 0, i32 0} ; [ DW_TAG_subroutine_type ]
!876 = metadata !{metadata !864, metadata !775, metadata !53}
!877 = metadata !{i32 786478, i32 0, metadata !776, metadata !"operator=", metadata !"operator=", metadata !"_ZN11ap_int_baseILi32ELb1ELb1EEaSEh", metadata !104, i32 1608, metadata !878, i1 false, i1 false, i32 0, i32 0, null, i32 256, i1 false, null, null, i32 0, metadata !46, i32 1608} ; [ DW_TAG_subprogram ]
!878 = metadata !{i32 786453, i32 0, metadata !"", i32 0, i32 0, i64 0, i64 0, i64 0, i32 0, null, metadata !879, i32 0, i32 0} ; [ DW_TAG_subroutine_type ]
!879 = metadata !{metadata !864, metadata !775, metadata !41}
!880 = metadata !{i32 786478, i32 0, metadata !776, metadata !"operator=", metadata !"operator=", metadata !"_ZN11ap_int_baseILi32ELb1ELb1EEaSEs", metadata !104, i32 1609, metadata !881, i1 false, i1 false, i32 0, i32 0, null, i32 256, i1 false, null, null, i32 0, metadata !46, i32 1609} ; [ DW_TAG_subprogram ]
!881 = metadata !{i32 786453, i32 0, metadata !"", i32 0, i32 0, i64 0, i64 0, i64 0, i32 0, null, metadata !882, i32 0, i32 0} ; [ DW_TAG_subroutine_type ]
!882 = metadata !{metadata !864, metadata !775, metadata !151}
!883 = metadata !{i32 786478, i32 0, metadata !776, metadata !"operator=", metadata !"operator=", metadata !"_ZN11ap_int_baseILi32ELb1ELb1EEaSEt", metadata !104, i32 1610, metadata !884, i1 false, i1 false, i32 0, i32 0, null, i32 256, i1 false, null, null, i32 0, metadata !46, i32 1610} ; [ DW_TAG_subprogram ]
!884 = metadata !{i32 786453, i32 0, metadata !"", i32 0, i32 0, i64 0, i64 0, i64 0, i32 0, null, metadata !885, i32 0, i32 0} ; [ DW_TAG_subroutine_type ]
!885 = metadata !{metadata !864, metadata !775, metadata !155}
!886 = metadata !{i32 786478, i32 0, metadata !776, metadata !"operator=", metadata !"operator=", metadata !"_ZN11ap_int_baseILi32ELb1ELb1EEaSEi", metadata !104, i32 1611, metadata !887, i1 false, i1 false, i32 0, i32 0, null, i32 256, i1 false, null, null, i32 0, metadata !46, i32 1611} ; [ DW_TAG_subprogram ]
!887 = metadata !{i32 786453, i32 0, metadata !"", i32 0, i32 0, i64 0, i64 0, i64 0, i32 0, null, metadata !888, i32 0, i32 0} ; [ DW_TAG_subroutine_type ]
!888 = metadata !{metadata !864, metadata !775, metadata !118}
!889 = metadata !{i32 786478, i32 0, metadata !776, metadata !"operator=", metadata !"operator=", metadata !"_ZN11ap_int_baseILi32ELb1ELb1EEaSEj", metadata !104, i32 1612, metadata !890, i1 false, i1 false, i32 0, i32 0, null, i32 256, i1 false, null, null, i32 0, metadata !46, i32 1612} ; [ DW_TAG_subprogram ]
!890 = metadata !{i32 786453, i32 0, metadata !"", i32 0, i32 0, i64 0, i64 0, i64 0, i32 0, null, metadata !891, i32 0, i32 0} ; [ DW_TAG_subroutine_type ]
!891 = metadata !{metadata !864, metadata !775, metadata !91}
!892 = metadata !{i32 786478, i32 0, metadata !776, metadata !"operator=", metadata !"operator=", metadata !"_ZN11ap_int_baseILi32ELb1ELb1EEaSEx", metadata !104, i32 1613, metadata !893, i1 false, i1 false, i32 0, i32 0, null, i32 256, i1 false, null, null, i32 0, metadata !46, i32 1613} ; [ DW_TAG_subprogram ]
!893 = metadata !{i32 786453, i32 0, metadata !"", i32 0, i32 0, i64 0, i64 0, i64 0, i32 0, null, metadata !894, i32 0, i32 0} ; [ DW_TAG_subroutine_type ]
!894 = metadata !{metadata !864, metadata !775, metadata !173}
!895 = metadata !{i32 786478, i32 0, metadata !776, metadata !"operator=", metadata !"operator=", metadata !"_ZN11ap_int_baseILi32ELb1ELb1EEaSEy", metadata !104, i32 1614, metadata !896, i1 false, i1 false, i32 0, i32 0, null, i32 256, i1 false, null, null, i32 0, metadata !46, i32 1614} ; [ DW_TAG_subprogram ]
!896 = metadata !{i32 786453, i32 0, metadata !"", i32 0, i32 0, i64 0, i64 0, i64 0, i32 0, null, metadata !897, i32 0, i32 0} ; [ DW_TAG_subroutine_type ]
!897 = metadata !{metadata !864, metadata !775, metadata !178}
!898 = metadata !{i32 786478, i32 0, metadata !776, metadata !"operator int", metadata !"operator int", metadata !"_ZNK11ap_int_baseILi32ELb1ELb1EEcviEv", metadata !104, i32 1652, metadata !899, i1 false, i1 false, i32 0, i32 0, null, i32 256, i1 false, null, null, i32 0, metadata !46, i32 1652} ; [ DW_TAG_subprogram ]
!899 = metadata !{i32 786453, i32 0, metadata !"", i32 0, i32 0, i64 0, i64 0, i64 0, i32 0, null, metadata !900, i32 0, i32 0} ; [ DW_TAG_subroutine_type ]
!900 = metadata !{metadata !901, metadata !906}
!901 = metadata !{i32 786454, metadata !776, metadata !"RetType", metadata !104, i32 1401, i64 0, i64 0, i64 0, i32 0, metadata !902} ; [ DW_TAG_typedef ]
!902 = metadata !{i32 786454, metadata !903, metadata !"Type", metadata !104, i32 1384, i64 0, i64 0, i64 0, i32 0, metadata !118} ; [ DW_TAG_typedef ]
!903 = metadata !{i32 786434, null, metadata !"retval<4, true>", metadata !104, i32 1383, i64 8, i64 8, i32 0, i32 0, null, metadata !247, i32 0, null, metadata !904} ; [ DW_TAG_class_type ]
!904 = metadata !{metadata !905, metadata !789}
!905 = metadata !{i32 786480, null, metadata !"_AP_N", metadata !118, i64 4, null, i32 0, i32 0} ; [ DW_TAG_template_value_parameter ]
!906 = metadata !{i32 786447, i32 0, metadata !"", i32 0, i32 0, i64 64, i64 64, i64 0, i32 64, metadata !797} ; [ DW_TAG_pointer_type ]
!907 = metadata !{i32 786478, i32 0, metadata !776, metadata !"to_bool", metadata !"to_bool", metadata !"_ZNK11ap_int_baseILi32ELb1ELb1EE7to_boolEv", metadata !104, i32 1658, metadata !908, i1 false, i1 false, i32 0, i32 0, null, i32 256, i1 false, null, null, i32 0, metadata !46, i32 1658} ; [ DW_TAG_subprogram ]
!908 = metadata !{i32 786453, i32 0, metadata !"", i32 0, i32 0, i64 0, i64 0, i64 0, i32 0, null, metadata !909, i32 0, i32 0} ; [ DW_TAG_subroutine_type ]
!909 = metadata !{metadata !74, metadata !906}
!910 = metadata !{i32 786478, i32 0, metadata !776, metadata !"to_uchar", metadata !"to_uchar", metadata !"_ZNK11ap_int_baseILi32ELb1ELb1EE8to_ucharEv", metadata !104, i32 1659, metadata !908, i1 false, i1 false, i32 0, i32 0, null, i32 256, i1 false, null, null, i32 0, metadata !46, i32 1659} ; [ DW_TAG_subprogram ]
!911 = metadata !{i32 786478, i32 0, metadata !776, metadata !"to_char", metadata !"to_char", metadata !"_ZNK11ap_int_baseILi32ELb1ELb1EE7to_charEv", metadata !104, i32 1660, metadata !908, i1 false, i1 false, i32 0, i32 0, null, i32 256, i1 false, null, null, i32 0, metadata !46, i32 1660} ; [ DW_TAG_subprogram ]
!912 = metadata !{i32 786478, i32 0, metadata !776, metadata !"to_ushort", metadata !"to_ushort", metadata !"_ZNK11ap_int_baseILi32ELb1ELb1EE9to_ushortEv", metadata !104, i32 1661, metadata !908, i1 false, i1 false, i32 0, i32 0, null, i32 256, i1 false, null, null, i32 0, metadata !46, i32 1661} ; [ DW_TAG_subprogram ]
!913 = metadata !{i32 786478, i32 0, metadata !776, metadata !"to_short", metadata !"to_short", metadata !"_ZNK11ap_int_baseILi32ELb1ELb1EE8to_shortEv", metadata !104, i32 1662, metadata !908, i1 false, i1 false, i32 0, i32 0, null, i32 256, i1 false, null, null, i32 0, metadata !46, i32 1662} ; [ DW_TAG_subprogram ]
!914 = metadata !{i32 786478, i32 0, metadata !776, metadata !"to_int", metadata !"to_int", metadata !"_ZNK11ap_int_baseILi32ELb1ELb1EE6to_intEv", metadata !104, i32 1663, metadata !915, i1 false, i1 false, i32 0, i32 0, null, i32 256, i1 false, null, null, i32 0, metadata !46, i32 1663} ; [ DW_TAG_subprogram ]
!915 = metadata !{i32 786453, i32 0, metadata !"", i32 0, i32 0, i64 0, i64 0, i64 0, i32 0, null, metadata !916, i32 0, i32 0} ; [ DW_TAG_subroutine_type ]
!916 = metadata !{metadata !118, metadata !906}
!917 = metadata !{i32 786478, i32 0, metadata !776, metadata !"to_uint", metadata !"to_uint", metadata !"_ZNK11ap_int_baseILi32ELb1ELb1EE7to_uintEv", metadata !104, i32 1664, metadata !918, i1 false, i1 false, i32 0, i32 0, null, i32 256, i1 false, null, null, i32 0, metadata !46, i32 1664} ; [ DW_TAG_subprogram ]
!918 = metadata !{i32 786453, i32 0, metadata !"", i32 0, i32 0, i64 0, i64 0, i64 0, i32 0, null, metadata !919, i32 0, i32 0} ; [ DW_TAG_subroutine_type ]
!919 = metadata !{metadata !91, metadata !906}
!920 = metadata !{i32 786478, i32 0, metadata !776, metadata !"to_long", metadata !"to_long", metadata !"_ZNK11ap_int_baseILi32ELb1ELb1EE7to_longEv", metadata !104, i32 1665, metadata !921, i1 false, i1 false, i32 0, i32 0, null, i32 256, i1 false, null, null, i32 0, metadata !46, i32 1665} ; [ DW_TAG_subprogram ]
!921 = metadata !{i32 786453, i32 0, metadata !"", i32 0, i32 0, i64 0, i64 0, i64 0, i32 0, null, metadata !922, i32 0, i32 0} ; [ DW_TAG_subroutine_type ]
!922 = metadata !{metadata !165, metadata !906}
!923 = metadata !{i32 786478, i32 0, metadata !776, metadata !"to_ulong", metadata !"to_ulong", metadata !"_ZNK11ap_int_baseILi32ELb1ELb1EE8to_ulongEv", metadata !104, i32 1666, metadata !924, i1 false, i1 false, i32 0, i32 0, null, i32 256, i1 false, null, null, i32 0, metadata !46, i32 1666} ; [ DW_TAG_subprogram ]
!924 = metadata !{i32 786453, i32 0, metadata !"", i32 0, i32 0, i64 0, i64 0, i64 0, i32 0, null, metadata !925, i32 0, i32 0} ; [ DW_TAG_subroutine_type ]
!925 = metadata !{metadata !169, metadata !906}
!926 = metadata !{i32 786478, i32 0, metadata !776, metadata !"to_int64", metadata !"to_int64", metadata !"_ZNK11ap_int_baseILi32ELb1ELb1EE8to_int64Ev", metadata !104, i32 1667, metadata !927, i1 false, i1 false, i32 0, i32 0, null, i32 256, i1 false, null, null, i32 0, metadata !46, i32 1667} ; [ DW_TAG_subprogram ]
!927 = metadata !{i32 786453, i32 0, metadata !"", i32 0, i32 0, i64 0, i64 0, i64 0, i32 0, null, metadata !928, i32 0, i32 0} ; [ DW_TAG_subroutine_type ]
!928 = metadata !{metadata !173, metadata !906}
!929 = metadata !{i32 786478, i32 0, metadata !776, metadata !"to_uint64", metadata !"to_uint64", metadata !"_ZNK11ap_int_baseILi32ELb1ELb1EE9to_uint64Ev", metadata !104, i32 1668, metadata !930, i1 false, i1 false, i32 0, i32 0, null, i32 256, i1 false, null, null, i32 0, metadata !46, i32 1668} ; [ DW_TAG_subprogram ]
!930 = metadata !{i32 786453, i32 0, metadata !"", i32 0, i32 0, i64 0, i64 0, i64 0, i32 0, null, metadata !931, i32 0, i32 0} ; [ DW_TAG_subroutine_type ]
!931 = metadata !{metadata !178, metadata !906}
!932 = metadata !{i32 786478, i32 0, metadata !776, metadata !"to_double", metadata !"to_double", metadata !"_ZNK11ap_int_baseILi32ELb1ELb1EE9to_doubleEv", metadata !104, i32 1669, metadata !933, i1 false, i1 false, i32 0, i32 0, null, i32 256, i1 false, null, null, i32 0, metadata !46, i32 1669} ; [ DW_TAG_subprogram ]
!933 = metadata !{i32 786453, i32 0, metadata !"", i32 0, i32 0, i64 0, i64 0, i64 0, i32 0, null, metadata !934, i32 0, i32 0} ; [ DW_TAG_subroutine_type ]
!934 = metadata !{metadata !186, metadata !906}
!935 = metadata !{i32 786478, i32 0, metadata !776, metadata !"length", metadata !"length", metadata !"_ZNK11ap_int_baseILi32ELb1ELb1EE6lengthEv", metadata !104, i32 1682, metadata !915, i1 false, i1 false, i32 0, i32 0, null, i32 256, i1 false, null, null, i32 0, metadata !46, i32 1682} ; [ DW_TAG_subprogram ]
!936 = metadata !{i32 786478, i32 0, metadata !776, metadata !"length", metadata !"length", metadata !"_ZNVK11ap_int_baseILi32ELb1ELb1EE6lengthEv", metadata !104, i32 1683, metadata !937, i1 false, i1 false, i32 0, i32 0, null, i32 256, i1 false, null, null, i32 0, metadata !46, i32 1683} ; [ DW_TAG_subprogram ]
!937 = metadata !{i32 786453, i32 0, metadata !"", i32 0, i32 0, i64 0, i64 0, i64 0, i32 0, null, metadata !938, i32 0, i32 0} ; [ DW_TAG_subroutine_type ]
!938 = metadata !{metadata !118, metadata !939}
!939 = metadata !{i32 786447, i32 0, metadata !"", i32 0, i32 0, i64 64, i64 64, i64 0, i32 64, metadata !805} ; [ DW_TAG_pointer_type ]
!940 = metadata !{i32 786478, i32 0, metadata !776, metadata !"reverse", metadata !"reverse", metadata !"_ZN11ap_int_baseILi32ELb1ELb1EE7reverseEv", metadata !104, i32 1688, metadata !941, i1 false, i1 false, i32 0, i32 0, null, i32 256, i1 false, null, null, i32 0, metadata !46, i32 1688} ; [ DW_TAG_subprogram ]
!941 = metadata !{i32 786453, i32 0, metadata !"", i32 0, i32 0, i64 0, i64 0, i64 0, i32 0, null, metadata !942, i32 0, i32 0} ; [ DW_TAG_subroutine_type ]
!942 = metadata !{metadata !864, metadata !775}
!943 = metadata !{i32 786478, i32 0, metadata !776, metadata !"iszero", metadata !"iszero", metadata !"_ZNK11ap_int_baseILi32ELb1ELb1EE6iszeroEv", metadata !104, i32 1694, metadata !908, i1 false, i1 false, i32 0, i32 0, null, i32 256, i1 false, null, null, i32 0, metadata !46, i32 1694} ; [ DW_TAG_subprogram ]
!944 = metadata !{i32 786478, i32 0, metadata !776, metadata !"is_zero", metadata !"is_zero", metadata !"_ZNK11ap_int_baseILi32ELb1ELb1EE7is_zeroEv", metadata !104, i32 1699, metadata !908, i1 false, i1 false, i32 0, i32 0, null, i32 256, i1 false, null, null, i32 0, metadata !46, i32 1699} ; [ DW_TAG_subprogram ]
!945 = metadata !{i32 786478, i32 0, metadata !776, metadata !"sign", metadata !"sign", metadata !"_ZNK11ap_int_baseILi32ELb1ELb1EE4signEv", metadata !104, i32 1704, metadata !908, i1 false, i1 false, i32 0, i32 0, null, i32 256, i1 false, null, null, i32 0, metadata !46, i32 1704} ; [ DW_TAG_subprogram ]
!946 = metadata !{i32 786478, i32 0, metadata !776, metadata !"clear", metadata !"clear", metadata !"_ZN11ap_int_baseILi32ELb1ELb1EE5clearEi", metadata !104, i32 1712, metadata !773, i1 false, i1 false, i32 0, i32 0, null, i32 256, i1 false, null, null, i32 0, metadata !46, i32 1712} ; [ DW_TAG_subprogram ]
!947 = metadata !{i32 786478, i32 0, metadata !776, metadata !"invert", metadata !"invert", metadata !"_ZN11ap_int_baseILi32ELb1ELb1EE6invertEi", metadata !104, i32 1718, metadata !773, i1 false, i1 false, i32 0, i32 0, null, i32 256, i1 false, null, null, i32 0, metadata !46, i32 1718} ; [ DW_TAG_subprogram ]
!948 = metadata !{i32 786478, i32 0, metadata !776, metadata !"test", metadata !"test", metadata !"_ZNK11ap_int_baseILi32ELb1ELb1EE4testEi", metadata !104, i32 1726, metadata !949, i1 false, i1 false, i32 0, i32 0, null, i32 256, i1 false, null, null, i32 0, metadata !46, i32 1726} ; [ DW_TAG_subprogram ]
!949 = metadata !{i32 786453, i32 0, metadata !"", i32 0, i32 0, i64 0, i64 0, i64 0, i32 0, null, metadata !950, i32 0, i32 0} ; [ DW_TAG_subroutine_type ]
!950 = metadata !{metadata !74, metadata !906, metadata !118}
!951 = metadata !{i32 786478, i32 0, metadata !776, metadata !"set", metadata !"set", metadata !"_ZN11ap_int_baseILi32ELb1ELb1EE3setEi", metadata !104, i32 1732, metadata !773, i1 false, i1 false, i32 0, i32 0, null, i32 256, i1 false, null, null, i32 0, metadata !46, i32 1732} ; [ DW_TAG_subprogram ]
!952 = metadata !{i32 786478, i32 0, metadata !776, metadata !"set", metadata !"set", metadata !"_ZN11ap_int_baseILi32ELb1ELb1EE3setEib", metadata !104, i32 1738, metadata !953, i1 false, i1 false, i32 0, i32 0, null, i32 256, i1 false, null, null, i32 0, metadata !46, i32 1738} ; [ DW_TAG_subprogram ]
!953 = metadata !{i32 786453, i32 0, metadata !"", i32 0, i32 0, i64 0, i64 0, i64 0, i32 0, null, metadata !954, i32 0, i32 0} ; [ DW_TAG_subroutine_type ]
!954 = metadata !{null, metadata !775, metadata !118, metadata !74}
!955 = metadata !{i32 786478, i32 0, metadata !776, metadata !"lrotate", metadata !"lrotate", metadata !"_ZN11ap_int_baseILi32ELb1ELb1EE7lrotateEi", metadata !104, i32 1745, metadata !773, i1 false, i1 false, i32 0, i32 0, null, i32 256, i1 false, null, null, i32 0, metadata !46, i32 1745} ; [ DW_TAG_subprogram ]
!956 = metadata !{i32 786478, i32 0, metadata !776, metadata !"rrotate", metadata !"rrotate", metadata !"_ZN11ap_int_baseILi32ELb1ELb1EE7rrotateEi", metadata !104, i32 1754, metadata !773, i1 false, i1 false, i32 0, i32 0, null, i32 256, i1 false, null, null, i32 0, metadata !46, i32 1754} ; [ DW_TAG_subprogram ]
!957 = metadata !{i32 786478, i32 0, metadata !776, metadata !"set_bit", metadata !"set_bit", metadata !"_ZN11ap_int_baseILi32ELb1ELb1EE7set_bitEib", metadata !104, i32 1762, metadata !953, i1 false, i1 false, i32 0, i32 0, null, i32 256, i1 false, null, null, i32 0, metadata !46, i32 1762} ; [ DW_TAG_subprogram ]
!958 = metadata !{i32 786478, i32 0, metadata !776, metadata !"get_bit", metadata !"get_bit", metadata !"_ZNK11ap_int_baseILi32ELb1ELb1EE7get_bitEi", metadata !104, i32 1767, metadata !949, i1 false, i1 false, i32 0, i32 0, null, i32 256, i1 false, null, null, i32 0, metadata !46, i32 1767} ; [ DW_TAG_subprogram ]
!959 = metadata !{i32 786478, i32 0, metadata !776, metadata !"b_not", metadata !"b_not", metadata !"_ZN11ap_int_baseILi32ELb1ELb1EE5b_notEv", metadata !104, i32 1772, metadata !791, i1 false, i1 false, i32 0, i32 0, null, i32 256, i1 false, null, null, i32 0, metadata !46, i32 1772} ; [ DW_TAG_subprogram ]
!960 = metadata !{i32 786478, i32 0, metadata !776, metadata !"countLeadingZeros", metadata !"countLeadingZeros", metadata !"_ZN11ap_int_baseILi32ELb1ELb1EE17countLeadingZerosEv", metadata !104, i32 1779, metadata !961, i1 false, i1 false, i32 0, i32 0, null, i32 256, i1 false, null, null, i32 0, metadata !46, i32 1779} ; [ DW_TAG_subprogram ]
!961 = metadata !{i32 786453, i32 0, metadata !"", i32 0, i32 0, i64 0, i64 0, i64 0, i32 0, null, metadata !962, i32 0, i32 0} ; [ DW_TAG_subroutine_type ]
!962 = metadata !{metadata !118, metadata !775}
!963 = metadata !{i32 786478, i32 0, metadata !776, metadata !"operator++", metadata !"operator++", metadata !"_ZN11ap_int_baseILi32ELb1ELb1EEppEv", metadata !104, i32 1836, metadata !941, i1 false, i1 false, i32 0, i32 0, null, i32 256, i1 false, null, null, i32 0, metadata !46, i32 1836} ; [ DW_TAG_subprogram ]
!964 = metadata !{i32 786478, i32 0, metadata !776, metadata !"operator--", metadata !"operator--", metadata !"_ZN11ap_int_baseILi32ELb1ELb1EEmmEv", metadata !104, i32 1840, metadata !941, i1 false, i1 false, i32 0, i32 0, null, i32 256, i1 false, null, null, i32 0, metadata !46, i32 1840} ; [ DW_TAG_subprogram ]
!965 = metadata !{i32 786478, i32 0, metadata !776, metadata !"operator++", metadata !"operator++", metadata !"_ZN11ap_int_baseILi32ELb1ELb1EEppEi", metadata !104, i32 1848, metadata !966, i1 false, i1 false, i32 0, i32 0, null, i32 256, i1 false, null, null, i32 0, metadata !46, i32 1848} ; [ DW_TAG_subprogram ]
!966 = metadata !{i32 786453, i32 0, metadata !"", i32 0, i32 0, i64 0, i64 0, i64 0, i32 0, null, metadata !967, i32 0, i32 0} ; [ DW_TAG_subroutine_type ]
!967 = metadata !{metadata !797, metadata !775, metadata !118}
!968 = metadata !{i32 786478, i32 0, metadata !776, metadata !"operator--", metadata !"operator--", metadata !"_ZN11ap_int_baseILi32ELb1ELb1EEmmEi", metadata !104, i32 1853, metadata !966, i1 false, i1 false, i32 0, i32 0, null, i32 256, i1 false, null, null, i32 0, metadata !46, i32 1853} ; [ DW_TAG_subprogram ]
!969 = metadata !{i32 786478, i32 0, metadata !776, metadata !"operator+", metadata !"operator+", metadata !"_ZNK11ap_int_baseILi32ELb1ELb1EEpsEv", metadata !104, i32 1862, metadata !970, i1 false, i1 false, i32 0, i32 0, null, i32 256, i1 false, null, null, i32 0, metadata !46, i32 1862} ; [ DW_TAG_subprogram ]
!970 = metadata !{i32 786453, i32 0, metadata !"", i32 0, i32 0, i64 0, i64 0, i64 0, i32 0, null, metadata !971, i32 0, i32 0} ; [ DW_TAG_subroutine_type ]
!971 = metadata !{metadata !776, metadata !906}
!972 = metadata !{i32 786478, i32 0, metadata !776, metadata !"operator!", metadata !"operator!", metadata !"_ZNK11ap_int_baseILi32ELb1ELb1EEntEv", metadata !104, i32 1868, metadata !908, i1 false, i1 false, i32 0, i32 0, null, i32 256, i1 false, null, null, i32 0, metadata !46, i32 1868} ; [ DW_TAG_subprogram ]
!973 = metadata !{i32 786478, i32 0, metadata !776, metadata !"operator-", metadata !"operator-", metadata !"_ZNK11ap_int_baseILi32ELb1ELb1EEngEv", metadata !104, i32 1873, metadata !974, i1 false, i1 false, i32 0, i32 0, null, i32 256, i1 false, null, null, i32 0, metadata !46, i32 1873} ; [ DW_TAG_subprogram ]
!974 = metadata !{i32 786453, i32 0, metadata !"", i32 0, i32 0, i64 0, i64 0, i64 0, i32 0, null, metadata !975, i32 0, i32 0} ; [ DW_TAG_subroutine_type ]
!975 = metadata !{metadata !976, metadata !906}
!976 = metadata !{i32 786434, null, metadata !"ap_int_base<33, true, true>", metadata !104, i32 1396, i64 64, i64 64, i32 0, i32 0, null, metadata !977, i32 0, null, metadata !1252} ; [ DW_TAG_class_type ]
!977 = metadata !{metadata !978, metadata !989, metadata !993, metadata !1000, metadata !1006, metadata !1009, metadata !1012, metadata !1015, metadata !1018, metadata !1021, metadata !1024, metadata !1027, metadata !1030, metadata !1033, metadata !1036, metadata !1039, metadata !1042, metadata !1045, metadata !1048, metadata !1051, metadata !1055, metadata !1058, metadata !1061, metadata !1062, metadata !1066, metadata !1069, metadata !1072, metadata !1075, metadata !1078, metadata !1081, metadata !1084, metadata !1087, metadata !1090, metadata !1093, metadata !1096, metadata !1099, metadata !1108, metadata !1111, metadata !1112, metadata !1113, metadata !1114, metadata !1115, metadata !1118, metadata !1121, metadata !1124, metadata !1127, metadata !1130, metadata !1133, metadata !1136, metadata !1137, metadata !1141, metadata !1144, metadata !1145, metadata !1146, metadata !1147, metadata !1148, metadata !1149, metadata !1152, metadata !1153, metadata !1156, metadata !1157, metadata !1158, metadata !1159, metadata !1160, metadata !1161, metadata !1164, metadata !1165, metadata !1166, metadata !1169, metadata !1170, metadata !1173, metadata !1174, metadata !1178, metadata !1182, metadata !1183, metadata !1186, metadata !1187, metadata !1226, metadata !1227, metadata !1228, metadata !1229, metadata !1232, metadata !1233, metadata !1234, metadata !1235, metadata !1236, metadata !1237, metadata !1238, metadata !1239, metadata !1240, metadata !1241, metadata !1242, metadata !1243, metadata !1246, metadata !1249}
!978 = metadata !{i32 786460, metadata !976, null, metadata !104, i32 0, i64 0, i64 0, i64 0, i32 0, metadata !979} ; [ DW_TAG_inheritance ]
!979 = metadata !{i32 786434, null, metadata !"ssdm_int<33 + 1024 * 0, true>", metadata !108, i32 35, i64 64, i64 64, i32 0, i32 0, null, metadata !980, i32 0, null, metadata !987} ; [ DW_TAG_class_type ]
!980 = metadata !{metadata !981, metadata !983}
!981 = metadata !{i32 786445, metadata !979, metadata !"V", metadata !108, i32 35, i64 33, i64 64, i64 0, i32 0, metadata !982} ; [ DW_TAG_member ]
!982 = metadata !{i32 786468, null, metadata !"int33", null, i32 0, i64 33, i64 64, i64 0, i32 0, i32 5} ; [ DW_TAG_base_type ]
!983 = metadata !{i32 786478, i32 0, metadata !979, metadata !"ssdm_int", metadata !"ssdm_int", metadata !"", metadata !108, i32 35, metadata !984, i1 false, i1 false, i32 0, i32 0, null, i32 256, i1 false, null, null, i32 0, metadata !46, i32 35} ; [ DW_TAG_subprogram ]
!984 = metadata !{i32 786453, i32 0, metadata !"", i32 0, i32 0, i64 0, i64 0, i64 0, i32 0, null, metadata !985, i32 0, i32 0} ; [ DW_TAG_subroutine_type ]
!985 = metadata !{null, metadata !986}
!986 = metadata !{i32 786447, i32 0, metadata !"", i32 0, i32 0, i64 64, i64 64, i64 0, i32 64, metadata !979} ; [ DW_TAG_pointer_type ]
!987 = metadata !{metadata !988, metadata !789}
!988 = metadata !{i32 786480, null, metadata !"_AP_N", metadata !118, i64 33, null, i32 0, i32 0} ; [ DW_TAG_template_value_parameter ]
!989 = metadata !{i32 786478, i32 0, metadata !976, metadata !"ap_int_base", metadata !"ap_int_base", metadata !"", metadata !104, i32 1437, metadata !990, i1 false, i1 false, i32 0, i32 0, null, i32 256, i1 false, null, null, i32 0, metadata !46, i32 1437} ; [ DW_TAG_subprogram ]
!990 = metadata !{i32 786453, i32 0, metadata !"", i32 0, i32 0, i64 0, i64 0, i64 0, i32 0, null, metadata !991, i32 0, i32 0} ; [ DW_TAG_subroutine_type ]
!991 = metadata !{null, metadata !992}
!992 = metadata !{i32 786447, i32 0, metadata !"", i32 0, i32 0, i64 64, i64 64, i64 0, i32 64, metadata !976} ; [ DW_TAG_pointer_type ]
!993 = metadata !{i32 786478, i32 0, metadata !976, metadata !"ap_int_base<33, true>", metadata !"ap_int_base<33, true>", metadata !"", metadata !104, i32 1449, metadata !994, i1 false, i1 false, i32 0, i32 0, null, i32 256, i1 false, null, metadata !998, i32 0, metadata !46, i32 1449} ; [ DW_TAG_subprogram ]
!994 = metadata !{i32 786453, i32 0, metadata !"", i32 0, i32 0, i64 0, i64 0, i64 0, i32 0, null, metadata !995, i32 0, i32 0} ; [ DW_TAG_subroutine_type ]
!995 = metadata !{null, metadata !992, metadata !996}
!996 = metadata !{i32 786448, null, null, null, i32 0, i64 0, i64 0, i64 0, i32 0, metadata !997} ; [ DW_TAG_reference_type ]
!997 = metadata !{i32 786470, null, metadata !"", null, i32 0, i64 0, i64 0, i64 0, i32 0, metadata !976} ; [ DW_TAG_const_type ]
!998 = metadata !{metadata !999, metadata !800}
!999 = metadata !{i32 786480, null, metadata !"_AP_W2", metadata !118, i64 33, null, i32 0, i32 0} ; [ DW_TAG_template_value_parameter ]
!1000 = metadata !{i32 786478, i32 0, metadata !976, metadata !"ap_int_base<33, true>", metadata !"ap_int_base<33, true>", metadata !"", metadata !104, i32 1452, metadata !1001, i1 false, i1 false, i32 0, i32 0, null, i32 256, i1 false, null, metadata !998, i32 0, metadata !46, i32 1452} ; [ DW_TAG_subprogram ]
!1001 = metadata !{i32 786453, i32 0, metadata !"", i32 0, i32 0, i64 0, i64 0, i64 0, i32 0, null, metadata !1002, i32 0, i32 0} ; [ DW_TAG_subroutine_type ]
!1002 = metadata !{null, metadata !992, metadata !1003}
!1003 = metadata !{i32 786448, null, null, null, i32 0, i64 0, i64 0, i64 0, i32 0, metadata !1004} ; [ DW_TAG_reference_type ]
!1004 = metadata !{i32 786470, null, metadata !"", null, i32 0, i64 0, i64 0, i64 0, i32 0, metadata !1005} ; [ DW_TAG_const_type ]
!1005 = metadata !{i32 786485, null, metadata !"", null, i32 0, i64 0, i64 0, i64 0, i32 0, metadata !976} ; [ DW_TAG_volatile_type ]
!1006 = metadata !{i32 786478, i32 0, metadata !976, metadata !"ap_int_base", metadata !"ap_int_base", metadata !"", metadata !104, i32 1459, metadata !1007, i1 false, i1 false, i32 0, i32 0, null, i32 384, i1 false, null, null, i32 0, metadata !46, i32 1459} ; [ DW_TAG_subprogram ]
!1007 = metadata !{i32 786453, i32 0, metadata !"", i32 0, i32 0, i64 0, i64 0, i64 0, i32 0, null, metadata !1008, i32 0, i32 0} ; [ DW_TAG_subroutine_type ]
!1008 = metadata !{null, metadata !992, metadata !74}
!1009 = metadata !{i32 786478, i32 0, metadata !976, metadata !"ap_int_base", metadata !"ap_int_base", metadata !"", metadata !104, i32 1460, metadata !1010, i1 false, i1 false, i32 0, i32 0, null, i32 384, i1 false, null, null, i32 0, metadata !46, i32 1460} ; [ DW_TAG_subprogram ]
!1010 = metadata !{i32 786453, i32 0, metadata !"", i32 0, i32 0, i64 0, i64 0, i64 0, i32 0, null, metadata !1011, i32 0, i32 0} ; [ DW_TAG_subroutine_type ]
!1011 = metadata !{null, metadata !992, metadata !144}
!1012 = metadata !{i32 786478, i32 0, metadata !976, metadata !"ap_int_base", metadata !"ap_int_base", metadata !"", metadata !104, i32 1461, metadata !1013, i1 false, i1 false, i32 0, i32 0, null, i32 384, i1 false, null, null, i32 0, metadata !46, i32 1461} ; [ DW_TAG_subprogram ]
!1013 = metadata !{i32 786453, i32 0, metadata !"", i32 0, i32 0, i64 0, i64 0, i64 0, i32 0, null, metadata !1014, i32 0, i32 0} ; [ DW_TAG_subroutine_type ]
!1014 = metadata !{null, metadata !992, metadata !41}
!1015 = metadata !{i32 786478, i32 0, metadata !976, metadata !"ap_int_base", metadata !"ap_int_base", metadata !"", metadata !104, i32 1462, metadata !1016, i1 false, i1 false, i32 0, i32 0, null, i32 384, i1 false, null, null, i32 0, metadata !46, i32 1462} ; [ DW_TAG_subprogram ]
!1016 = metadata !{i32 786453, i32 0, metadata !"", i32 0, i32 0, i64 0, i64 0, i64 0, i32 0, null, metadata !1017, i32 0, i32 0} ; [ DW_TAG_subroutine_type ]
!1017 = metadata !{null, metadata !992, metadata !151}
!1018 = metadata !{i32 786478, i32 0, metadata !976, metadata !"ap_int_base", metadata !"ap_int_base", metadata !"", metadata !104, i32 1463, metadata !1019, i1 false, i1 false, i32 0, i32 0, null, i32 384, i1 false, null, null, i32 0, metadata !46, i32 1463} ; [ DW_TAG_subprogram ]
!1019 = metadata !{i32 786453, i32 0, metadata !"", i32 0, i32 0, i64 0, i64 0, i64 0, i32 0, null, metadata !1020, i32 0, i32 0} ; [ DW_TAG_subroutine_type ]
!1020 = metadata !{null, metadata !992, metadata !155}
!1021 = metadata !{i32 786478, i32 0, metadata !976, metadata !"ap_int_base", metadata !"ap_int_base", metadata !"", metadata !104, i32 1464, metadata !1022, i1 false, i1 false, i32 0, i32 0, null, i32 384, i1 false, null, null, i32 0, metadata !46, i32 1464} ; [ DW_TAG_subprogram ]
!1022 = metadata !{i32 786453, i32 0, metadata !"", i32 0, i32 0, i64 0, i64 0, i64 0, i32 0, null, metadata !1023, i32 0, i32 0} ; [ DW_TAG_subroutine_type ]
!1023 = metadata !{null, metadata !992, metadata !118}
!1024 = metadata !{i32 786478, i32 0, metadata !976, metadata !"ap_int_base", metadata !"ap_int_base", metadata !"", metadata !104, i32 1465, metadata !1025, i1 false, i1 false, i32 0, i32 0, null, i32 384, i1 false, null, null, i32 0, metadata !46, i32 1465} ; [ DW_TAG_subprogram ]
!1025 = metadata !{i32 786453, i32 0, metadata !"", i32 0, i32 0, i64 0, i64 0, i64 0, i32 0, null, metadata !1026, i32 0, i32 0} ; [ DW_TAG_subroutine_type ]
!1026 = metadata !{null, metadata !992, metadata !91}
!1027 = metadata !{i32 786478, i32 0, metadata !976, metadata !"ap_int_base", metadata !"ap_int_base", metadata !"", metadata !104, i32 1466, metadata !1028, i1 false, i1 false, i32 0, i32 0, null, i32 384, i1 false, null, null, i32 0, metadata !46, i32 1466} ; [ DW_TAG_subprogram ]
!1028 = metadata !{i32 786453, i32 0, metadata !"", i32 0, i32 0, i64 0, i64 0, i64 0, i32 0, null, metadata !1029, i32 0, i32 0} ; [ DW_TAG_subroutine_type ]
!1029 = metadata !{null, metadata !992, metadata !165}
!1030 = metadata !{i32 786478, i32 0, metadata !976, metadata !"ap_int_base", metadata !"ap_int_base", metadata !"", metadata !104, i32 1467, metadata !1031, i1 false, i1 false, i32 0, i32 0, null, i32 384, i1 false, null, null, i32 0, metadata !46, i32 1467} ; [ DW_TAG_subprogram ]
!1031 = metadata !{i32 786453, i32 0, metadata !"", i32 0, i32 0, i64 0, i64 0, i64 0, i32 0, null, metadata !1032, i32 0, i32 0} ; [ DW_TAG_subroutine_type ]
!1032 = metadata !{null, metadata !992, metadata !169}
!1033 = metadata !{i32 786478, i32 0, metadata !976, metadata !"ap_int_base", metadata !"ap_int_base", metadata !"", metadata !104, i32 1468, metadata !1034, i1 false, i1 false, i32 0, i32 0, null, i32 384, i1 false, null, null, i32 0, metadata !46, i32 1468} ; [ DW_TAG_subprogram ]
!1034 = metadata !{i32 786453, i32 0, metadata !"", i32 0, i32 0, i64 0, i64 0, i64 0, i32 0, null, metadata !1035, i32 0, i32 0} ; [ DW_TAG_subroutine_type ]
!1035 = metadata !{null, metadata !992, metadata !173}
!1036 = metadata !{i32 786478, i32 0, metadata !976, metadata !"ap_int_base", metadata !"ap_int_base", metadata !"", metadata !104, i32 1469, metadata !1037, i1 false, i1 false, i32 0, i32 0, null, i32 384, i1 false, null, null, i32 0, metadata !46, i32 1469} ; [ DW_TAG_subprogram ]
!1037 = metadata !{i32 786453, i32 0, metadata !"", i32 0, i32 0, i64 0, i64 0, i64 0, i32 0, null, metadata !1038, i32 0, i32 0} ; [ DW_TAG_subroutine_type ]
!1038 = metadata !{null, metadata !992, metadata !178}
!1039 = metadata !{i32 786478, i32 0, metadata !976, metadata !"ap_int_base", metadata !"ap_int_base", metadata !"", metadata !104, i32 1470, metadata !1040, i1 false, i1 false, i32 0, i32 0, null, i32 384, i1 false, null, null, i32 0, metadata !46, i32 1470} ; [ DW_TAG_subprogram ]
!1040 = metadata !{i32 786453, i32 0, metadata !"", i32 0, i32 0, i64 0, i64 0, i64 0, i32 0, null, metadata !1041, i32 0, i32 0} ; [ DW_TAG_subroutine_type ]
!1041 = metadata !{null, metadata !992, metadata !182}
!1042 = metadata !{i32 786478, i32 0, metadata !976, metadata !"ap_int_base", metadata !"ap_int_base", metadata !"", metadata !104, i32 1471, metadata !1043, i1 false, i1 false, i32 0, i32 0, null, i32 384, i1 false, null, null, i32 0, metadata !46, i32 1471} ; [ DW_TAG_subprogram ]
!1043 = metadata !{i32 786453, i32 0, metadata !"", i32 0, i32 0, i64 0, i64 0, i64 0, i32 0, null, metadata !1044, i32 0, i32 0} ; [ DW_TAG_subroutine_type ]
!1044 = metadata !{null, metadata !992, metadata !186}
!1045 = metadata !{i32 786478, i32 0, metadata !976, metadata !"ap_int_base", metadata !"ap_int_base", metadata !"", metadata !104, i32 1498, metadata !1046, i1 false, i1 false, i32 0, i32 0, null, i32 256, i1 false, null, null, i32 0, metadata !46, i32 1498} ; [ DW_TAG_subprogram ]
!1046 = metadata !{i32 786453, i32 0, metadata !"", i32 0, i32 0, i64 0, i64 0, i64 0, i32 0, null, metadata !1047, i32 0, i32 0} ; [ DW_TAG_subroutine_type ]
!1047 = metadata !{null, metadata !992, metadata !51}
!1048 = metadata !{i32 786478, i32 0, metadata !976, metadata !"ap_int_base", metadata !"ap_int_base", metadata !"", metadata !104, i32 1505, metadata !1049, i1 false, i1 false, i32 0, i32 0, null, i32 256, i1 false, null, null, i32 0, metadata !46, i32 1505} ; [ DW_TAG_subprogram ]
!1049 = metadata !{i32 786453, i32 0, metadata !"", i32 0, i32 0, i64 0, i64 0, i64 0, i32 0, null, metadata !1050, i32 0, i32 0} ; [ DW_TAG_subroutine_type ]
!1050 = metadata !{null, metadata !992, metadata !51, metadata !144}
!1051 = metadata !{i32 786478, i32 0, metadata !976, metadata !"read", metadata !"read", metadata !"_ZNV11ap_int_baseILi33ELb1ELb1EE4readEv", metadata !104, i32 1526, metadata !1052, i1 false, i1 false, i32 0, i32 0, null, i32 256, i1 false, null, null, i32 0, metadata !46, i32 1526} ; [ DW_TAG_subprogram ]
!1052 = metadata !{i32 786453, i32 0, metadata !"", i32 0, i32 0, i64 0, i64 0, i64 0, i32 0, null, metadata !1053, i32 0, i32 0} ; [ DW_TAG_subroutine_type ]
!1053 = metadata !{metadata !976, metadata !1054}
!1054 = metadata !{i32 786447, i32 0, metadata !"", i32 0, i32 0, i64 64, i64 64, i64 0, i32 64, metadata !1005} ; [ DW_TAG_pointer_type ]
!1055 = metadata !{i32 786478, i32 0, metadata !976, metadata !"write", metadata !"write", metadata !"_ZNV11ap_int_baseILi33ELb1ELb1EE5writeERKS0_", metadata !104, i32 1532, metadata !1056, i1 false, i1 false, i32 0, i32 0, null, i32 256, i1 false, null, null, i32 0, metadata !46, i32 1532} ; [ DW_TAG_subprogram ]
!1056 = metadata !{i32 786453, i32 0, metadata !"", i32 0, i32 0, i64 0, i64 0, i64 0, i32 0, null, metadata !1057, i32 0, i32 0} ; [ DW_TAG_subroutine_type ]
!1057 = metadata !{null, metadata !1054, metadata !996}
!1058 = metadata !{i32 786478, i32 0, metadata !976, metadata !"operator=", metadata !"operator=", metadata !"_ZNV11ap_int_baseILi33ELb1ELb1EEaSERVKS0_", metadata !104, i32 1544, metadata !1059, i1 false, i1 false, i32 0, i32 0, null, i32 256, i1 false, null, null, i32 0, metadata !46, i32 1544} ; [ DW_TAG_subprogram ]
!1059 = metadata !{i32 786453, i32 0, metadata !"", i32 0, i32 0, i64 0, i64 0, i64 0, i32 0, null, metadata !1060, i32 0, i32 0} ; [ DW_TAG_subroutine_type ]
!1060 = metadata !{null, metadata !1054, metadata !1003}
!1061 = metadata !{i32 786478, i32 0, metadata !976, metadata !"operator=", metadata !"operator=", metadata !"_ZNV11ap_int_baseILi33ELb1ELb1EEaSERKS0_", metadata !104, i32 1553, metadata !1056, i1 false, i1 false, i32 0, i32 0, null, i32 256, i1 false, null, null, i32 0, metadata !46, i32 1553} ; [ DW_TAG_subprogram ]
!1062 = metadata !{i32 786478, i32 0, metadata !976, metadata !"operator=", metadata !"operator=", metadata !"_ZN11ap_int_baseILi33ELb1ELb1EEaSERVKS0_", metadata !104, i32 1576, metadata !1063, i1 false, i1 false, i32 0, i32 0, null, i32 256, i1 false, null, null, i32 0, metadata !46, i32 1576} ; [ DW_TAG_subprogram ]
!1063 = metadata !{i32 786453, i32 0, metadata !"", i32 0, i32 0, i64 0, i64 0, i64 0, i32 0, null, metadata !1064, i32 0, i32 0} ; [ DW_TAG_subroutine_type ]
!1064 = metadata !{metadata !1065, metadata !992, metadata !1003}
!1065 = metadata !{i32 786448, null, null, null, i32 0, i64 0, i64 0, i64 0, i32 0, metadata !976} ; [ DW_TAG_reference_type ]
!1066 = metadata !{i32 786478, i32 0, metadata !976, metadata !"operator=", metadata !"operator=", metadata !"_ZN11ap_int_baseILi33ELb1ELb1EEaSERKS0_", metadata !104, i32 1581, metadata !1067, i1 false, i1 false, i32 0, i32 0, null, i32 256, i1 false, null, null, i32 0, metadata !46, i32 1581} ; [ DW_TAG_subprogram ]
!1067 = metadata !{i32 786453, i32 0, metadata !"", i32 0, i32 0, i64 0, i64 0, i64 0, i32 0, null, metadata !1068, i32 0, i32 0} ; [ DW_TAG_subroutine_type ]
!1068 = metadata !{metadata !1065, metadata !992, metadata !996}
!1069 = metadata !{i32 786478, i32 0, metadata !976, metadata !"operator=", metadata !"operator=", metadata !"_ZN11ap_int_baseILi33ELb1ELb1EEaSEPKc", metadata !104, i32 1585, metadata !1070, i1 false, i1 false, i32 0, i32 0, null, i32 256, i1 false, null, null, i32 0, metadata !46, i32 1585} ; [ DW_TAG_subprogram ]
!1070 = metadata !{i32 786453, i32 0, metadata !"", i32 0, i32 0, i64 0, i64 0, i64 0, i32 0, null, metadata !1071, i32 0, i32 0} ; [ DW_TAG_subroutine_type ]
!1071 = metadata !{metadata !1065, metadata !992, metadata !51}
!1072 = metadata !{i32 786478, i32 0, metadata !976, metadata !"set", metadata !"set", metadata !"_ZN11ap_int_baseILi33ELb1ELb1EE3setEPKca", metadata !104, i32 1593, metadata !1073, i1 false, i1 false, i32 0, i32 0, null, i32 256, i1 false, null, null, i32 0, metadata !46, i32 1593} ; [ DW_TAG_subprogram ]
!1073 = metadata !{i32 786453, i32 0, metadata !"", i32 0, i32 0, i64 0, i64 0, i64 0, i32 0, null, metadata !1074, i32 0, i32 0} ; [ DW_TAG_subroutine_type ]
!1074 = metadata !{metadata !1065, metadata !992, metadata !51, metadata !144}
!1075 = metadata !{i32 786478, i32 0, metadata !976, metadata !"operator=", metadata !"operator=", metadata !"_ZN11ap_int_baseILi33ELb1ELb1EEaSEc", metadata !104, i32 1607, metadata !1076, i1 false, i1 false, i32 0, i32 0, null, i32 256, i1 false, null, null, i32 0, metadata !46, i32 1607} ; [ DW_TAG_subprogram ]
!1076 = metadata !{i32 786453, i32 0, metadata !"", i32 0, i32 0, i64 0, i64 0, i64 0, i32 0, null, metadata !1077, i32 0, i32 0} ; [ DW_TAG_subroutine_type ]
!1077 = metadata !{metadata !1065, metadata !992, metadata !53}
!1078 = metadata !{i32 786478, i32 0, metadata !976, metadata !"operator=", metadata !"operator=", metadata !"_ZN11ap_int_baseILi33ELb1ELb1EEaSEh", metadata !104, i32 1608, metadata !1079, i1 false, i1 false, i32 0, i32 0, null, i32 256, i1 false, null, null, i32 0, metadata !46, i32 1608} ; [ DW_TAG_subprogram ]
!1079 = metadata !{i32 786453, i32 0, metadata !"", i32 0, i32 0, i64 0, i64 0, i64 0, i32 0, null, metadata !1080, i32 0, i32 0} ; [ DW_TAG_subroutine_type ]
!1080 = metadata !{metadata !1065, metadata !992, metadata !41}
!1081 = metadata !{i32 786478, i32 0, metadata !976, metadata !"operator=", metadata !"operator=", metadata !"_ZN11ap_int_baseILi33ELb1ELb1EEaSEs", metadata !104, i32 1609, metadata !1082, i1 false, i1 false, i32 0, i32 0, null, i32 256, i1 false, null, null, i32 0, metadata !46, i32 1609} ; [ DW_TAG_subprogram ]
!1082 = metadata !{i32 786453, i32 0, metadata !"", i32 0, i32 0, i64 0, i64 0, i64 0, i32 0, null, metadata !1083, i32 0, i32 0} ; [ DW_TAG_subroutine_type ]
!1083 = metadata !{metadata !1065, metadata !992, metadata !151}
!1084 = metadata !{i32 786478, i32 0, metadata !976, metadata !"operator=", metadata !"operator=", metadata !"_ZN11ap_int_baseILi33ELb1ELb1EEaSEt", metadata !104, i32 1610, metadata !1085, i1 false, i1 false, i32 0, i32 0, null, i32 256, i1 false, null, null, i32 0, metadata !46, i32 1610} ; [ DW_TAG_subprogram ]
!1085 = metadata !{i32 786453, i32 0, metadata !"", i32 0, i32 0, i64 0, i64 0, i64 0, i32 0, null, metadata !1086, i32 0, i32 0} ; [ DW_TAG_subroutine_type ]
!1086 = metadata !{metadata !1065, metadata !992, metadata !155}
!1087 = metadata !{i32 786478, i32 0, metadata !976, metadata !"operator=", metadata !"operator=", metadata !"_ZN11ap_int_baseILi33ELb1ELb1EEaSEi", metadata !104, i32 1611, metadata !1088, i1 false, i1 false, i32 0, i32 0, null, i32 256, i1 false, null, null, i32 0, metadata !46, i32 1611} ; [ DW_TAG_subprogram ]
!1088 = metadata !{i32 786453, i32 0, metadata !"", i32 0, i32 0, i64 0, i64 0, i64 0, i32 0, null, metadata !1089, i32 0, i32 0} ; [ DW_TAG_subroutine_type ]
!1089 = metadata !{metadata !1065, metadata !992, metadata !118}
!1090 = metadata !{i32 786478, i32 0, metadata !976, metadata !"operator=", metadata !"operator=", metadata !"_ZN11ap_int_baseILi33ELb1ELb1EEaSEj", metadata !104, i32 1612, metadata !1091, i1 false, i1 false, i32 0, i32 0, null, i32 256, i1 false, null, null, i32 0, metadata !46, i32 1612} ; [ DW_TAG_subprogram ]
!1091 = metadata !{i32 786453, i32 0, metadata !"", i32 0, i32 0, i64 0, i64 0, i64 0, i32 0, null, metadata !1092, i32 0, i32 0} ; [ DW_TAG_subroutine_type ]
!1092 = metadata !{metadata !1065, metadata !992, metadata !91}
!1093 = metadata !{i32 786478, i32 0, metadata !976, metadata !"operator=", metadata !"operator=", metadata !"_ZN11ap_int_baseILi33ELb1ELb1EEaSEx", metadata !104, i32 1613, metadata !1094, i1 false, i1 false, i32 0, i32 0, null, i32 256, i1 false, null, null, i32 0, metadata !46, i32 1613} ; [ DW_TAG_subprogram ]
!1094 = metadata !{i32 786453, i32 0, metadata !"", i32 0, i32 0, i64 0, i64 0, i64 0, i32 0, null, metadata !1095, i32 0, i32 0} ; [ DW_TAG_subroutine_type ]
!1095 = metadata !{metadata !1065, metadata !992, metadata !173}
!1096 = metadata !{i32 786478, i32 0, metadata !976, metadata !"operator=", metadata !"operator=", metadata !"_ZN11ap_int_baseILi33ELb1ELb1EEaSEy", metadata !104, i32 1614, metadata !1097, i1 false, i1 false, i32 0, i32 0, null, i32 256, i1 false, null, null, i32 0, metadata !46, i32 1614} ; [ DW_TAG_subprogram ]
!1097 = metadata !{i32 786453, i32 0, metadata !"", i32 0, i32 0, i64 0, i64 0, i64 0, i32 0, null, metadata !1098, i32 0, i32 0} ; [ DW_TAG_subroutine_type ]
!1098 = metadata !{metadata !1065, metadata !992, metadata !178}
!1099 = metadata !{i32 786478, i32 0, metadata !976, metadata !"operator long long", metadata !"operator long long", metadata !"_ZNK11ap_int_baseILi33ELb1ELb1EEcvxEv", metadata !104, i32 1652, metadata !1100, i1 false, i1 false, i32 0, i32 0, null, i32 256, i1 false, null, null, i32 0, metadata !46, i32 1652} ; [ DW_TAG_subprogram ]
!1100 = metadata !{i32 786453, i32 0, metadata !"", i32 0, i32 0, i64 0, i64 0, i64 0, i32 0, null, metadata !1101, i32 0, i32 0} ; [ DW_TAG_subroutine_type ]
!1101 = metadata !{metadata !1102, metadata !1107}
!1102 = metadata !{i32 786454, metadata !976, metadata !"RetType", metadata !104, i32 1401, i64 0, i64 0, i64 0, i32 0, metadata !1103} ; [ DW_TAG_typedef ]
!1103 = metadata !{i32 786454, metadata !1104, metadata !"Type", metadata !104, i32 1358, i64 0, i64 0, i64 0, i32 0, metadata !173} ; [ DW_TAG_typedef ]
!1104 = metadata !{i32 786434, null, metadata !"retval<5, true>", metadata !104, i32 1357, i64 8, i64 8, i32 0, i32 0, null, metadata !247, i32 0, null, metadata !1105} ; [ DW_TAG_class_type ]
!1105 = metadata !{metadata !1106, metadata !789}
!1106 = metadata !{i32 786480, null, metadata !"_AP_N", metadata !118, i64 5, null, i32 0, i32 0} ; [ DW_TAG_template_value_parameter ]
!1107 = metadata !{i32 786447, i32 0, metadata !"", i32 0, i32 0, i64 64, i64 64, i64 0, i32 64, metadata !997} ; [ DW_TAG_pointer_type ]
!1108 = metadata !{i32 786478, i32 0, metadata !976, metadata !"to_bool", metadata !"to_bool", metadata !"_ZNK11ap_int_baseILi33ELb1ELb1EE7to_boolEv", metadata !104, i32 1658, metadata !1109, i1 false, i1 false, i32 0, i32 0, null, i32 256, i1 false, null, null, i32 0, metadata !46, i32 1658} ; [ DW_TAG_subprogram ]
!1109 = metadata !{i32 786453, i32 0, metadata !"", i32 0, i32 0, i64 0, i64 0, i64 0, i32 0, null, metadata !1110, i32 0, i32 0} ; [ DW_TAG_subroutine_type ]
!1110 = metadata !{metadata !74, metadata !1107}
!1111 = metadata !{i32 786478, i32 0, metadata !976, metadata !"to_uchar", metadata !"to_uchar", metadata !"_ZNK11ap_int_baseILi33ELb1ELb1EE8to_ucharEv", metadata !104, i32 1659, metadata !1109, i1 false, i1 false, i32 0, i32 0, null, i32 256, i1 false, null, null, i32 0, metadata !46, i32 1659} ; [ DW_TAG_subprogram ]
!1112 = metadata !{i32 786478, i32 0, metadata !976, metadata !"to_char", metadata !"to_char", metadata !"_ZNK11ap_int_baseILi33ELb1ELb1EE7to_charEv", metadata !104, i32 1660, metadata !1109, i1 false, i1 false, i32 0, i32 0, null, i32 256, i1 false, null, null, i32 0, metadata !46, i32 1660} ; [ DW_TAG_subprogram ]
!1113 = metadata !{i32 786478, i32 0, metadata !976, metadata !"to_ushort", metadata !"to_ushort", metadata !"_ZNK11ap_int_baseILi33ELb1ELb1EE9to_ushortEv", metadata !104, i32 1661, metadata !1109, i1 false, i1 false, i32 0, i32 0, null, i32 256, i1 false, null, null, i32 0, metadata !46, i32 1661} ; [ DW_TAG_subprogram ]
!1114 = metadata !{i32 786478, i32 0, metadata !976, metadata !"to_short", metadata !"to_short", metadata !"_ZNK11ap_int_baseILi33ELb1ELb1EE8to_shortEv", metadata !104, i32 1662, metadata !1109, i1 false, i1 false, i32 0, i32 0, null, i32 256, i1 false, null, null, i32 0, metadata !46, i32 1662} ; [ DW_TAG_subprogram ]
!1115 = metadata !{i32 786478, i32 0, metadata !976, metadata !"to_int", metadata !"to_int", metadata !"_ZNK11ap_int_baseILi33ELb1ELb1EE6to_intEv", metadata !104, i32 1663, metadata !1116, i1 false, i1 false, i32 0, i32 0, null, i32 256, i1 false, null, null, i32 0, metadata !46, i32 1663} ; [ DW_TAG_subprogram ]
!1116 = metadata !{i32 786453, i32 0, metadata !"", i32 0, i32 0, i64 0, i64 0, i64 0, i32 0, null, metadata !1117, i32 0, i32 0} ; [ DW_TAG_subroutine_type ]
!1117 = metadata !{metadata !118, metadata !1107}
!1118 = metadata !{i32 786478, i32 0, metadata !976, metadata !"to_uint", metadata !"to_uint", metadata !"_ZNK11ap_int_baseILi33ELb1ELb1EE7to_uintEv", metadata !104, i32 1664, metadata !1119, i1 false, i1 false, i32 0, i32 0, null, i32 256, i1 false, null, null, i32 0, metadata !46, i32 1664} ; [ DW_TAG_subprogram ]
!1119 = metadata !{i32 786453, i32 0, metadata !"", i32 0, i32 0, i64 0, i64 0, i64 0, i32 0, null, metadata !1120, i32 0, i32 0} ; [ DW_TAG_subroutine_type ]
!1120 = metadata !{metadata !91, metadata !1107}
!1121 = metadata !{i32 786478, i32 0, metadata !976, metadata !"to_long", metadata !"to_long", metadata !"_ZNK11ap_int_baseILi33ELb1ELb1EE7to_longEv", metadata !104, i32 1665, metadata !1122, i1 false, i1 false, i32 0, i32 0, null, i32 256, i1 false, null, null, i32 0, metadata !46, i32 1665} ; [ DW_TAG_subprogram ]
!1122 = metadata !{i32 786453, i32 0, metadata !"", i32 0, i32 0, i64 0, i64 0, i64 0, i32 0, null, metadata !1123, i32 0, i32 0} ; [ DW_TAG_subroutine_type ]
!1123 = metadata !{metadata !165, metadata !1107}
!1124 = metadata !{i32 786478, i32 0, metadata !976, metadata !"to_ulong", metadata !"to_ulong", metadata !"_ZNK11ap_int_baseILi33ELb1ELb1EE8to_ulongEv", metadata !104, i32 1666, metadata !1125, i1 false, i1 false, i32 0, i32 0, null, i32 256, i1 false, null, null, i32 0, metadata !46, i32 1666} ; [ DW_TAG_subprogram ]
!1125 = metadata !{i32 786453, i32 0, metadata !"", i32 0, i32 0, i64 0, i64 0, i64 0, i32 0, null, metadata !1126, i32 0, i32 0} ; [ DW_TAG_subroutine_type ]
!1126 = metadata !{metadata !169, metadata !1107}
!1127 = metadata !{i32 786478, i32 0, metadata !976, metadata !"to_int64", metadata !"to_int64", metadata !"_ZNK11ap_int_baseILi33ELb1ELb1EE8to_int64Ev", metadata !104, i32 1667, metadata !1128, i1 false, i1 false, i32 0, i32 0, null, i32 256, i1 false, null, null, i32 0, metadata !46, i32 1667} ; [ DW_TAG_subprogram ]
!1128 = metadata !{i32 786453, i32 0, metadata !"", i32 0, i32 0, i64 0, i64 0, i64 0, i32 0, null, metadata !1129, i32 0, i32 0} ; [ DW_TAG_subroutine_type ]
!1129 = metadata !{metadata !173, metadata !1107}
!1130 = metadata !{i32 786478, i32 0, metadata !976, metadata !"to_uint64", metadata !"to_uint64", metadata !"_ZNK11ap_int_baseILi33ELb1ELb1EE9to_uint64Ev", metadata !104, i32 1668, metadata !1131, i1 false, i1 false, i32 0, i32 0, null, i32 256, i1 false, null, null, i32 0, metadata !46, i32 1668} ; [ DW_TAG_subprogram ]
!1131 = metadata !{i32 786453, i32 0, metadata !"", i32 0, i32 0, i64 0, i64 0, i64 0, i32 0, null, metadata !1132, i32 0, i32 0} ; [ DW_TAG_subroutine_type ]
!1132 = metadata !{metadata !178, metadata !1107}
!1133 = metadata !{i32 786478, i32 0, metadata !976, metadata !"to_double", metadata !"to_double", metadata !"_ZNK11ap_int_baseILi33ELb1ELb1EE9to_doubleEv", metadata !104, i32 1669, metadata !1134, i1 false, i1 false, i32 0, i32 0, null, i32 256, i1 false, null, null, i32 0, metadata !46, i32 1669} ; [ DW_TAG_subprogram ]
!1134 = metadata !{i32 786453, i32 0, metadata !"", i32 0, i32 0, i64 0, i64 0, i64 0, i32 0, null, metadata !1135, i32 0, i32 0} ; [ DW_TAG_subroutine_type ]
!1135 = metadata !{metadata !186, metadata !1107}
!1136 = metadata !{i32 786478, i32 0, metadata !976, metadata !"length", metadata !"length", metadata !"_ZNK11ap_int_baseILi33ELb1ELb1EE6lengthEv", metadata !104, i32 1682, metadata !1116, i1 false, i1 false, i32 0, i32 0, null, i32 256, i1 false, null, null, i32 0, metadata !46, i32 1682} ; [ DW_TAG_subprogram ]
!1137 = metadata !{i32 786478, i32 0, metadata !976, metadata !"length", metadata !"length", metadata !"_ZNVK11ap_int_baseILi33ELb1ELb1EE6lengthEv", metadata !104, i32 1683, metadata !1138, i1 false, i1 false, i32 0, i32 0, null, i32 256, i1 false, null, null, i32 0, metadata !46, i32 1683} ; [ DW_TAG_subprogram ]
!1138 = metadata !{i32 786453, i32 0, metadata !"", i32 0, i32 0, i64 0, i64 0, i64 0, i32 0, null, metadata !1139, i32 0, i32 0} ; [ DW_TAG_subroutine_type ]
!1139 = metadata !{metadata !118, metadata !1140}
!1140 = metadata !{i32 786447, i32 0, metadata !"", i32 0, i32 0, i64 64, i64 64, i64 0, i32 64, metadata !1004} ; [ DW_TAG_pointer_type ]
!1141 = metadata !{i32 786478, i32 0, metadata !976, metadata !"reverse", metadata !"reverse", metadata !"_ZN11ap_int_baseILi33ELb1ELb1EE7reverseEv", metadata !104, i32 1688, metadata !1142, i1 false, i1 false, i32 0, i32 0, null, i32 256, i1 false, null, null, i32 0, metadata !46, i32 1688} ; [ DW_TAG_subprogram ]
!1142 = metadata !{i32 786453, i32 0, metadata !"", i32 0, i32 0, i64 0, i64 0, i64 0, i32 0, null, metadata !1143, i32 0, i32 0} ; [ DW_TAG_subroutine_type ]
!1143 = metadata !{metadata !1065, metadata !992}
!1144 = metadata !{i32 786478, i32 0, metadata !976, metadata !"iszero", metadata !"iszero", metadata !"_ZNK11ap_int_baseILi33ELb1ELb1EE6iszeroEv", metadata !104, i32 1694, metadata !1109, i1 false, i1 false, i32 0, i32 0, null, i32 256, i1 false, null, null, i32 0, metadata !46, i32 1694} ; [ DW_TAG_subprogram ]
!1145 = metadata !{i32 786478, i32 0, metadata !976, metadata !"is_zero", metadata !"is_zero", metadata !"_ZNK11ap_int_baseILi33ELb1ELb1EE7is_zeroEv", metadata !104, i32 1699, metadata !1109, i1 false, i1 false, i32 0, i32 0, null, i32 256, i1 false, null, null, i32 0, metadata !46, i32 1699} ; [ DW_TAG_subprogram ]
!1146 = metadata !{i32 786478, i32 0, metadata !976, metadata !"sign", metadata !"sign", metadata !"_ZNK11ap_int_baseILi33ELb1ELb1EE4signEv", metadata !104, i32 1704, metadata !1109, i1 false, i1 false, i32 0, i32 0, null, i32 256, i1 false, null, null, i32 0, metadata !46, i32 1704} ; [ DW_TAG_subprogram ]
!1147 = metadata !{i32 786478, i32 0, metadata !976, metadata !"clear", metadata !"clear", metadata !"_ZN11ap_int_baseILi33ELb1ELb1EE5clearEi", metadata !104, i32 1712, metadata !1022, i1 false, i1 false, i32 0, i32 0, null, i32 256, i1 false, null, null, i32 0, metadata !46, i32 1712} ; [ DW_TAG_subprogram ]
!1148 = metadata !{i32 786478, i32 0, metadata !976, metadata !"invert", metadata !"invert", metadata !"_ZN11ap_int_baseILi33ELb1ELb1EE6invertEi", metadata !104, i32 1718, metadata !1022, i1 false, i1 false, i32 0, i32 0, null, i32 256, i1 false, null, null, i32 0, metadata !46, i32 1718} ; [ DW_TAG_subprogram ]
!1149 = metadata !{i32 786478, i32 0, metadata !976, metadata !"test", metadata !"test", metadata !"_ZNK11ap_int_baseILi33ELb1ELb1EE4testEi", metadata !104, i32 1726, metadata !1150, i1 false, i1 false, i32 0, i32 0, null, i32 256, i1 false, null, null, i32 0, metadata !46, i32 1726} ; [ DW_TAG_subprogram ]
!1150 = metadata !{i32 786453, i32 0, metadata !"", i32 0, i32 0, i64 0, i64 0, i64 0, i32 0, null, metadata !1151, i32 0, i32 0} ; [ DW_TAG_subroutine_type ]
!1151 = metadata !{metadata !74, metadata !1107, metadata !118}
!1152 = metadata !{i32 786478, i32 0, metadata !976, metadata !"set", metadata !"set", metadata !"_ZN11ap_int_baseILi33ELb1ELb1EE3setEi", metadata !104, i32 1732, metadata !1022, i1 false, i1 false, i32 0, i32 0, null, i32 256, i1 false, null, null, i32 0, metadata !46, i32 1732} ; [ DW_TAG_subprogram ]
!1153 = metadata !{i32 786478, i32 0, metadata !976, metadata !"set", metadata !"set", metadata !"_ZN11ap_int_baseILi33ELb1ELb1EE3setEib", metadata !104, i32 1738, metadata !1154, i1 false, i1 false, i32 0, i32 0, null, i32 256, i1 false, null, null, i32 0, metadata !46, i32 1738} ; [ DW_TAG_subprogram ]
!1154 = metadata !{i32 786453, i32 0, metadata !"", i32 0, i32 0, i64 0, i64 0, i64 0, i32 0, null, metadata !1155, i32 0, i32 0} ; [ DW_TAG_subroutine_type ]
!1155 = metadata !{null, metadata !992, metadata !118, metadata !74}
!1156 = metadata !{i32 786478, i32 0, metadata !976, metadata !"lrotate", metadata !"lrotate", metadata !"_ZN11ap_int_baseILi33ELb1ELb1EE7lrotateEi", metadata !104, i32 1745, metadata !1022, i1 false, i1 false, i32 0, i32 0, null, i32 256, i1 false, null, null, i32 0, metadata !46, i32 1745} ; [ DW_TAG_subprogram ]
!1157 = metadata !{i32 786478, i32 0, metadata !976, metadata !"rrotate", metadata !"rrotate", metadata !"_ZN11ap_int_baseILi33ELb1ELb1EE7rrotateEi", metadata !104, i32 1754, metadata !1022, i1 false, i1 false, i32 0, i32 0, null, i32 256, i1 false, null, null, i32 0, metadata !46, i32 1754} ; [ DW_TAG_subprogram ]
!1158 = metadata !{i32 786478, i32 0, metadata !976, metadata !"set_bit", metadata !"set_bit", metadata !"_ZN11ap_int_baseILi33ELb1ELb1EE7set_bitEib", metadata !104, i32 1762, metadata !1154, i1 false, i1 false, i32 0, i32 0, null, i32 256, i1 false, null, null, i32 0, metadata !46, i32 1762} ; [ DW_TAG_subprogram ]
!1159 = metadata !{i32 786478, i32 0, metadata !976, metadata !"get_bit", metadata !"get_bit", metadata !"_ZNK11ap_int_baseILi33ELb1ELb1EE7get_bitEi", metadata !104, i32 1767, metadata !1150, i1 false, i1 false, i32 0, i32 0, null, i32 256, i1 false, null, null, i32 0, metadata !46, i32 1767} ; [ DW_TAG_subprogram ]
!1160 = metadata !{i32 786478, i32 0, metadata !976, metadata !"b_not", metadata !"b_not", metadata !"_ZN11ap_int_baseILi33ELb1ELb1EE5b_notEv", metadata !104, i32 1772, metadata !990, i1 false, i1 false, i32 0, i32 0, null, i32 256, i1 false, null, null, i32 0, metadata !46, i32 1772} ; [ DW_TAG_subprogram ]
!1161 = metadata !{i32 786478, i32 0, metadata !976, metadata !"countLeadingZeros", metadata !"countLeadingZeros", metadata !"_ZN11ap_int_baseILi33ELb1ELb1EE17countLeadingZerosEv", metadata !104, i32 1779, metadata !1162, i1 false, i1 false, i32 0, i32 0, null, i32 256, i1 false, null, null, i32 0, metadata !46, i32 1779} ; [ DW_TAG_subprogram ]
!1162 = metadata !{i32 786453, i32 0, metadata !"", i32 0, i32 0, i64 0, i64 0, i64 0, i32 0, null, metadata !1163, i32 0, i32 0} ; [ DW_TAG_subroutine_type ]
!1163 = metadata !{metadata !118, metadata !992}
!1164 = metadata !{i32 786478, i32 0, metadata !976, metadata !"operator++", metadata !"operator++", metadata !"_ZN11ap_int_baseILi33ELb1ELb1EEppEv", metadata !104, i32 1836, metadata !1142, i1 false, i1 false, i32 0, i32 0, null, i32 256, i1 false, null, null, i32 0, metadata !46, i32 1836} ; [ DW_TAG_subprogram ]
!1165 = metadata !{i32 786478, i32 0, metadata !976, metadata !"operator--", metadata !"operator--", metadata !"_ZN11ap_int_baseILi33ELb1ELb1EEmmEv", metadata !104, i32 1840, metadata !1142, i1 false, i1 false, i32 0, i32 0, null, i32 256, i1 false, null, null, i32 0, metadata !46, i32 1840} ; [ DW_TAG_subprogram ]
!1166 = metadata !{i32 786478, i32 0, metadata !976, metadata !"operator++", metadata !"operator++", metadata !"_ZN11ap_int_baseILi33ELb1ELb1EEppEi", metadata !104, i32 1848, metadata !1167, i1 false, i1 false, i32 0, i32 0, null, i32 256, i1 false, null, null, i32 0, metadata !46, i32 1848} ; [ DW_TAG_subprogram ]
!1167 = metadata !{i32 786453, i32 0, metadata !"", i32 0, i32 0, i64 0, i64 0, i64 0, i32 0, null, metadata !1168, i32 0, i32 0} ; [ DW_TAG_subroutine_type ]
!1168 = metadata !{metadata !997, metadata !992, metadata !118}
!1169 = metadata !{i32 786478, i32 0, metadata !976, metadata !"operator--", metadata !"operator--", metadata !"_ZN11ap_int_baseILi33ELb1ELb1EEmmEi", metadata !104, i32 1853, metadata !1167, i1 false, i1 false, i32 0, i32 0, null, i32 256, i1 false, null, null, i32 0, metadata !46, i32 1853} ; [ DW_TAG_subprogram ]
!1170 = metadata !{i32 786478, i32 0, metadata !976, metadata !"operator+", metadata !"operator+", metadata !"_ZNK11ap_int_baseILi33ELb1ELb1EEpsEv", metadata !104, i32 1862, metadata !1171, i1 false, i1 false, i32 0, i32 0, null, i32 256, i1 false, null, null, i32 0, metadata !46, i32 1862} ; [ DW_TAG_subprogram ]
!1171 = metadata !{i32 786453, i32 0, metadata !"", i32 0, i32 0, i64 0, i64 0, i64 0, i32 0, null, metadata !1172, i32 0, i32 0} ; [ DW_TAG_subroutine_type ]
!1172 = metadata !{metadata !976, metadata !1107}
!1173 = metadata !{i32 786478, i32 0, metadata !976, metadata !"operator!", metadata !"operator!", metadata !"_ZNK11ap_int_baseILi33ELb1ELb1EEntEv", metadata !104, i32 1868, metadata !1109, i1 false, i1 false, i32 0, i32 0, null, i32 256, i1 false, null, null, i32 0, metadata !46, i32 1868} ; [ DW_TAG_subprogram ]
!1174 = metadata !{i32 786478, i32 0, metadata !976, metadata !"operator-", metadata !"operator-", metadata !"_ZNK11ap_int_baseILi33ELb1ELb1EEngEv", metadata !104, i32 1873, metadata !1175, i1 false, i1 false, i32 0, i32 0, null, i32 256, i1 false, null, null, i32 0, metadata !46, i32 1873} ; [ DW_TAG_subprogram ]
!1175 = metadata !{i32 786453, i32 0, metadata !"", i32 0, i32 0, i64 0, i64 0, i64 0, i32 0, null, metadata !1176, i32 0, i32 0} ; [ DW_TAG_subroutine_type ]
!1176 = metadata !{metadata !1177, metadata !1107}
!1177 = metadata !{i32 786434, null, metadata !"ap_int_base<34, true, true>", metadata !104, i32 649, i32 0, i32 0, i32 0, i32 4, null, null, i32 0} ; [ DW_TAG_class_type ]
!1178 = metadata !{i32 786478, i32 0, metadata !976, metadata !"range", metadata !"range", metadata !"_ZN11ap_int_baseILi33ELb1ELb1EE5rangeEii", metadata !104, i32 2003, metadata !1179, i1 false, i1 false, i32 0, i32 0, null, i32 256, i1 false, null, null, i32 0, metadata !46, i32 2003} ; [ DW_TAG_subprogram ]
!1179 = metadata !{i32 786453, i32 0, metadata !"", i32 0, i32 0, i64 0, i64 0, i64 0, i32 0, null, metadata !1180, i32 0, i32 0} ; [ DW_TAG_subroutine_type ]
!1180 = metadata !{metadata !1181, metadata !992, metadata !118, metadata !118}
!1181 = metadata !{i32 786434, null, metadata !"ap_range_ref<33, true>", metadata !104, i32 922, i32 0, i32 0, i32 0, i32 4, null, null, i32 0} ; [ DW_TAG_class_type ]
!1182 = metadata !{i32 786478, i32 0, metadata !976, metadata !"operator()", metadata !"operator()", metadata !"_ZN11ap_int_baseILi33ELb1ELb1EEclEii", metadata !104, i32 2009, metadata !1179, i1 false, i1 false, i32 0, i32 0, null, i32 256, i1 false, null, null, i32 0, metadata !46, i32 2009} ; [ DW_TAG_subprogram ]
!1183 = metadata !{i32 786478, i32 0, metadata !976, metadata !"range", metadata !"range", metadata !"_ZNK11ap_int_baseILi33ELb1ELb1EE5rangeEii", metadata !104, i32 2015, metadata !1184, i1 false, i1 false, i32 0, i32 0, null, i32 256, i1 false, null, null, i32 0, metadata !46, i32 2015} ; [ DW_TAG_subprogram ]
!1184 = metadata !{i32 786453, i32 0, metadata !"", i32 0, i32 0, i64 0, i64 0, i64 0, i32 0, null, metadata !1185, i32 0, i32 0} ; [ DW_TAG_subroutine_type ]
!1185 = metadata !{metadata !1181, metadata !1107, metadata !118, metadata !118}
!1186 = metadata !{i32 786478, i32 0, metadata !976, metadata !"operator()", metadata !"operator()", metadata !"_ZNK11ap_int_baseILi33ELb1ELb1EEclEii", metadata !104, i32 2021, metadata !1184, i1 false, i1 false, i32 0, i32 0, null, i32 256, i1 false, null, null, i32 0, metadata !46, i32 2021} ; [ DW_TAG_subprogram ]
!1187 = metadata !{i32 786478, i32 0, metadata !976, metadata !"operator[]", metadata !"operator[]", metadata !"_ZN11ap_int_baseILi33ELb1ELb1EEixEi", metadata !104, i32 2040, metadata !1188, i1 false, i1 false, i32 0, i32 0, null, i32 256, i1 false, null, null, i32 0, metadata !46, i32 2040} ; [ DW_TAG_subprogram ]
!1188 = metadata !{i32 786453, i32 0, metadata !"", i32 0, i32 0, i64 0, i64 0, i64 0, i32 0, null, metadata !1189, i32 0, i32 0} ; [ DW_TAG_subroutine_type ]
!1189 = metadata !{metadata !1190, metadata !992, metadata !118}
!1190 = metadata !{i32 786434, null, metadata !"ap_bit_ref<33, true>", metadata !104, i32 1192, i64 128, i64 64, i32 0, i32 0, null, metadata !1191, i32 0, null, metadata !1224} ; [ DW_TAG_class_type ]
!1191 = metadata !{metadata !1192, metadata !1193, metadata !1194, metadata !1200, metadata !1204, metadata !1208, metadata !1209, metadata !1213, metadata !1216, metadata !1217, metadata !1220, metadata !1221}
!1192 = metadata !{i32 786445, metadata !1190, metadata !"d_bv", metadata !104, i32 1193, i64 64, i64 64, i64 0, i32 0, metadata !1065} ; [ DW_TAG_member ]
!1193 = metadata !{i32 786445, metadata !1190, metadata !"d_index", metadata !104, i32 1194, i64 32, i64 32, i64 64, i32 0, metadata !118} ; [ DW_TAG_member ]
!1194 = metadata !{i32 786478, i32 0, metadata !1190, metadata !"ap_bit_ref", metadata !"ap_bit_ref", metadata !"", metadata !104, i32 1197, metadata !1195, i1 false, i1 false, i32 0, i32 0, null, i32 256, i1 false, null, null, i32 0, metadata !46, i32 1197} ; [ DW_TAG_subprogram ]
!1195 = metadata !{i32 786453, i32 0, metadata !"", i32 0, i32 0, i64 0, i64 0, i64 0, i32 0, null, metadata !1196, i32 0, i32 0} ; [ DW_TAG_subroutine_type ]
!1196 = metadata !{null, metadata !1197, metadata !1198}
!1197 = metadata !{i32 786447, i32 0, metadata !"", i32 0, i32 0, i64 64, i64 64, i64 0, i32 64, metadata !1190} ; [ DW_TAG_pointer_type ]
!1198 = metadata !{i32 786448, null, null, null, i32 0, i64 0, i64 0, i64 0, i32 0, metadata !1199} ; [ DW_TAG_reference_type ]
!1199 = metadata !{i32 786470, null, metadata !"", null, i32 0, i64 0, i64 0, i64 0, i32 0, metadata !1190} ; [ DW_TAG_const_type ]
!1200 = metadata !{i32 786478, i32 0, metadata !1190, metadata !"ap_bit_ref", metadata !"ap_bit_ref", metadata !"", metadata !104, i32 1200, metadata !1201, i1 false, i1 false, i32 0, i32 0, null, i32 256, i1 false, null, null, i32 0, metadata !46, i32 1200} ; [ DW_TAG_subprogram ]
!1201 = metadata !{i32 786453, i32 0, metadata !"", i32 0, i32 0, i64 0, i64 0, i64 0, i32 0, null, metadata !1202, i32 0, i32 0} ; [ DW_TAG_subroutine_type ]
!1202 = metadata !{null, metadata !1197, metadata !1203, metadata !118}
!1203 = metadata !{i32 786447, null, metadata !"", null, i32 0, i64 64, i64 64, i64 0, i32 0, metadata !976} ; [ DW_TAG_pointer_type ]
!1204 = metadata !{i32 786478, i32 0, metadata !1190, metadata !"operator _Bool", metadata !"operator _Bool", metadata !"_ZNK10ap_bit_refILi33ELb1EEcvbEv", metadata !104, i32 1202, metadata !1205, i1 false, i1 false, i32 0, i32 0, null, i32 256, i1 false, null, null, i32 0, metadata !46, i32 1202} ; [ DW_TAG_subprogram ]
!1205 = metadata !{i32 786453, i32 0, metadata !"", i32 0, i32 0, i64 0, i64 0, i64 0, i32 0, null, metadata !1206, i32 0, i32 0} ; [ DW_TAG_subroutine_type ]
!1206 = metadata !{metadata !74, metadata !1207}
!1207 = metadata !{i32 786447, i32 0, metadata !"", i32 0, i32 0, i64 64, i64 64, i64 0, i32 64, metadata !1199} ; [ DW_TAG_pointer_type ]
!1208 = metadata !{i32 786478, i32 0, metadata !1190, metadata !"to_bool", metadata !"to_bool", metadata !"_ZNK10ap_bit_refILi33ELb1EE7to_boolEv", metadata !104, i32 1203, metadata !1205, i1 false, i1 false, i32 0, i32 0, null, i32 256, i1 false, null, null, i32 0, metadata !46, i32 1203} ; [ DW_TAG_subprogram ]
!1209 = metadata !{i32 786478, i32 0, metadata !1190, metadata !"operator=", metadata !"operator=", metadata !"_ZN10ap_bit_refILi33ELb1EEaSEy", metadata !104, i32 1205, metadata !1210, i1 false, i1 false, i32 0, i32 0, null, i32 256, i1 false, null, null, i32 0, metadata !46, i32 1205} ; [ DW_TAG_subprogram ]
!1210 = metadata !{i32 786453, i32 0, metadata !"", i32 0, i32 0, i64 0, i64 0, i64 0, i32 0, null, metadata !1211, i32 0, i32 0} ; [ DW_TAG_subroutine_type ]
!1211 = metadata !{metadata !1212, metadata !1197, metadata !97}
!1212 = metadata !{i32 786448, null, null, null, i32 0, i64 0, i64 0, i64 0, i32 0, metadata !1190} ; [ DW_TAG_reference_type ]
!1213 = metadata !{i32 786478, i32 0, metadata !1190, metadata !"operator=", metadata !"operator=", metadata !"_ZN10ap_bit_refILi33ELb1EEaSERKS0_", metadata !104, i32 1225, metadata !1214, i1 false, i1 false, i32 0, i32 0, null, i32 256, i1 false, null, null, i32 0, metadata !46, i32 1225} ; [ DW_TAG_subprogram ]
!1214 = metadata !{i32 786453, i32 0, metadata !"", i32 0, i32 0, i64 0, i64 0, i64 0, i32 0, null, metadata !1215, i32 0, i32 0} ; [ DW_TAG_subroutine_type ]
!1215 = metadata !{metadata !1212, metadata !1197, metadata !1198}
!1216 = metadata !{i32 786478, i32 0, metadata !1190, metadata !"get", metadata !"get", metadata !"_ZNK10ap_bit_refILi33ELb1EE3getEv", metadata !104, i32 1333, metadata !1205, i1 false, i1 false, i32 0, i32 0, null, i32 256, i1 false, null, null, i32 0, metadata !46, i32 1333} ; [ DW_TAG_subprogram ]
!1217 = metadata !{i32 786478, i32 0, metadata !1190, metadata !"get", metadata !"get", metadata !"_ZN10ap_bit_refILi33ELb1EE3getEv", metadata !104, i32 1337, metadata !1218, i1 false, i1 false, i32 0, i32 0, null, i32 256, i1 false, null, null, i32 0, metadata !46, i32 1337} ; [ DW_TAG_subprogram ]
!1218 = metadata !{i32 786453, i32 0, metadata !"", i32 0, i32 0, i64 0, i64 0, i64 0, i32 0, null, metadata !1219, i32 0, i32 0} ; [ DW_TAG_subroutine_type ]
!1219 = metadata !{metadata !74, metadata !1197}
!1220 = metadata !{i32 786478, i32 0, metadata !1190, metadata !"operator~", metadata !"operator~", metadata !"_ZNK10ap_bit_refILi33ELb1EEcoEv", metadata !104, i32 1346, metadata !1205, i1 false, i1 false, i32 0, i32 0, null, i32 256, i1 false, null, null, i32 0, metadata !46, i32 1346} ; [ DW_TAG_subprogram ]
!1221 = metadata !{i32 786478, i32 0, metadata !1190, metadata !"length", metadata !"length", metadata !"_ZNK10ap_bit_refILi33ELb1EE6lengthEv", metadata !104, i32 1351, metadata !1222, i1 false, i1 false, i32 0, i32 0, null, i32 256, i1 false, null, null, i32 0, metadata !46, i32 1351} ; [ DW_TAG_subprogram ]
!1222 = metadata !{i32 786453, i32 0, metadata !"", i32 0, i32 0, i64 0, i64 0, i64 0, i32 0, null, metadata !1223, i32 0, i32 0} ; [ DW_TAG_subroutine_type ]
!1223 = metadata !{metadata !118, metadata !1207}
!1224 = metadata !{metadata !1225, metadata !789}
!1225 = metadata !{i32 786480, null, metadata !"_AP_W", metadata !118, i64 33, null, i32 0, i32 0} ; [ DW_TAG_template_value_parameter ]
!1226 = metadata !{i32 786478, i32 0, metadata !976, metadata !"operator[]", metadata !"operator[]", metadata !"_ZNK11ap_int_baseILi33ELb1ELb1EEixEi", metadata !104, i32 2054, metadata !1150, i1 false, i1 false, i32 0, i32 0, null, i32 256, i1 false, null, null, i32 0, metadata !46, i32 2054} ; [ DW_TAG_subprogram ]
!1227 = metadata !{i32 786478, i32 0, metadata !976, metadata !"bit", metadata !"bit", metadata !"_ZN11ap_int_baseILi33ELb1ELb1EE3bitEi", metadata !104, i32 2068, metadata !1188, i1 false, i1 false, i32 0, i32 0, null, i32 256, i1 false, null, null, i32 0, metadata !46, i32 2068} ; [ DW_TAG_subprogram ]
!1228 = metadata !{i32 786478, i32 0, metadata !976, metadata !"bit", metadata !"bit", metadata !"_ZNK11ap_int_baseILi33ELb1ELb1EE3bitEi", metadata !104, i32 2082, metadata !1150, i1 false, i1 false, i32 0, i32 0, null, i32 256, i1 false, null, null, i32 0, metadata !46, i32 2082} ; [ DW_TAG_subprogram ]
!1229 = metadata !{i32 786478, i32 0, metadata !976, metadata !"and_reduce", metadata !"and_reduce", metadata !"_ZN11ap_int_baseILi33ELb1ELb1EE10and_reduceEv", metadata !104, i32 2262, metadata !1230, i1 false, i1 false, i32 0, i32 0, null, i32 256, i1 false, null, null, i32 0, metadata !46, i32 2262} ; [ DW_TAG_subprogram ]
!1230 = metadata !{i32 786453, i32 0, metadata !"", i32 0, i32 0, i64 0, i64 0, i64 0, i32 0, null, metadata !1231, i32 0, i32 0} ; [ DW_TAG_subroutine_type ]
!1231 = metadata !{metadata !74, metadata !992}
!1232 = metadata !{i32 786478, i32 0, metadata !976, metadata !"nand_reduce", metadata !"nand_reduce", metadata !"_ZN11ap_int_baseILi33ELb1ELb1EE11nand_reduceEv", metadata !104, i32 2265, metadata !1230, i1 false, i1 false, i32 0, i32 0, null, i32 256, i1 false, null, null, i32 0, metadata !46, i32 2265} ; [ DW_TAG_subprogram ]
!1233 = metadata !{i32 786478, i32 0, metadata !976, metadata !"or_reduce", metadata !"or_reduce", metadata !"_ZN11ap_int_baseILi33ELb1ELb1EE9or_reduceEv", metadata !104, i32 2268, metadata !1230, i1 false, i1 false, i32 0, i32 0, null, i32 256, i1 false, null, null, i32 0, metadata !46, i32 2268} ; [ DW_TAG_subprogram ]
!1234 = metadata !{i32 786478, i32 0, metadata !976, metadata !"nor_reduce", metadata !"nor_reduce", metadata !"_ZN11ap_int_baseILi33ELb1ELb1EE10nor_reduceEv", metadata !104, i32 2271, metadata !1230, i1 false, i1 false, i32 0, i32 0, null, i32 256, i1 false, null, null, i32 0, metadata !46, i32 2271} ; [ DW_TAG_subprogram ]
!1235 = metadata !{i32 786478, i32 0, metadata !976, metadata !"xor_reduce", metadata !"xor_reduce", metadata !"_ZN11ap_int_baseILi33ELb1ELb1EE10xor_reduceEv", metadata !104, i32 2274, metadata !1230, i1 false, i1 false, i32 0, i32 0, null, i32 256, i1 false, null, null, i32 0, metadata !46, i32 2274} ; [ DW_TAG_subprogram ]
!1236 = metadata !{i32 786478, i32 0, metadata !976, metadata !"xnor_reduce", metadata !"xnor_reduce", metadata !"_ZN11ap_int_baseILi33ELb1ELb1EE11xnor_reduceEv", metadata !104, i32 2277, metadata !1230, i1 false, i1 false, i32 0, i32 0, null, i32 256, i1 false, null, null, i32 0, metadata !46, i32 2277} ; [ DW_TAG_subprogram ]
!1237 = metadata !{i32 786478, i32 0, metadata !976, metadata !"and_reduce", metadata !"and_reduce", metadata !"_ZNK11ap_int_baseILi33ELb1ELb1EE10and_reduceEv", metadata !104, i32 2281, metadata !1109, i1 false, i1 false, i32 0, i32 0, null, i32 256, i1 false, null, null, i32 0, metadata !46, i32 2281} ; [ DW_TAG_subprogram ]
!1238 = metadata !{i32 786478, i32 0, metadata !976, metadata !"nand_reduce", metadata !"nand_reduce", metadata !"_ZNK11ap_int_baseILi33ELb1ELb1EE11nand_reduceEv", metadata !104, i32 2284, metadata !1109, i1 false, i1 false, i32 0, i32 0, null, i32 256, i1 false, null, null, i32 0, metadata !46, i32 2284} ; [ DW_TAG_subprogram ]
!1239 = metadata !{i32 786478, i32 0, metadata !976, metadata !"or_reduce", metadata !"or_reduce", metadata !"_ZNK11ap_int_baseILi33ELb1ELb1EE9or_reduceEv", metadata !104, i32 2287, metadata !1109, i1 false, i1 false, i32 0, i32 0, null, i32 256, i1 false, null, null, i32 0, metadata !46, i32 2287} ; [ DW_TAG_subprogram ]
!1240 = metadata !{i32 786478, i32 0, metadata !976, metadata !"nor_reduce", metadata !"nor_reduce", metadata !"_ZNK11ap_int_baseILi33ELb1ELb1EE10nor_reduceEv", metadata !104, i32 2290, metadata !1109, i1 false, i1 false, i32 0, i32 0, null, i32 256, i1 false, null, null, i32 0, metadata !46, i32 2290} ; [ DW_TAG_subprogram ]
!1241 = metadata !{i32 786478, i32 0, metadata !976, metadata !"xor_reduce", metadata !"xor_reduce", metadata !"_ZNK11ap_int_baseILi33ELb1ELb1EE10xor_reduceEv", metadata !104, i32 2293, metadata !1109, i1 false, i1 false, i32 0, i32 0, null, i32 256, i1 false, null, null, i32 0, metadata !46, i32 2293} ; [ DW_TAG_subprogram ]
!1242 = metadata !{i32 786478, i32 0, metadata !976, metadata !"xnor_reduce", metadata !"xnor_reduce", metadata !"_ZNK11ap_int_baseILi33ELb1ELb1EE11xnor_reduceEv", metadata !104, i32 2296, metadata !1109, i1 false, i1 false, i32 0, i32 0, null, i32 256, i1 false, null, null, i32 0, metadata !46, i32 2296} ; [ DW_TAG_subprogram ]
!1243 = metadata !{i32 786478, i32 0, metadata !976, metadata !"to_string", metadata !"to_string", metadata !"_ZNK11ap_int_baseILi33ELb1ELb1EE9to_stringEPci8BaseModeb", metadata !104, i32 2303, metadata !1244, i1 false, i1 false, i32 0, i32 0, null, i32 256, i1 false, null, null, i32 0, metadata !46, i32 2303} ; [ DW_TAG_subprogram ]
!1244 = metadata !{i32 786453, i32 0, metadata !"", i32 0, i32 0, i64 0, i64 0, i64 0, i32 0, null, metadata !1245, i32 0, i32 0} ; [ DW_TAG_subroutine_type ]
!1245 = metadata !{null, metadata !1107, metadata !354, metadata !118, metadata !355, metadata !74}
!1246 = metadata !{i32 786478, i32 0, metadata !976, metadata !"to_string", metadata !"to_string", metadata !"_ZNK11ap_int_baseILi33ELb1ELb1EE9to_stringE8BaseModeb", metadata !104, i32 2330, metadata !1247, i1 false, i1 false, i32 0, i32 0, null, i32 256, i1 false, null, null, i32 0, metadata !46, i32 2330} ; [ DW_TAG_subprogram ]
!1247 = metadata !{i32 786453, i32 0, metadata !"", i32 0, i32 0, i64 0, i64 0, i64 0, i32 0, null, metadata !1248, i32 0, i32 0} ; [ DW_TAG_subroutine_type ]
!1248 = metadata !{metadata !354, metadata !1107, metadata !355, metadata !74}
!1249 = metadata !{i32 786478, i32 0, metadata !976, metadata !"to_string", metadata !"to_string", metadata !"_ZNK11ap_int_baseILi33ELb1ELb1EE9to_stringEab", metadata !104, i32 2334, metadata !1250, i1 false, i1 false, i32 0, i32 0, null, i32 256, i1 false, null, null, i32 0, metadata !46, i32 2334} ; [ DW_TAG_subprogram ]
!1250 = metadata !{i32 786453, i32 0, metadata !"", i32 0, i32 0, i64 0, i64 0, i64 0, i32 0, null, metadata !1251, i32 0, i32 0} ; [ DW_TAG_subroutine_type ]
!1251 = metadata !{metadata !354, metadata !1107, metadata !144, metadata !74}
!1252 = metadata !{metadata !1225, metadata !789, metadata !370}
!1253 = metadata !{i32 786478, i32 0, metadata !776, metadata !"range", metadata !"range", metadata !"_ZN11ap_int_baseILi32ELb1ELb1EE5rangeEii", metadata !104, i32 2003, metadata !1254, i1 false, i1 false, i32 0, i32 0, null, i32 256, i1 false, null, null, i32 0, metadata !46, i32 2003} ; [ DW_TAG_subprogram ]
!1254 = metadata !{i32 786453, i32 0, metadata !"", i32 0, i32 0, i64 0, i64 0, i64 0, i32 0, null, metadata !1255, i32 0, i32 0} ; [ DW_TAG_subroutine_type ]
!1255 = metadata !{metadata !1256, metadata !775, metadata !118, metadata !118}
!1256 = metadata !{i32 786434, null, metadata !"ap_range_ref<32, true>", metadata !104, i32 922, i32 0, i32 0, i32 0, i32 4, null, null, i32 0} ; [ DW_TAG_class_type ]
!1257 = metadata !{i32 786478, i32 0, metadata !776, metadata !"operator()", metadata !"operator()", metadata !"_ZN11ap_int_baseILi32ELb1ELb1EEclEii", metadata !104, i32 2009, metadata !1254, i1 false, i1 false, i32 0, i32 0, null, i32 256, i1 false, null, null, i32 0, metadata !46, i32 2009} ; [ DW_TAG_subprogram ]
!1258 = metadata !{i32 786478, i32 0, metadata !776, metadata !"range", metadata !"range", metadata !"_ZNK11ap_int_baseILi32ELb1ELb1EE5rangeEii", metadata !104, i32 2015, metadata !1259, i1 false, i1 false, i32 0, i32 0, null, i32 256, i1 false, null, null, i32 0, metadata !46, i32 2015} ; [ DW_TAG_subprogram ]
!1259 = metadata !{i32 786453, i32 0, metadata !"", i32 0, i32 0, i64 0, i64 0, i64 0, i32 0, null, metadata !1260, i32 0, i32 0} ; [ DW_TAG_subroutine_type ]
!1260 = metadata !{metadata !1256, metadata !906, metadata !118, metadata !118}
!1261 = metadata !{i32 786478, i32 0, metadata !776, metadata !"operator()", metadata !"operator()", metadata !"_ZNK11ap_int_baseILi32ELb1ELb1EEclEii", metadata !104, i32 2021, metadata !1259, i1 false, i1 false, i32 0, i32 0, null, i32 256, i1 false, null, null, i32 0, metadata !46, i32 2021} ; [ DW_TAG_subprogram ]
!1262 = metadata !{i32 786478, i32 0, metadata !776, metadata !"operator[]", metadata !"operator[]", metadata !"_ZN11ap_int_baseILi32ELb1ELb1EEixEi", metadata !104, i32 2040, metadata !1263, i1 false, i1 false, i32 0, i32 0, null, i32 256, i1 false, null, null, i32 0, metadata !46, i32 2040} ; [ DW_TAG_subprogram ]
!1263 = metadata !{i32 786453, i32 0, metadata !"", i32 0, i32 0, i64 0, i64 0, i64 0, i32 0, null, metadata !1264, i32 0, i32 0} ; [ DW_TAG_subroutine_type ]
!1264 = metadata !{metadata !1265, metadata !775, metadata !118}
!1265 = metadata !{i32 786434, null, metadata !"ap_bit_ref<32, true>", metadata !104, i32 1192, i32 0, i32 0, i32 0, i32 4, null, null, i32 0} ; [ DW_TAG_class_type ]
!1266 = metadata !{i32 786478, i32 0, metadata !776, metadata !"operator[]", metadata !"operator[]", metadata !"_ZNK11ap_int_baseILi32ELb1ELb1EEixEi", metadata !104, i32 2054, metadata !949, i1 false, i1 false, i32 0, i32 0, null, i32 256, i1 false, null, null, i32 0, metadata !46, i32 2054} ; [ DW_TAG_subprogram ]
!1267 = metadata !{i32 786478, i32 0, metadata !776, metadata !"bit", metadata !"bit", metadata !"_ZN11ap_int_baseILi32ELb1ELb1EE3bitEi", metadata !104, i32 2068, metadata !1263, i1 false, i1 false, i32 0, i32 0, null, i32 256, i1 false, null, null, i32 0, metadata !46, i32 2068} ; [ DW_TAG_subprogram ]
!1268 = metadata !{i32 786478, i32 0, metadata !776, metadata !"bit", metadata !"bit", metadata !"_ZNK11ap_int_baseILi32ELb1ELb1EE3bitEi", metadata !104, i32 2082, metadata !949, i1 false, i1 false, i32 0, i32 0, null, i32 256, i1 false, null, null, i32 0, metadata !46, i32 2082} ; [ DW_TAG_subprogram ]
!1269 = metadata !{i32 786478, i32 0, metadata !776, metadata !"and_reduce", metadata !"and_reduce", metadata !"_ZN11ap_int_baseILi32ELb1ELb1EE10and_reduceEv", metadata !104, i32 2262, metadata !1270, i1 false, i1 false, i32 0, i32 0, null, i32 256, i1 false, null, null, i32 0, metadata !46, i32 2262} ; [ DW_TAG_subprogram ]
!1270 = metadata !{i32 786453, i32 0, metadata !"", i32 0, i32 0, i64 0, i64 0, i64 0, i32 0, null, metadata !1271, i32 0, i32 0} ; [ DW_TAG_subroutine_type ]
!1271 = metadata !{metadata !74, metadata !775}
!1272 = metadata !{i32 786478, i32 0, metadata !776, metadata !"nand_reduce", metadata !"nand_reduce", metadata !"_ZN11ap_int_baseILi32ELb1ELb1EE11nand_reduceEv", metadata !104, i32 2265, metadata !1270, i1 false, i1 false, i32 0, i32 0, null, i32 256, i1 false, null, null, i32 0, metadata !46, i32 2265} ; [ DW_TAG_subprogram ]
!1273 = metadata !{i32 786478, i32 0, metadata !776, metadata !"or_reduce", metadata !"or_reduce", metadata !"_ZN11ap_int_baseILi32ELb1ELb1EE9or_reduceEv", metadata !104, i32 2268, metadata !1270, i1 false, i1 false, i32 0, i32 0, null, i32 256, i1 false, null, null, i32 0, metadata !46, i32 2268} ; [ DW_TAG_subprogram ]
!1274 = metadata !{i32 786478, i32 0, metadata !776, metadata !"nor_reduce", metadata !"nor_reduce", metadata !"_ZN11ap_int_baseILi32ELb1ELb1EE10nor_reduceEv", metadata !104, i32 2271, metadata !1270, i1 false, i1 false, i32 0, i32 0, null, i32 256, i1 false, null, null, i32 0, metadata !46, i32 2271} ; [ DW_TAG_subprogram ]
!1275 = metadata !{i32 786478, i32 0, metadata !776, metadata !"xor_reduce", metadata !"xor_reduce", metadata !"_ZN11ap_int_baseILi32ELb1ELb1EE10xor_reduceEv", metadata !104, i32 2274, metadata !1270, i1 false, i1 false, i32 0, i32 0, null, i32 256, i1 false, null, null, i32 0, metadata !46, i32 2274} ; [ DW_TAG_subprogram ]
!1276 = metadata !{i32 786478, i32 0, metadata !776, metadata !"xnor_reduce", metadata !"xnor_reduce", metadata !"_ZN11ap_int_baseILi32ELb1ELb1EE11xnor_reduceEv", metadata !104, i32 2277, metadata !1270, i1 false, i1 false, i32 0, i32 0, null, i32 256, i1 false, null, null, i32 0, metadata !46, i32 2277} ; [ DW_TAG_subprogram ]
!1277 = metadata !{i32 786478, i32 0, metadata !776, metadata !"and_reduce", metadata !"and_reduce", metadata !"_ZNK11ap_int_baseILi32ELb1ELb1EE10and_reduceEv", metadata !104, i32 2281, metadata !908, i1 false, i1 false, i32 0, i32 0, null, i32 256, i1 false, null, null, i32 0, metadata !46, i32 2281} ; [ DW_TAG_subprogram ]
!1278 = metadata !{i32 786478, i32 0, metadata !776, metadata !"nand_reduce", metadata !"nand_reduce", metadata !"_ZNK11ap_int_baseILi32ELb1ELb1EE11nand_reduceEv", metadata !104, i32 2284, metadata !908, i1 false, i1 false, i32 0, i32 0, null, i32 256, i1 false, null, null, i32 0, metadata !46, i32 2284} ; [ DW_TAG_subprogram ]
!1279 = metadata !{i32 786478, i32 0, metadata !776, metadata !"or_reduce", metadata !"or_reduce", metadata !"_ZNK11ap_int_baseILi32ELb1ELb1EE9or_reduceEv", metadata !104, i32 2287, metadata !908, i1 false, i1 false, i32 0, i32 0, null, i32 256, i1 false, null, null, i32 0, metadata !46, i32 2287} ; [ DW_TAG_subprogram ]
!1280 = metadata !{i32 786478, i32 0, metadata !776, metadata !"nor_reduce", metadata !"nor_reduce", metadata !"_ZNK11ap_int_baseILi32ELb1ELb1EE10nor_reduceEv", metadata !104, i32 2290, metadata !908, i1 false, i1 false, i32 0, i32 0, null, i32 256, i1 false, null, null, i32 0, metadata !46, i32 2290} ; [ DW_TAG_subprogram ]
!1281 = metadata !{i32 786478, i32 0, metadata !776, metadata !"xor_reduce", metadata !"xor_reduce", metadata !"_ZNK11ap_int_baseILi32ELb1ELb1EE10xor_reduceEv", metadata !104, i32 2293, metadata !908, i1 false, i1 false, i32 0, i32 0, null, i32 256, i1 false, null, null, i32 0, metadata !46, i32 2293} ; [ DW_TAG_subprogram ]
