; ModuleID = '/home/andrea/Documenti/vision/Ultrascale/hls/LF_VALID_TO_AXIS/LF_VALID_TO_AXIS_prj/solution1/.autopilot/db/a.o.3.bc'
target datalayout = "e-p:64:64:64-i1:8:8-i8:8:8-i16:16:16-i32:32:32-i64:64:64-f32:32:32-f64:64:64-v64:64:64-v128:128:128-a0:0:64-s0:64:64-f80:128:128-n8:16:32:64-S128"
target triple = "x86_64-unknown-linux-gnu"

@res = internal unnamed_addr global i1 true, align 1 ; [#uses=3 type=i1*]
@llvm_global_ctors_1 = appending global [0 x void ()*] zeroinitializer ; [#uses=0 type=[0 x void ()*]*]
@llvm_global_ctors_0 = appending global [0 x i32] zeroinitializer ; [#uses=0 type=[0 x i32]*]
@LF_valid_to_AXIS_str = internal unnamed_addr constant [17 x i8] c"LF_valid_to_AXIS\00" ; [#uses=1 type=[17 x i8]*]
@p_str3 = private unnamed_addr constant [8 x i8] c"ap_none\00", align 1 ; [#uses=3 type=[8 x i8]*]
@p_str2 = private unnamed_addr constant [1 x i8] zeroinitializer, align 1 ; [#uses=24 type=[1 x i8]*]
@p_str1 = private unnamed_addr constant [5 x i8] c"both\00", align 1 ; [#uses=1 type=[5 x i8]*]
@p_str = private unnamed_addr constant [5 x i8] c"axis\00", align 1 ; [#uses=1 type=[5 x i8]*]

; [#uses=8]
declare void @llvm.dbg.value(metadata, i64, metadata) nounwind readnone

; [#uses=1]
define weak void @_ssdm_op_Write.axis.volatile.i8P(i8*, i8) {
entry:
  store i8 %1, i8* %0
  ret void
}

; [#uses=1]
define weak void @_ssdm_op_SpecTopModule(...) {
entry:
  ret void
}

; [#uses=1]
define weak void @_ssdm_op_SpecReset(...) nounwind {
entry:
  ret void
}

; [#uses=4]
define weak void @_ssdm_op_SpecInterface(...) nounwind {
entry:
  ret void
}

; [#uses=4]
define weak void @_ssdm_op_SpecBitsMap(...) {
entry:
  ret void
}

; [#uses=1]
define weak i8 @_ssdm_op_Read.ap_none.volatile.i8P(i8*) {
entry:
  %empty = load i8* %0                            ; [#uses=1 type=i8]
  ret i8 %empty
}

; [#uses=2]
define weak i1 @_ssdm_op_Read.ap_none.volatile.i1P(i1*) {
entry:
  %empty = load i1* %0                            ; [#uses=1 type=i1]
  ret i1 %empty
}

; [#uses=0]
define void @LF_valid_to_AXIS(i8* %data_in_V, i1* %frame_valid, i1* %line_valid, i8* %outputStream_V_V) {
  call void (...)* @_ssdm_op_SpecBitsMap(i8* %data_in_V), !map !29
  call void (...)* @_ssdm_op_SpecBitsMap(i1* %frame_valid), !map !33
  call void (...)* @_ssdm_op_SpecBitsMap(i1* %line_valid), !map !37
  call void (...)* @_ssdm_op_SpecBitsMap(i8* %outputStream_V_V), !map !41
  call void (...)* @_ssdm_op_SpecTopModule([17 x i8]* @LF_valid_to_AXIS_str) nounwind
  call void @llvm.dbg.value(metadata !{i8* %data_in_V}, i64 0, metadata !45), !dbg !770 ; [debug line = 3:38] [debug variable = data_in.V]
  call void @llvm.dbg.value(metadata !{i1* %frame_valid}, i64 0, metadata !771), !dbg !772 ; [debug line = 3:62] [debug variable = frame_valid]
  call void @llvm.dbg.value(metadata !{i1* %line_valid}, i64 0, metadata !773), !dbg !774 ; [debug line = 3:90] [debug variable = line_valid]
  call void @llvm.dbg.value(metadata !{i8* %outputStream_V_V}, i64 0, metadata !775), !dbg !780 ; [debug line = 3:121] [debug variable = outputStream.V.V]
  call void (...)* @_ssdm_op_SpecInterface(i8* %outputStream_V_V, [5 x i8]* @p_str, i32 1, i32 1, [5 x i8]* @p_str1, i32 0, i32 0, [1 x i8]* @p_str2, [1 x i8]* @p_str2, [1 x i8]* @p_str2, i32 0, i32 0, i32 0, i32 0, [1 x i8]* @p_str2, [1 x i8]* @p_str2) nounwind, !dbg !781 ; [debug line = 5:1]
  call void (...)* @_ssdm_op_SpecInterface(i8* %data_in_V, [8 x i8]* @p_str3, i32 0, i32 0, [1 x i8]* @p_str2, i32 0, i32 0, [1 x i8]* @p_str2, [1 x i8]* @p_str2, [1 x i8]* @p_str2, i32 0, i32 0, i32 0, i32 0, [1 x i8]* @p_str2, [1 x i8]* @p_str2) nounwind, !dbg !783 ; [debug line = 6:1]
  call void (...)* @_ssdm_op_SpecInterface(i1* %frame_valid, [8 x i8]* @p_str3, i32 0, i32 0, [1 x i8]* @p_str2, i32 0, i32 0, [1 x i8]* @p_str2, [1 x i8]* @p_str2, [1 x i8]* @p_str2, i32 0, i32 0, i32 0, i32 0, [1 x i8]* @p_str2, [1 x i8]* @p_str2) nounwind, !dbg !784 ; [debug line = 7:1]
  call void (...)* @_ssdm_op_SpecInterface(i1* %line_valid, [8 x i8]* @p_str3, i32 0, i32 0, [1 x i8]* @p_str2, i32 0, i32 0, [1 x i8]* @p_str2, [1 x i8]* @p_str2, [1 x i8]* @p_str2, i32 0, i32 0, i32 0, i32 0, [1 x i8]* @p_str2, [1 x i8]* @p_str2) nounwind, !dbg !785 ; [debug line = 8:1]
  %res_load = load i1* @res, align 1, !dbg !786   ; [#uses=1 type=i1] [debug line = 11:1]
  call void (...)* @_ssdm_op_SpecReset(i1* @res, i32 1, [1 x i8]* @p_str2) nounwind, !dbg !786 ; [debug line = 11:1]
  %frame_valid_read = call i1 @_ssdm_op_Read.ap_none.volatile.i1P(i1* %frame_valid), !dbg !787 ; [#uses=2 type=i1] [debug line = 22:3]
  br i1 %res_load, label %1, label %3, !dbg !789  ; [debug line = 20:2]

; <label>:1                                       ; preds = %0
  br i1 %frame_valid_read, label %._crit_edge, label %2, !dbg !787 ; [debug line = 22:3]

; <label>:2                                       ; preds = %1
  store i1 false, i1* @res, align 1, !dbg !790    ; [debug line = 23:4]
  br label %._crit_edge, !dbg !790                ; [debug line = 23:4]

._crit_edge:                                      ; preds = %2, %1
  br label %6, !dbg !791                          ; [debug line = 24:2]

; <label>:3                                       ; preds = %0
  br i1 %frame_valid_read, label %4, label %._crit_edge4, !dbg !792 ; [debug line = 27:3]

; <label>:4                                       ; preds = %3
  %line_valid_read = call i1 @_ssdm_op_Read.ap_none.volatile.i1P(i1* %line_valid), !dbg !792 ; [#uses=1 type=i1] [debug line = 27:3]
  br i1 %line_valid_read, label %5, label %._crit_edge4, !dbg !792 ; [debug line = 27:3]

; <label>:5                                       ; preds = %4
  call void @llvm.dbg.value(metadata !{i8* %data_in_V}, i64 0, metadata !794), !dbg !798 ; [debug line = 194:81@29:4] [debug variable = op.V]
  call void @llvm.dbg.value(metadata !{i8* %data_in_V}, i64 0, metadata !801), !dbg !804 ; [debug line = 194:81@194:103@29:4] [debug variable = op.V]
  %tmp_V = call i8 @_ssdm_op_Read.ap_none.volatile.i8P(i8* %data_in_V), !dbg !806 ; [#uses=1 type=i8] [debug line = 194:87@194:103@29:4]
  call void @llvm.dbg.value(metadata !{i8* %outputStream_V_V}, i64 0, metadata !808), !dbg !813 ; [debug line = 144:48@29:4] [debug variable = stream<ap_uint<8> >.V.V]
  call void @llvm.dbg.value(metadata !{i8 %tmp_V}, i64 0, metadata !814), !dbg !817 ; [debug line = 145:31@29:4] [debug variable = tmp.V]
  call void @_ssdm_op_Write.axis.volatile.i8P(i8* %outputStream_V_V, i8 %tmp_V), !dbg !818 ; [debug line = 146:9@29:4]
  br label %._crit_edge4, !dbg !819               ; [debug line = 30:3]

._crit_edge4:                                     ; preds = %5, %4, %3
  br label %6

; <label>:6                                       ; preds = %._crit_edge4, %._crit_edge
  ret void, !dbg !820                             ; [debug line = 32:1]
}

!opencl.kernels = !{!0, !7, !7, !13, !13, !19}
!hls.encrypted.func = !{}
!llvm.map.gv = !{!22}

!0 = metadata !{null, metadata !1, metadata !2, metadata !3, metadata !4, metadata !5, metadata !6}
!1 = metadata !{metadata !"kernel_arg_addr_space", i32 1, i32 1, i32 1, i32 0}
!2 = metadata !{metadata !"kernel_arg_access_qual", metadata !"none", metadata !"none", metadata !"none", metadata !"none"}
!3 = metadata !{metadata !"kernel_arg_type", metadata !"byte*", metadata !"_Bool*", metadata !"_Bool*", metadata !"hls::stream<byte> &"}
!4 = metadata !{metadata !"kernel_arg_type_qual", metadata !"volatile", metadata !"volatile", metadata !"volatile", metadata !""}
!5 = metadata !{metadata !"kernel_arg_name", metadata !"data_in", metadata !"frame_valid", metadata !"line_valid", metadata !"outputStream"}
!6 = metadata !{metadata !"reqd_work_group_size", i32 1, i32 1, i32 1}
!7 = metadata !{null, metadata !8, metadata !9, metadata !10, metadata !11, metadata !12, metadata !6}
!8 = metadata !{metadata !"kernel_arg_addr_space", i32 0}
!9 = metadata !{metadata !"kernel_arg_access_qual", metadata !"none"}
!10 = metadata !{metadata !"kernel_arg_type", metadata !"const volatile ap_uint<8> &"}
!11 = metadata !{metadata !"kernel_arg_type_qual", metadata !""}
!12 = metadata !{metadata !"kernel_arg_name", metadata !"op"}
!13 = metadata !{null, metadata !14, metadata !15, metadata !16, metadata !17, metadata !18, metadata !6}
!14 = metadata !{metadata !"kernel_arg_addr_space"}
!15 = metadata !{metadata !"kernel_arg_access_qual"}
!16 = metadata !{metadata !"kernel_arg_type"}
!17 = metadata !{metadata !"kernel_arg_type_qual"}
!18 = metadata !{metadata !"kernel_arg_name"}
!19 = metadata !{null, metadata !8, metadata !9, metadata !20, metadata !11, metadata !21, metadata !6}
!20 = metadata !{metadata !"kernel_arg_type", metadata !"const struct ap_uint<8> &"}
!21 = metadata !{metadata !"kernel_arg_name", metadata !"din"}
!22 = metadata !{metadata !23, [0 x i32]* @llvm_global_ctors_0}
!23 = metadata !{metadata !24}
!24 = metadata !{i32 0, i32 31, metadata !25}
!25 = metadata !{metadata !26}
!26 = metadata !{metadata !"llvm.global_ctors.0", metadata !27, metadata !"", i32 0, i32 31}
!27 = metadata !{metadata !28}
!28 = metadata !{i32 0, i32 0, i32 1}
!29 = metadata !{metadata !30}
!30 = metadata !{i32 0, i32 7, metadata !31}
!31 = metadata !{metadata !32}
!32 = metadata !{metadata !"data_in.V", metadata !27, metadata !"uint8", i32 0, i32 7}
!33 = metadata !{metadata !34}
!34 = metadata !{i32 0, i32 0, metadata !35}
!35 = metadata !{metadata !36}
!36 = metadata !{metadata !"frame_valid", metadata !27, metadata !"bool", i32 0, i32 0}
!37 = metadata !{metadata !38}
!38 = metadata !{i32 0, i32 0, metadata !39}
!39 = metadata !{metadata !40}
!40 = metadata !{metadata !"line_valid", metadata !27, metadata !"bool", i32 0, i32 0}
!41 = metadata !{metadata !42}
!42 = metadata !{i32 0, i32 7, metadata !43}
!43 = metadata !{metadata !44}
!44 = metadata !{metadata !"outputStream.V.V", metadata !27, metadata !"uint8", i32 0, i32 7}
!45 = metadata !{i32 790531, metadata !46, metadata !"data_in.V", null, i32 3, metadata !763, i32 0, i32 0} ; [ DW_TAG_arg_variable_field ]
!46 = metadata !{i32 786689, metadata !47, metadata !"data_in", metadata !48, i32 16777219, metadata !51, i32 0, i32 0} ; [ DW_TAG_arg_variable ]
!47 = metadata !{i32 786478, i32 0, metadata !48, metadata !"LF_valid_to_AXIS", metadata !"LF_valid_to_AXIS", metadata !"_Z16LF_valid_to_AXISPV7ap_uintILi8EEPVbS4_RN3hls6streamIS0_EE", metadata !48, i32 3, metadata !49, i1 false, i1 true, i32 0, i32 0, null, i32 256, i1 false, null, null, null, metadata !71, i32 4} ; [ DW_TAG_subprogram ]
!48 = metadata !{i32 786473, metadata !"LF_valid_to_AXIS.cpp", metadata !"/home/andrea/Documenti/vision/Ultrascale/hls/LF_VALID_TO_AXIS", null} ; [ DW_TAG_file_type ]
!49 = metadata !{i32 786453, i32 0, metadata !"", i32 0, i32 0, i64 0, i64 0, i64 0, i32 0, null, metadata !50, i32 0, i32 0} ; [ DW_TAG_subroutine_type ]
!50 = metadata !{null, metadata !51, metadata !713, metadata !713, metadata !715}
!51 = metadata !{i32 786447, null, metadata !"", null, i32 0, i64 64, i64 64, i64 0, i32 0, metadata !52} ; [ DW_TAG_pointer_type ]
!52 = metadata !{i32 786485, null, metadata !"", null, i32 0, i64 0, i64 0, i64 0, i32 0, metadata !53} ; [ DW_TAG_volatile_type ]
!53 = metadata !{i32 786454, null, metadata !"byte", metadata !48, i32 9, i64 0, i64 0, i64 0, i32 0, metadata !54} ; [ DW_TAG_typedef ]
!54 = metadata !{i32 786434, null, metadata !"ap_uint<8>", metadata !55, i32 183, i64 8, i64 8, i32 0, i32 0, null, metadata !56, i32 0, null, metadata !712} ; [ DW_TAG_class_type ]
!55 = metadata !{i32 786473, metadata !"/opt/Xilinx/Vivado/2018.1/common/technology/autopilot/ap_int.h", metadata !"/home/andrea/Documenti/vision/Ultrascale/hls/LF_VALID_TO_AXIS", null} ; [ DW_TAG_file_type ]
!56 = metadata !{metadata !57, metadata !630, metadata !634, metadata !640, metadata !646, metadata !649, metadata !652, metadata !655, metadata !658, metadata !661, metadata !664, metadata !667, metadata !670, metadata !673, metadata !676, metadata !679, metadata !682, metadata !685, metadata !688, metadata !691, metadata !694, metadata !697, metadata !701, metadata !704, metadata !708, metadata !711}
!57 = metadata !{i32 786460, metadata !54, null, metadata !55, i32 0, i64 0, i64 0, i64 0, i32 0, metadata !58} ; [ DW_TAG_inheritance ]
!58 = metadata !{i32 786434, null, metadata !"ap_int_base<8, false, true>", metadata !59, i32 1453, i64 8, i64 8, i32 0, i32 0, null, metadata !60, i32 0, null, metadata !629} ; [ DW_TAG_class_type ]
!59 = metadata !{i32 786473, metadata !"/opt/Xilinx/Vivado/2018.1/common/technology/autopilot/ap_int_syn.h", metadata !"/home/andrea/Documenti/vision/Ultrascale/hls/LF_VALID_TO_AXIS", null} ; [ DW_TAG_file_type ]
!60 = metadata !{metadata !61, metadata !78, metadata !82, metadata !90, metadata !96, metadata !99, metadata !103, metadata !107, metadata !111, metadata !115, metadata !118, metadata !122, metadata !126, metadata !130, metadata !135, metadata !140, metadata !145, metadata !149, metadata !153, metadata !159, metadata !162, metadata !166, metadata !169, metadata !172, metadata !173, metadata !177, metadata !180, metadata !183, metadata !186, metadata !189, metadata !192, metadata !195, metadata !198, metadata !201, metadata !204, metadata !207, metadata !210, metadata !220, metadata !223, metadata !226, metadata !229, metadata !232, metadata !235, metadata !238, metadata !241, metadata !244, metadata !247, metadata !250, metadata !253, metadata !256, metadata !257, metadata !261, metadata !264, metadata !265, metadata !266, metadata !267, metadata !268, metadata !269, metadata !272, metadata !273, metadata !276, metadata !277, metadata !278, metadata !279, metadata !280, metadata !281, metadata !284, metadata !285, metadata !286, metadata !289, metadata !290, metadata !293, metadata !294, metadata !588, metadata !594, metadata !595, metadata !598, metadata !599, metadata !603, metadata !604, metadata !605, metadata !606, metadata !609, metadata !610, metadata !611, metadata !612, metadata !613, metadata !614, metadata !615, metadata !616, metadata !617, metadata !618, metadata !619, metadata !620, metadata !623, metadata !626}
!61 = metadata !{i32 786460, metadata !58, null, metadata !59, i32 0, i64 0, i64 0, i64 0, i32 0, metadata !62} ; [ DW_TAG_inheritance ]
!62 = metadata !{i32 786434, null, metadata !"ssdm_int<8 + 1024 * 0, false>", metadata !63, i32 10, i64 8, i64 8, i32 0, i32 0, null, metadata !64, i32 0, null, metadata !73} ; [ DW_TAG_class_type ]
!63 = metadata !{i32 786473, metadata !"/opt/Xilinx/Vivado/2018.1/common/technology/autopilot/etc/autopilot_dt.def", metadata !"/home/andrea/Documenti/vision/Ultrascale/hls/LF_VALID_TO_AXIS", null} ; [ DW_TAG_file_type ]
!64 = metadata !{metadata !65, metadata !67}
!65 = metadata !{i32 786445, metadata !62, metadata !"V", metadata !63, i32 10, i64 8, i64 8, i64 0, i32 0, metadata !66} ; [ DW_TAG_member ]
!66 = metadata !{i32 786468, null, metadata !"uint8", null, i32 0, i64 8, i64 8, i64 0, i32 0, i32 7} ; [ DW_TAG_base_type ]
!67 = metadata !{i32 786478, i32 0, metadata !62, metadata !"ssdm_int", metadata !"ssdm_int", metadata !"", metadata !63, i32 10, metadata !68, i1 false, i1 false, i32 0, i32 0, null, i32 256, i1 false, null, null, i32 0, metadata !71, i32 10} ; [ DW_TAG_subprogram ]
!68 = metadata !{i32 786453, i32 0, metadata !"", i32 0, i32 0, i64 0, i64 0, i64 0, i32 0, null, metadata !69, i32 0, i32 0} ; [ DW_TAG_subroutine_type ]
!69 = metadata !{null, metadata !70}
!70 = metadata !{i32 786447, i32 0, metadata !"", i32 0, i32 0, i64 64, i64 64, i64 0, i32 64, metadata !62} ; [ DW_TAG_pointer_type ]
!71 = metadata !{metadata !72}
!72 = metadata !{i32 786468}                      ; [ DW_TAG_base_type ]
!73 = metadata !{metadata !74, metadata !76}
!74 = metadata !{i32 786480, null, metadata !"_AP_N", metadata !75, i64 8, null, i32 0, i32 0} ; [ DW_TAG_template_value_parameter ]
!75 = metadata !{i32 786468, null, metadata !"int", null, i32 0, i64 32, i64 32, i64 0, i32 0, i32 5} ; [ DW_TAG_base_type ]
!76 = metadata !{i32 786480, null, metadata !"_AP_S", metadata !77, i64 0, null, i32 0, i32 0} ; [ DW_TAG_template_value_parameter ]
!77 = metadata !{i32 786468, null, metadata !"bool", null, i32 0, i64 8, i64 8, i64 0, i32 0, i32 2} ; [ DW_TAG_base_type ]
!78 = metadata !{i32 786478, i32 0, metadata !58, metadata !"ap_int_base", metadata !"ap_int_base", metadata !"", metadata !59, i32 1494, metadata !79, i1 false, i1 false, i32 0, i32 0, null, i32 256, i1 false, null, null, i32 0, metadata !71, i32 1494} ; [ DW_TAG_subprogram ]
!79 = metadata !{i32 786453, i32 0, metadata !"", i32 0, i32 0, i64 0, i64 0, i64 0, i32 0, null, metadata !80, i32 0, i32 0} ; [ DW_TAG_subroutine_type ]
!80 = metadata !{null, metadata !81}
!81 = metadata !{i32 786447, i32 0, metadata !"", i32 0, i32 0, i64 64, i64 64, i64 0, i32 64, metadata !58} ; [ DW_TAG_pointer_type ]
!82 = metadata !{i32 786478, i32 0, metadata !58, metadata !"ap_int_base<8, false>", metadata !"ap_int_base<8, false>", metadata !"", metadata !59, i32 1506, metadata !83, i1 false, i1 false, i32 0, i32 0, null, i32 256, i1 false, null, metadata !87, i32 0, metadata !71, i32 1506} ; [ DW_TAG_subprogram ]
!83 = metadata !{i32 786453, i32 0, metadata !"", i32 0, i32 0, i64 0, i64 0, i64 0, i32 0, null, metadata !84, i32 0, i32 0} ; [ DW_TAG_subroutine_type ]
!84 = metadata !{null, metadata !81, metadata !85}
!85 = metadata !{i32 786448, null, null, null, i32 0, i64 0, i64 0, i64 0, i32 0, metadata !86} ; [ DW_TAG_reference_type ]
!86 = metadata !{i32 786470, null, metadata !"", null, i32 0, i64 0, i64 0, i64 0, i32 0, metadata !58} ; [ DW_TAG_const_type ]
!87 = metadata !{metadata !88, metadata !89}
!88 = metadata !{i32 786480, null, metadata !"_AP_W2", metadata !75, i64 8, null, i32 0, i32 0} ; [ DW_TAG_template_value_parameter ]
!89 = metadata !{i32 786480, null, metadata !"_AP_S2", metadata !77, i64 0, null, i32 0, i32 0} ; [ DW_TAG_template_value_parameter ]
!90 = metadata !{i32 786478, i32 0, metadata !58, metadata !"ap_int_base<8, false>", metadata !"ap_int_base<8, false>", metadata !"", metadata !59, i32 1509, metadata !91, i1 false, i1 false, i32 0, i32 0, null, i32 256, i1 false, null, metadata !87, i32 0, metadata !71, i32 1509} ; [ DW_TAG_subprogram ]
!91 = metadata !{i32 786453, i32 0, metadata !"", i32 0, i32 0, i64 0, i64 0, i64 0, i32 0, null, metadata !92, i32 0, i32 0} ; [ DW_TAG_subroutine_type ]
!92 = metadata !{null, metadata !81, metadata !93}
!93 = metadata !{i32 786448, null, null, null, i32 0, i64 0, i64 0, i64 0, i32 0, metadata !94} ; [ DW_TAG_reference_type ]
!94 = metadata !{i32 786470, null, metadata !"", null, i32 0, i64 0, i64 0, i64 0, i32 0, metadata !95} ; [ DW_TAG_const_type ]
!95 = metadata !{i32 786485, null, metadata !"", null, i32 0, i64 0, i64 0, i64 0, i32 0, metadata !58} ; [ DW_TAG_volatile_type ]
!96 = metadata !{i32 786478, i32 0, metadata !58, metadata !"ap_int_base", metadata !"ap_int_base", metadata !"", metadata !59, i32 1516, metadata !97, i1 false, i1 false, i32 0, i32 0, null, i32 384, i1 false, null, null, i32 0, metadata !71, i32 1516} ; [ DW_TAG_subprogram ]
!97 = metadata !{i32 786453, i32 0, metadata !"", i32 0, i32 0, i64 0, i64 0, i64 0, i32 0, null, metadata !98, i32 0, i32 0} ; [ DW_TAG_subroutine_type ]
!98 = metadata !{null, metadata !81, metadata !77}
!99 = metadata !{i32 786478, i32 0, metadata !58, metadata !"ap_int_base", metadata !"ap_int_base", metadata !"", metadata !59, i32 1517, metadata !100, i1 false, i1 false, i32 0, i32 0, null, i32 384, i1 false, null, null, i32 0, metadata !71, i32 1517} ; [ DW_TAG_subprogram ]
!100 = metadata !{i32 786453, i32 0, metadata !"", i32 0, i32 0, i64 0, i64 0, i64 0, i32 0, null, metadata !101, i32 0, i32 0} ; [ DW_TAG_subroutine_type ]
!101 = metadata !{null, metadata !81, metadata !102}
!102 = metadata !{i32 786468, null, metadata !"signed char", null, i32 0, i64 8, i64 8, i64 0, i32 0, i32 6} ; [ DW_TAG_base_type ]
!103 = metadata !{i32 786478, i32 0, metadata !58, metadata !"ap_int_base", metadata !"ap_int_base", metadata !"", metadata !59, i32 1518, metadata !104, i1 false, i1 false, i32 0, i32 0, null, i32 384, i1 false, null, null, i32 0, metadata !71, i32 1518} ; [ DW_TAG_subprogram ]
!104 = metadata !{i32 786453, i32 0, metadata !"", i32 0, i32 0, i64 0, i64 0, i64 0, i32 0, null, metadata !105, i32 0, i32 0} ; [ DW_TAG_subroutine_type ]
!105 = metadata !{null, metadata !81, metadata !106}
!106 = metadata !{i32 786468, null, metadata !"unsigned char", null, i32 0, i64 8, i64 8, i64 0, i32 0, i32 8} ; [ DW_TAG_base_type ]
!107 = metadata !{i32 786478, i32 0, metadata !58, metadata !"ap_int_base", metadata !"ap_int_base", metadata !"", metadata !59, i32 1519, metadata !108, i1 false, i1 false, i32 0, i32 0, null, i32 384, i1 false, null, null, i32 0, metadata !71, i32 1519} ; [ DW_TAG_subprogram ]
!108 = metadata !{i32 786453, i32 0, metadata !"", i32 0, i32 0, i64 0, i64 0, i64 0, i32 0, null, metadata !109, i32 0, i32 0} ; [ DW_TAG_subroutine_type ]
!109 = metadata !{null, metadata !81, metadata !110}
!110 = metadata !{i32 786468, null, metadata !"short", null, i32 0, i64 16, i64 16, i64 0, i32 0, i32 5} ; [ DW_TAG_base_type ]
!111 = metadata !{i32 786478, i32 0, metadata !58, metadata !"ap_int_base", metadata !"ap_int_base", metadata !"", metadata !59, i32 1520, metadata !112, i1 false, i1 false, i32 0, i32 0, null, i32 384, i1 false, null, null, i32 0, metadata !71, i32 1520} ; [ DW_TAG_subprogram ]
!112 = metadata !{i32 786453, i32 0, metadata !"", i32 0, i32 0, i64 0, i64 0, i64 0, i32 0, null, metadata !113, i32 0, i32 0} ; [ DW_TAG_subroutine_type ]
!113 = metadata !{null, metadata !81, metadata !114}
!114 = metadata !{i32 786468, null, metadata !"unsigned short", null, i32 0, i64 16, i64 16, i64 0, i32 0, i32 7} ; [ DW_TAG_base_type ]
!115 = metadata !{i32 786478, i32 0, metadata !58, metadata !"ap_int_base", metadata !"ap_int_base", metadata !"", metadata !59, i32 1521, metadata !116, i1 false, i1 false, i32 0, i32 0, null, i32 384, i1 false, null, null, i32 0, metadata !71, i32 1521} ; [ DW_TAG_subprogram ]
!116 = metadata !{i32 786453, i32 0, metadata !"", i32 0, i32 0, i64 0, i64 0, i64 0, i32 0, null, metadata !117, i32 0, i32 0} ; [ DW_TAG_subroutine_type ]
!117 = metadata !{null, metadata !81, metadata !75}
!118 = metadata !{i32 786478, i32 0, metadata !58, metadata !"ap_int_base", metadata !"ap_int_base", metadata !"", metadata !59, i32 1522, metadata !119, i1 false, i1 false, i32 0, i32 0, null, i32 384, i1 false, null, null, i32 0, metadata !71, i32 1522} ; [ DW_TAG_subprogram ]
!119 = metadata !{i32 786453, i32 0, metadata !"", i32 0, i32 0, i64 0, i64 0, i64 0, i32 0, null, metadata !120, i32 0, i32 0} ; [ DW_TAG_subroutine_type ]
!120 = metadata !{null, metadata !81, metadata !121}
!121 = metadata !{i32 786468, null, metadata !"unsigned int", null, i32 0, i64 32, i64 32, i64 0, i32 0, i32 7} ; [ DW_TAG_base_type ]
!122 = metadata !{i32 786478, i32 0, metadata !58, metadata !"ap_int_base", metadata !"ap_int_base", metadata !"", metadata !59, i32 1523, metadata !123, i1 false, i1 false, i32 0, i32 0, null, i32 384, i1 false, null, null, i32 0, metadata !71, i32 1523} ; [ DW_TAG_subprogram ]
!123 = metadata !{i32 786453, i32 0, metadata !"", i32 0, i32 0, i64 0, i64 0, i64 0, i32 0, null, metadata !124, i32 0, i32 0} ; [ DW_TAG_subroutine_type ]
!124 = metadata !{null, metadata !81, metadata !125}
!125 = metadata !{i32 786468, null, metadata !"long int", null, i32 0, i64 64, i64 64, i64 0, i32 0, i32 5} ; [ DW_TAG_base_type ]
!126 = metadata !{i32 786478, i32 0, metadata !58, metadata !"ap_int_base", metadata !"ap_int_base", metadata !"", metadata !59, i32 1524, metadata !127, i1 false, i1 false, i32 0, i32 0, null, i32 384, i1 false, null, null, i32 0, metadata !71, i32 1524} ; [ DW_TAG_subprogram ]
!127 = metadata !{i32 786453, i32 0, metadata !"", i32 0, i32 0, i64 0, i64 0, i64 0, i32 0, null, metadata !128, i32 0, i32 0} ; [ DW_TAG_subroutine_type ]
!128 = metadata !{null, metadata !81, metadata !129}
!129 = metadata !{i32 786468, null, metadata !"long unsigned int", null, i32 0, i64 64, i64 64, i64 0, i32 0, i32 7} ; [ DW_TAG_base_type ]
!130 = metadata !{i32 786478, i32 0, metadata !58, metadata !"ap_int_base", metadata !"ap_int_base", metadata !"", metadata !59, i32 1525, metadata !131, i1 false, i1 false, i32 0, i32 0, null, i32 384, i1 false, null, null, i32 0, metadata !71, i32 1525} ; [ DW_TAG_subprogram ]
!131 = metadata !{i32 786453, i32 0, metadata !"", i32 0, i32 0, i64 0, i64 0, i64 0, i32 0, null, metadata !132, i32 0, i32 0} ; [ DW_TAG_subroutine_type ]
!132 = metadata !{null, metadata !81, metadata !133}
!133 = metadata !{i32 786454, null, metadata !"ap_slong", metadata !59, i32 112, i64 0, i64 0, i64 0, i32 0, metadata !134} ; [ DW_TAG_typedef ]
!134 = metadata !{i32 786468, null, metadata !"long long int", null, i32 0, i64 64, i64 64, i64 0, i32 0, i32 5} ; [ DW_TAG_base_type ]
!135 = metadata !{i32 786478, i32 0, metadata !58, metadata !"ap_int_base", metadata !"ap_int_base", metadata !"", metadata !59, i32 1526, metadata !136, i1 false, i1 false, i32 0, i32 0, null, i32 384, i1 false, null, null, i32 0, metadata !71, i32 1526} ; [ DW_TAG_subprogram ]
!136 = metadata !{i32 786453, i32 0, metadata !"", i32 0, i32 0, i64 0, i64 0, i64 0, i32 0, null, metadata !137, i32 0, i32 0} ; [ DW_TAG_subroutine_type ]
!137 = metadata !{null, metadata !81, metadata !138}
!138 = metadata !{i32 786454, null, metadata !"ap_ulong", metadata !59, i32 111, i64 0, i64 0, i64 0, i32 0, metadata !139} ; [ DW_TAG_typedef ]
!139 = metadata !{i32 786468, null, metadata !"long long unsigned int", null, i32 0, i64 64, i64 64, i64 0, i32 0, i32 7} ; [ DW_TAG_base_type ]
!140 = metadata !{i32 786478, i32 0, metadata !58, metadata !"ap_int_base", metadata !"ap_int_base", metadata !"", metadata !59, i32 1527, metadata !141, i1 false, i1 false, i32 0, i32 0, null, i32 384, i1 false, null, null, i32 0, metadata !71, i32 1527} ; [ DW_TAG_subprogram ]
!141 = metadata !{i32 786453, i32 0, metadata !"", i32 0, i32 0, i64 0, i64 0, i64 0, i32 0, null, metadata !142, i32 0, i32 0} ; [ DW_TAG_subroutine_type ]
!142 = metadata !{null, metadata !81, metadata !143}
!143 = metadata !{i32 786454, null, metadata !"half", metadata !59, i32 54, i64 0, i64 0, i64 0, i32 0, metadata !144} ; [ DW_TAG_typedef ]
!144 = metadata !{i32 786468, null, metadata !"half", null, i32 0, i64 16, i64 16, i64 0, i32 0, i32 4} ; [ DW_TAG_base_type ]
!145 = metadata !{i32 786478, i32 0, metadata !58, metadata !"ap_int_base", metadata !"ap_int_base", metadata !"", metadata !59, i32 1528, metadata !146, i1 false, i1 false, i32 0, i32 0, null, i32 384, i1 false, null, null, i32 0, metadata !71, i32 1528} ; [ DW_TAG_subprogram ]
!146 = metadata !{i32 786453, i32 0, metadata !"", i32 0, i32 0, i64 0, i64 0, i64 0, i32 0, null, metadata !147, i32 0, i32 0} ; [ DW_TAG_subroutine_type ]
!147 = metadata !{null, metadata !81, metadata !148}
!148 = metadata !{i32 786468, null, metadata !"float", null, i32 0, i64 32, i64 32, i64 0, i32 0, i32 4} ; [ DW_TAG_base_type ]
!149 = metadata !{i32 786478, i32 0, metadata !58, metadata !"ap_int_base", metadata !"ap_int_base", metadata !"", metadata !59, i32 1529, metadata !150, i1 false, i1 false, i32 0, i32 0, null, i32 384, i1 false, null, null, i32 0, metadata !71, i32 1529} ; [ DW_TAG_subprogram ]
!150 = metadata !{i32 786453, i32 0, metadata !"", i32 0, i32 0, i64 0, i64 0, i64 0, i32 0, null, metadata !151, i32 0, i32 0} ; [ DW_TAG_subroutine_type ]
!151 = metadata !{null, metadata !81, metadata !152}
!152 = metadata !{i32 786468, null, metadata !"double", null, i32 0, i64 64, i64 64, i64 0, i32 0, i32 4} ; [ DW_TAG_base_type ]
!153 = metadata !{i32 786478, i32 0, metadata !58, metadata !"ap_int_base", metadata !"ap_int_base", metadata !"", metadata !59, i32 1556, metadata !154, i1 false, i1 false, i32 0, i32 0, null, i32 256, i1 false, null, null, i32 0, metadata !71, i32 1556} ; [ DW_TAG_subprogram ]
!154 = metadata !{i32 786453, i32 0, metadata !"", i32 0, i32 0, i64 0, i64 0, i64 0, i32 0, null, metadata !155, i32 0, i32 0} ; [ DW_TAG_subroutine_type ]
!155 = metadata !{null, metadata !81, metadata !156}
!156 = metadata !{i32 786447, null, metadata !"", null, i32 0, i64 64, i64 64, i64 0, i32 0, metadata !157} ; [ DW_TAG_pointer_type ]
!157 = metadata !{i32 786470, null, metadata !"", null, i32 0, i64 0, i64 0, i64 0, i32 0, metadata !158} ; [ DW_TAG_const_type ]
!158 = metadata !{i32 786468, null, metadata !"char", null, i32 0, i64 8, i64 8, i64 0, i32 0, i32 6} ; [ DW_TAG_base_type ]
!159 = metadata !{i32 786478, i32 0, metadata !58, metadata !"ap_int_base", metadata !"ap_int_base", metadata !"", metadata !59, i32 1563, metadata !160, i1 false, i1 false, i32 0, i32 0, null, i32 256, i1 false, null, null, i32 0, metadata !71, i32 1563} ; [ DW_TAG_subprogram ]
!160 = metadata !{i32 786453, i32 0, metadata !"", i32 0, i32 0, i64 0, i64 0, i64 0, i32 0, null, metadata !161, i32 0, i32 0} ; [ DW_TAG_subroutine_type ]
!161 = metadata !{null, metadata !81, metadata !156, metadata !102}
!162 = metadata !{i32 786478, i32 0, metadata !58, metadata !"read", metadata !"read", metadata !"_ZNV11ap_int_baseILi8ELb0ELb1EE4readEv", metadata !59, i32 1584, metadata !163, i1 false, i1 false, i32 0, i32 0, null, i32 256, i1 false, null, null, i32 0, metadata !71, i32 1584} ; [ DW_TAG_subprogram ]
!163 = metadata !{i32 786453, i32 0, metadata !"", i32 0, i32 0, i64 0, i64 0, i64 0, i32 0, null, metadata !164, i32 0, i32 0} ; [ DW_TAG_subroutine_type ]
!164 = metadata !{metadata !58, metadata !165}
!165 = metadata !{i32 786447, i32 0, metadata !"", i32 0, i32 0, i64 64, i64 64, i64 0, i32 64, metadata !95} ; [ DW_TAG_pointer_type ]
!166 = metadata !{i32 786478, i32 0, metadata !58, metadata !"write", metadata !"write", metadata !"_ZNV11ap_int_baseILi8ELb0ELb1EE5writeERKS0_", metadata !59, i32 1590, metadata !167, i1 false, i1 false, i32 0, i32 0, null, i32 256, i1 false, null, null, i32 0, metadata !71, i32 1590} ; [ DW_TAG_subprogram ]
!167 = metadata !{i32 786453, i32 0, metadata !"", i32 0, i32 0, i64 0, i64 0, i64 0, i32 0, null, metadata !168, i32 0, i32 0} ; [ DW_TAG_subroutine_type ]
!168 = metadata !{null, metadata !165, metadata !85}
!169 = metadata !{i32 786478, i32 0, metadata !58, metadata !"operator=", metadata !"operator=", metadata !"_ZNV11ap_int_baseILi8ELb0ELb1EEaSERVKS0_", metadata !59, i32 1602, metadata !170, i1 false, i1 false, i32 0, i32 0, null, i32 256, i1 false, null, null, i32 0, metadata !71, i32 1602} ; [ DW_TAG_subprogram ]
!170 = metadata !{i32 786453, i32 0, metadata !"", i32 0, i32 0, i64 0, i64 0, i64 0, i32 0, null, metadata !171, i32 0, i32 0} ; [ DW_TAG_subroutine_type ]
!171 = metadata !{null, metadata !165, metadata !93}
!172 = metadata !{i32 786478, i32 0, metadata !58, metadata !"operator=", metadata !"operator=", metadata !"_ZNV11ap_int_baseILi8ELb0ELb1EEaSERKS0_", metadata !59, i32 1611, metadata !167, i1 false, i1 false, i32 0, i32 0, null, i32 256, i1 false, null, null, i32 0, metadata !71, i32 1611} ; [ DW_TAG_subprogram ]
!173 = metadata !{i32 786478, i32 0, metadata !58, metadata !"operator=", metadata !"operator=", metadata !"_ZN11ap_int_baseILi8ELb0ELb1EEaSERVKS0_", metadata !59, i32 1634, metadata !174, i1 false, i1 false, i32 0, i32 0, null, i32 256, i1 false, null, null, i32 0, metadata !71, i32 1634} ; [ DW_TAG_subprogram ]
!174 = metadata !{i32 786453, i32 0, metadata !"", i32 0, i32 0, i64 0, i64 0, i64 0, i32 0, null, metadata !175, i32 0, i32 0} ; [ DW_TAG_subroutine_type ]
!175 = metadata !{metadata !176, metadata !81, metadata !93}
!176 = metadata !{i32 786448, null, null, null, i32 0, i64 0, i64 0, i64 0, i32 0, metadata !58} ; [ DW_TAG_reference_type ]
!177 = metadata !{i32 786478, i32 0, metadata !58, metadata !"operator=", metadata !"operator=", metadata !"_ZN11ap_int_baseILi8ELb0ELb1EEaSERKS0_", metadata !59, i32 1639, metadata !178, i1 false, i1 false, i32 0, i32 0, null, i32 256, i1 false, null, null, i32 0, metadata !71, i32 1639} ; [ DW_TAG_subprogram ]
!178 = metadata !{i32 786453, i32 0, metadata !"", i32 0, i32 0, i64 0, i64 0, i64 0, i32 0, null, metadata !179, i32 0, i32 0} ; [ DW_TAG_subroutine_type ]
!179 = metadata !{metadata !176, metadata !81, metadata !85}
!180 = metadata !{i32 786478, i32 0, metadata !58, metadata !"operator=", metadata !"operator=", metadata !"_ZN11ap_int_baseILi8ELb0ELb1EEaSEPKc", metadata !59, i32 1643, metadata !181, i1 false, i1 false, i32 0, i32 0, null, i32 256, i1 false, null, null, i32 0, metadata !71, i32 1643} ; [ DW_TAG_subprogram ]
!181 = metadata !{i32 786453, i32 0, metadata !"", i32 0, i32 0, i64 0, i64 0, i64 0, i32 0, null, metadata !182, i32 0, i32 0} ; [ DW_TAG_subroutine_type ]
!182 = metadata !{metadata !176, metadata !81, metadata !156}
!183 = metadata !{i32 786478, i32 0, metadata !58, metadata !"set", metadata !"set", metadata !"_ZN11ap_int_baseILi8ELb0ELb1EE3setEPKca", metadata !59, i32 1651, metadata !184, i1 false, i1 false, i32 0, i32 0, null, i32 256, i1 false, null, null, i32 0, metadata !71, i32 1651} ; [ DW_TAG_subprogram ]
!184 = metadata !{i32 786453, i32 0, metadata !"", i32 0, i32 0, i64 0, i64 0, i64 0, i32 0, null, metadata !185, i32 0, i32 0} ; [ DW_TAG_subroutine_type ]
!185 = metadata !{metadata !176, metadata !81, metadata !156, metadata !102}
!186 = metadata !{i32 786478, i32 0, metadata !58, metadata !"operator=", metadata !"operator=", metadata !"_ZN11ap_int_baseILi8ELb0ELb1EEaSEa", metadata !59, i32 1665, metadata !187, i1 false, i1 false, i32 0, i32 0, null, i32 256, i1 false, null, null, i32 0, metadata !71, i32 1665} ; [ DW_TAG_subprogram ]
!187 = metadata !{i32 786453, i32 0, metadata !"", i32 0, i32 0, i64 0, i64 0, i64 0, i32 0, null, metadata !188, i32 0, i32 0} ; [ DW_TAG_subroutine_type ]
!188 = metadata !{metadata !176, metadata !81, metadata !102}
!189 = metadata !{i32 786478, i32 0, metadata !58, metadata !"operator=", metadata !"operator=", metadata !"_ZN11ap_int_baseILi8ELb0ELb1EEaSEh", metadata !59, i32 1666, metadata !190, i1 false, i1 false, i32 0, i32 0, null, i32 256, i1 false, null, null, i32 0, metadata !71, i32 1666} ; [ DW_TAG_subprogram ]
!190 = metadata !{i32 786453, i32 0, metadata !"", i32 0, i32 0, i64 0, i64 0, i64 0, i32 0, null, metadata !191, i32 0, i32 0} ; [ DW_TAG_subroutine_type ]
!191 = metadata !{metadata !176, metadata !81, metadata !106}
!192 = metadata !{i32 786478, i32 0, metadata !58, metadata !"operator=", metadata !"operator=", metadata !"_ZN11ap_int_baseILi8ELb0ELb1EEaSEs", metadata !59, i32 1667, metadata !193, i1 false, i1 false, i32 0, i32 0, null, i32 256, i1 false, null, null, i32 0, metadata !71, i32 1667} ; [ DW_TAG_subprogram ]
!193 = metadata !{i32 786453, i32 0, metadata !"", i32 0, i32 0, i64 0, i64 0, i64 0, i32 0, null, metadata !194, i32 0, i32 0} ; [ DW_TAG_subroutine_type ]
!194 = metadata !{metadata !176, metadata !81, metadata !110}
!195 = metadata !{i32 786478, i32 0, metadata !58, metadata !"operator=", metadata !"operator=", metadata !"_ZN11ap_int_baseILi8ELb0ELb1EEaSEt", metadata !59, i32 1668, metadata !196, i1 false, i1 false, i32 0, i32 0, null, i32 256, i1 false, null, null, i32 0, metadata !71, i32 1668} ; [ DW_TAG_subprogram ]
!196 = metadata !{i32 786453, i32 0, metadata !"", i32 0, i32 0, i64 0, i64 0, i64 0, i32 0, null, metadata !197, i32 0, i32 0} ; [ DW_TAG_subroutine_type ]
!197 = metadata !{metadata !176, metadata !81, metadata !114}
!198 = metadata !{i32 786478, i32 0, metadata !58, metadata !"operator=", metadata !"operator=", metadata !"_ZN11ap_int_baseILi8ELb0ELb1EEaSEi", metadata !59, i32 1669, metadata !199, i1 false, i1 false, i32 0, i32 0, null, i32 256, i1 false, null, null, i32 0, metadata !71, i32 1669} ; [ DW_TAG_subprogram ]
!199 = metadata !{i32 786453, i32 0, metadata !"", i32 0, i32 0, i64 0, i64 0, i64 0, i32 0, null, metadata !200, i32 0, i32 0} ; [ DW_TAG_subroutine_type ]
!200 = metadata !{metadata !176, metadata !81, metadata !75}
!201 = metadata !{i32 786478, i32 0, metadata !58, metadata !"operator=", metadata !"operator=", metadata !"_ZN11ap_int_baseILi8ELb0ELb1EEaSEj", metadata !59, i32 1670, metadata !202, i1 false, i1 false, i32 0, i32 0, null, i32 256, i1 false, null, null, i32 0, metadata !71, i32 1670} ; [ DW_TAG_subprogram ]
!202 = metadata !{i32 786453, i32 0, metadata !"", i32 0, i32 0, i64 0, i64 0, i64 0, i32 0, null, metadata !203, i32 0, i32 0} ; [ DW_TAG_subroutine_type ]
!203 = metadata !{metadata !176, metadata !81, metadata !121}
!204 = metadata !{i32 786478, i32 0, metadata !58, metadata !"operator=", metadata !"operator=", metadata !"_ZN11ap_int_baseILi8ELb0ELb1EEaSEx", metadata !59, i32 1671, metadata !205, i1 false, i1 false, i32 0, i32 0, null, i32 256, i1 false, null, null, i32 0, metadata !71, i32 1671} ; [ DW_TAG_subprogram ]
!205 = metadata !{i32 786453, i32 0, metadata !"", i32 0, i32 0, i64 0, i64 0, i64 0, i32 0, null, metadata !206, i32 0, i32 0} ; [ DW_TAG_subroutine_type ]
!206 = metadata !{metadata !176, metadata !81, metadata !133}
!207 = metadata !{i32 786478, i32 0, metadata !58, metadata !"operator=", metadata !"operator=", metadata !"_ZN11ap_int_baseILi8ELb0ELb1EEaSEy", metadata !59, i32 1672, metadata !208, i1 false, i1 false, i32 0, i32 0, null, i32 256, i1 false, null, null, i32 0, metadata !71, i32 1672} ; [ DW_TAG_subprogram ]
!208 = metadata !{i32 786453, i32 0, metadata !"", i32 0, i32 0, i64 0, i64 0, i64 0, i32 0, null, metadata !209, i32 0, i32 0} ; [ DW_TAG_subroutine_type ]
!209 = metadata !{metadata !176, metadata !81, metadata !138}
!210 = metadata !{i32 786478, i32 0, metadata !58, metadata !"operator unsigned char", metadata !"operator unsigned char", metadata !"_ZNK11ap_int_baseILi8ELb0ELb1EEcvhEv", metadata !59, i32 1710, metadata !211, i1 false, i1 false, i32 0, i32 0, null, i32 256, i1 false, null, null, i32 0, metadata !71, i32 1710} ; [ DW_TAG_subprogram ]
!211 = metadata !{i32 786453, i32 0, metadata !"", i32 0, i32 0, i64 0, i64 0, i64 0, i32 0, null, metadata !212, i32 0, i32 0} ; [ DW_TAG_subroutine_type ]
!212 = metadata !{metadata !213, metadata !219}
!213 = metadata !{i32 786454, metadata !58, metadata !"RetType", metadata !59, i32 1458, i64 0, i64 0, i64 0, i32 0, metadata !214} ; [ DW_TAG_typedef ]
!214 = metadata !{i32 786454, metadata !215, metadata !"Type", metadata !59, i32 1426, i64 0, i64 0, i64 0, i32 0, metadata !106} ; [ DW_TAG_typedef ]
!215 = metadata !{i32 786434, null, metadata !"retval<1, false>", metadata !59, i32 1425, i64 8, i64 8, i32 0, i32 0, null, metadata !216, i32 0, null, metadata !217} ; [ DW_TAG_class_type ]
!216 = metadata !{i32 0}
!217 = metadata !{metadata !218, metadata !76}
!218 = metadata !{i32 786480, null, metadata !"_AP_N", metadata !75, i64 1, null, i32 0, i32 0} ; [ DW_TAG_template_value_parameter ]
!219 = metadata !{i32 786447, i32 0, metadata !"", i32 0, i32 0, i64 64, i64 64, i64 0, i32 64, metadata !86} ; [ DW_TAG_pointer_type ]
!220 = metadata !{i32 786478, i32 0, metadata !58, metadata !"to_bool", metadata !"to_bool", metadata !"_ZNK11ap_int_baseILi8ELb0ELb1EE7to_boolEv", metadata !59, i32 1716, metadata !221, i1 false, i1 false, i32 0, i32 0, null, i32 256, i1 false, null, null, i32 0, metadata !71, i32 1716} ; [ DW_TAG_subprogram ]
!221 = metadata !{i32 786453, i32 0, metadata !"", i32 0, i32 0, i64 0, i64 0, i64 0, i32 0, null, metadata !222, i32 0, i32 0} ; [ DW_TAG_subroutine_type ]
!222 = metadata !{metadata !77, metadata !219}
!223 = metadata !{i32 786478, i32 0, metadata !58, metadata !"to_uchar", metadata !"to_uchar", metadata !"_ZNK11ap_int_baseILi8ELb0ELb1EE8to_ucharEv", metadata !59, i32 1717, metadata !224, i1 false, i1 false, i32 0, i32 0, null, i32 256, i1 false, null, null, i32 0, metadata !71, i32 1717} ; [ DW_TAG_subprogram ]
!224 = metadata !{i32 786453, i32 0, metadata !"", i32 0, i32 0, i64 0, i64 0, i64 0, i32 0, null, metadata !225, i32 0, i32 0} ; [ DW_TAG_subroutine_type ]
!225 = metadata !{metadata !106, metadata !219}
!226 = metadata !{i32 786478, i32 0, metadata !58, metadata !"to_char", metadata !"to_char", metadata !"_ZNK11ap_int_baseILi8ELb0ELb1EE7to_charEv", metadata !59, i32 1718, metadata !227, i1 false, i1 false, i32 0, i32 0, null, i32 256, i1 false, null, null, i32 0, metadata !71, i32 1718} ; [ DW_TAG_subprogram ]
!227 = metadata !{i32 786453, i32 0, metadata !"", i32 0, i32 0, i64 0, i64 0, i64 0, i32 0, null, metadata !228, i32 0, i32 0} ; [ DW_TAG_subroutine_type ]
!228 = metadata !{metadata !102, metadata !219}
!229 = metadata !{i32 786478, i32 0, metadata !58, metadata !"to_ushort", metadata !"to_ushort", metadata !"_ZNK11ap_int_baseILi8ELb0ELb1EE9to_ushortEv", metadata !59, i32 1719, metadata !230, i1 false, i1 false, i32 0, i32 0, null, i32 256, i1 false, null, null, i32 0, metadata !71, i32 1719} ; [ DW_TAG_subprogram ]
!230 = metadata !{i32 786453, i32 0, metadata !"", i32 0, i32 0, i64 0, i64 0, i64 0, i32 0, null, metadata !231, i32 0, i32 0} ; [ DW_TAG_subroutine_type ]
!231 = metadata !{metadata !114, metadata !219}
!232 = metadata !{i32 786478, i32 0, metadata !58, metadata !"to_short", metadata !"to_short", metadata !"_ZNK11ap_int_baseILi8ELb0ELb1EE8to_shortEv", metadata !59, i32 1720, metadata !233, i1 false, i1 false, i32 0, i32 0, null, i32 256, i1 false, null, null, i32 0, metadata !71, i32 1720} ; [ DW_TAG_subprogram ]
!233 = metadata !{i32 786453, i32 0, metadata !"", i32 0, i32 0, i64 0, i64 0, i64 0, i32 0, null, metadata !234, i32 0, i32 0} ; [ DW_TAG_subroutine_type ]
!234 = metadata !{metadata !110, metadata !219}
!235 = metadata !{i32 786478, i32 0, metadata !58, metadata !"to_int", metadata !"to_int", metadata !"_ZNK11ap_int_baseILi8ELb0ELb1EE6to_intEv", metadata !59, i32 1721, metadata !236, i1 false, i1 false, i32 0, i32 0, null, i32 256, i1 false, null, null, i32 0, metadata !71, i32 1721} ; [ DW_TAG_subprogram ]
!236 = metadata !{i32 786453, i32 0, metadata !"", i32 0, i32 0, i64 0, i64 0, i64 0, i32 0, null, metadata !237, i32 0, i32 0} ; [ DW_TAG_subroutine_type ]
!237 = metadata !{metadata !75, metadata !219}
!238 = metadata !{i32 786478, i32 0, metadata !58, metadata !"to_uint", metadata !"to_uint", metadata !"_ZNK11ap_int_baseILi8ELb0ELb1EE7to_uintEv", metadata !59, i32 1722, metadata !239, i1 false, i1 false, i32 0, i32 0, null, i32 256, i1 false, null, null, i32 0, metadata !71, i32 1722} ; [ DW_TAG_subprogram ]
!239 = metadata !{i32 786453, i32 0, metadata !"", i32 0, i32 0, i64 0, i64 0, i64 0, i32 0, null, metadata !240, i32 0, i32 0} ; [ DW_TAG_subroutine_type ]
!240 = metadata !{metadata !121, metadata !219}
!241 = metadata !{i32 786478, i32 0, metadata !58, metadata !"to_long", metadata !"to_long", metadata !"_ZNK11ap_int_baseILi8ELb0ELb1EE7to_longEv", metadata !59, i32 1723, metadata !242, i1 false, i1 false, i32 0, i32 0, null, i32 256, i1 false, null, null, i32 0, metadata !71, i32 1723} ; [ DW_TAG_subprogram ]
!242 = metadata !{i32 786453, i32 0, metadata !"", i32 0, i32 0, i64 0, i64 0, i64 0, i32 0, null, metadata !243, i32 0, i32 0} ; [ DW_TAG_subroutine_type ]
!243 = metadata !{metadata !125, metadata !219}
!244 = metadata !{i32 786478, i32 0, metadata !58, metadata !"to_ulong", metadata !"to_ulong", metadata !"_ZNK11ap_int_baseILi8ELb0ELb1EE8to_ulongEv", metadata !59, i32 1724, metadata !245, i1 false, i1 false, i32 0, i32 0, null, i32 256, i1 false, null, null, i32 0, metadata !71, i32 1724} ; [ DW_TAG_subprogram ]
!245 = metadata !{i32 786453, i32 0, metadata !"", i32 0, i32 0, i64 0, i64 0, i64 0, i32 0, null, metadata !246, i32 0, i32 0} ; [ DW_TAG_subroutine_type ]
!246 = metadata !{metadata !129, metadata !219}
!247 = metadata !{i32 786478, i32 0, metadata !58, metadata !"to_int64", metadata !"to_int64", metadata !"_ZNK11ap_int_baseILi8ELb0ELb1EE8to_int64Ev", metadata !59, i32 1725, metadata !248, i1 false, i1 false, i32 0, i32 0, null, i32 256, i1 false, null, null, i32 0, metadata !71, i32 1725} ; [ DW_TAG_subprogram ]
!248 = metadata !{i32 786453, i32 0, metadata !"", i32 0, i32 0, i64 0, i64 0, i64 0, i32 0, null, metadata !249, i32 0, i32 0} ; [ DW_TAG_subroutine_type ]
!249 = metadata !{metadata !133, metadata !219}
!250 = metadata !{i32 786478, i32 0, metadata !58, metadata !"to_uint64", metadata !"to_uint64", metadata !"_ZNK11ap_int_baseILi8ELb0ELb1EE9to_uint64Ev", metadata !59, i32 1726, metadata !251, i1 false, i1 false, i32 0, i32 0, null, i32 256, i1 false, null, null, i32 0, metadata !71, i32 1726} ; [ DW_TAG_subprogram ]
!251 = metadata !{i32 786453, i32 0, metadata !"", i32 0, i32 0, i64 0, i64 0, i64 0, i32 0, null, metadata !252, i32 0, i32 0} ; [ DW_TAG_subroutine_type ]
!252 = metadata !{metadata !138, metadata !219}
!253 = metadata !{i32 786478, i32 0, metadata !58, metadata !"to_double", metadata !"to_double", metadata !"_ZNK11ap_int_baseILi8ELb0ELb1EE9to_doubleEv", metadata !59, i32 1727, metadata !254, i1 false, i1 false, i32 0, i32 0, null, i32 256, i1 false, null, null, i32 0, metadata !71, i32 1727} ; [ DW_TAG_subprogram ]
!254 = metadata !{i32 786453, i32 0, metadata !"", i32 0, i32 0, i64 0, i64 0, i64 0, i32 0, null, metadata !255, i32 0, i32 0} ; [ DW_TAG_subroutine_type ]
!255 = metadata !{metadata !152, metadata !219}
!256 = metadata !{i32 786478, i32 0, metadata !58, metadata !"length", metadata !"length", metadata !"_ZNK11ap_int_baseILi8ELb0ELb1EE6lengthEv", metadata !59, i32 1741, metadata !236, i1 false, i1 false, i32 0, i32 0, null, i32 256, i1 false, null, null, i32 0, metadata !71, i32 1741} ; [ DW_TAG_subprogram ]
!257 = metadata !{i32 786478, i32 0, metadata !58, metadata !"length", metadata !"length", metadata !"_ZNVK11ap_int_baseILi8ELb0ELb1EE6lengthEv", metadata !59, i32 1742, metadata !258, i1 false, i1 false, i32 0, i32 0, null, i32 256, i1 false, null, null, i32 0, metadata !71, i32 1742} ; [ DW_TAG_subprogram ]
!258 = metadata !{i32 786453, i32 0, metadata !"", i32 0, i32 0, i64 0, i64 0, i64 0, i32 0, null, metadata !259, i32 0, i32 0} ; [ DW_TAG_subroutine_type ]
!259 = metadata !{metadata !75, metadata !260}
!260 = metadata !{i32 786447, i32 0, metadata !"", i32 0, i32 0, i64 64, i64 64, i64 0, i32 64, metadata !94} ; [ DW_TAG_pointer_type ]
!261 = metadata !{i32 786478, i32 0, metadata !58, metadata !"reverse", metadata !"reverse", metadata !"_ZN11ap_int_baseILi8ELb0ELb1EE7reverseEv", metadata !59, i32 1747, metadata !262, i1 false, i1 false, i32 0, i32 0, null, i32 256, i1 false, null, null, i32 0, metadata !71, i32 1747} ; [ DW_TAG_subprogram ]
!262 = metadata !{i32 786453, i32 0, metadata !"", i32 0, i32 0, i64 0, i64 0, i64 0, i32 0, null, metadata !263, i32 0, i32 0} ; [ DW_TAG_subroutine_type ]
!263 = metadata !{metadata !176, metadata !81}
!264 = metadata !{i32 786478, i32 0, metadata !58, metadata !"iszero", metadata !"iszero", metadata !"_ZNK11ap_int_baseILi8ELb0ELb1EE6iszeroEv", metadata !59, i32 1753, metadata !221, i1 false, i1 false, i32 0, i32 0, null, i32 256, i1 false, null, null, i32 0, metadata !71, i32 1753} ; [ DW_TAG_subprogram ]
!265 = metadata !{i32 786478, i32 0, metadata !58, metadata !"is_zero", metadata !"is_zero", metadata !"_ZNK11ap_int_baseILi8ELb0ELb1EE7is_zeroEv", metadata !59, i32 1758, metadata !221, i1 false, i1 false, i32 0, i32 0, null, i32 256, i1 false, null, null, i32 0, metadata !71, i32 1758} ; [ DW_TAG_subprogram ]
!266 = metadata !{i32 786478, i32 0, metadata !58, metadata !"sign", metadata !"sign", metadata !"_ZNK11ap_int_baseILi8ELb0ELb1EE4signEv", metadata !59, i32 1763, metadata !221, i1 false, i1 false, i32 0, i32 0, null, i32 256, i1 false, null, null, i32 0, metadata !71, i32 1763} ; [ DW_TAG_subprogram ]
!267 = metadata !{i32 786478, i32 0, metadata !58, metadata !"clear", metadata !"clear", metadata !"_ZN11ap_int_baseILi8ELb0ELb1EE5clearEi", metadata !59, i32 1771, metadata !116, i1 false, i1 false, i32 0, i32 0, null, i32 256, i1 false, null, null, i32 0, metadata !71, i32 1771} ; [ DW_TAG_subprogram ]
!268 = metadata !{i32 786478, i32 0, metadata !58, metadata !"invert", metadata !"invert", metadata !"_ZN11ap_int_baseILi8ELb0ELb1EE6invertEi", metadata !59, i32 1777, metadata !116, i1 false, i1 false, i32 0, i32 0, null, i32 256, i1 false, null, null, i32 0, metadata !71, i32 1777} ; [ DW_TAG_subprogram ]
!269 = metadata !{i32 786478, i32 0, metadata !58, metadata !"test", metadata !"test", metadata !"_ZNK11ap_int_baseILi8ELb0ELb1EE4testEi", metadata !59, i32 1785, metadata !270, i1 false, i1 false, i32 0, i32 0, null, i32 256, i1 false, null, null, i32 0, metadata !71, i32 1785} ; [ DW_TAG_subprogram ]
!270 = metadata !{i32 786453, i32 0, metadata !"", i32 0, i32 0, i64 0, i64 0, i64 0, i32 0, null, metadata !271, i32 0, i32 0} ; [ DW_TAG_subroutine_type ]
!271 = metadata !{metadata !77, metadata !219, metadata !75}
!272 = metadata !{i32 786478, i32 0, metadata !58, metadata !"set", metadata !"set", metadata !"_ZN11ap_int_baseILi8ELb0ELb1EE3setEi", metadata !59, i32 1791, metadata !116, i1 false, i1 false, i32 0, i32 0, null, i32 256, i1 false, null, null, i32 0, metadata !71, i32 1791} ; [ DW_TAG_subprogram ]
!273 = metadata !{i32 786478, i32 0, metadata !58, metadata !"set", metadata !"set", metadata !"_ZN11ap_int_baseILi8ELb0ELb1EE3setEib", metadata !59, i32 1797, metadata !274, i1 false, i1 false, i32 0, i32 0, null, i32 256, i1 false, null, null, i32 0, metadata !71, i32 1797} ; [ DW_TAG_subprogram ]
!274 = metadata !{i32 786453, i32 0, metadata !"", i32 0, i32 0, i64 0, i64 0, i64 0, i32 0, null, metadata !275, i32 0, i32 0} ; [ DW_TAG_subroutine_type ]
!275 = metadata !{null, metadata !81, metadata !75, metadata !77}
!276 = metadata !{i32 786478, i32 0, metadata !58, metadata !"lrotate", metadata !"lrotate", metadata !"_ZN11ap_int_baseILi8ELb0ELb1EE7lrotateEi", metadata !59, i32 1804, metadata !116, i1 false, i1 false, i32 0, i32 0, null, i32 256, i1 false, null, null, i32 0, metadata !71, i32 1804} ; [ DW_TAG_subprogram ]
!277 = metadata !{i32 786478, i32 0, metadata !58, metadata !"rrotate", metadata !"rrotate", metadata !"_ZN11ap_int_baseILi8ELb0ELb1EE7rrotateEi", metadata !59, i32 1813, metadata !116, i1 false, i1 false, i32 0, i32 0, null, i32 256, i1 false, null, null, i32 0, metadata !71, i32 1813} ; [ DW_TAG_subprogram ]
!278 = metadata !{i32 786478, i32 0, metadata !58, metadata !"set_bit", metadata !"set_bit", metadata !"_ZN11ap_int_baseILi8ELb0ELb1EE7set_bitEib", metadata !59, i32 1821, metadata !274, i1 false, i1 false, i32 0, i32 0, null, i32 256, i1 false, null, null, i32 0, metadata !71, i32 1821} ; [ DW_TAG_subprogram ]
!279 = metadata !{i32 786478, i32 0, metadata !58, metadata !"get_bit", metadata !"get_bit", metadata !"_ZNK11ap_int_baseILi8ELb0ELb1EE7get_bitEi", metadata !59, i32 1826, metadata !270, i1 false, i1 false, i32 0, i32 0, null, i32 256, i1 false, null, null, i32 0, metadata !71, i32 1826} ; [ DW_TAG_subprogram ]
!280 = metadata !{i32 786478, i32 0, metadata !58, metadata !"b_not", metadata !"b_not", metadata !"_ZN11ap_int_baseILi8ELb0ELb1EE5b_notEv", metadata !59, i32 1831, metadata !79, i1 false, i1 false, i32 0, i32 0, null, i32 256, i1 false, null, null, i32 0, metadata !71, i32 1831} ; [ DW_TAG_subprogram ]
!281 = metadata !{i32 786478, i32 0, metadata !58, metadata !"countLeadingZeros", metadata !"countLeadingZeros", metadata !"_ZN11ap_int_baseILi8ELb0ELb1EE17countLeadingZerosEv", metadata !59, i32 1838, metadata !282, i1 false, i1 false, i32 0, i32 0, null, i32 256, i1 false, null, null, i32 0, metadata !71, i32 1838} ; [ DW_TAG_subprogram ]
!282 = metadata !{i32 786453, i32 0, metadata !"", i32 0, i32 0, i64 0, i64 0, i64 0, i32 0, null, metadata !283, i32 0, i32 0} ; [ DW_TAG_subroutine_type ]
!283 = metadata !{metadata !75, metadata !81}
!284 = metadata !{i32 786478, i32 0, metadata !58, metadata !"operator++", metadata !"operator++", metadata !"_ZN11ap_int_baseILi8ELb0ELb1EEppEv", metadata !59, i32 1895, metadata !262, i1 false, i1 false, i32 0, i32 0, null, i32 256, i1 false, null, null, i32 0, metadata !71, i32 1895} ; [ DW_TAG_subprogram ]
!285 = metadata !{i32 786478, i32 0, metadata !58, metadata !"operator--", metadata !"operator--", metadata !"_ZN11ap_int_baseILi8ELb0ELb1EEmmEv", metadata !59, i32 1899, metadata !262, i1 false, i1 false, i32 0, i32 0, null, i32 256, i1 false, null, null, i32 0, metadata !71, i32 1899} ; [ DW_TAG_subprogram ]
!286 = metadata !{i32 786478, i32 0, metadata !58, metadata !"operator++", metadata !"operator++", metadata !"_ZN11ap_int_baseILi8ELb0ELb1EEppEi", metadata !59, i32 1907, metadata !287, i1 false, i1 false, i32 0, i32 0, null, i32 256, i1 false, null, null, i32 0, metadata !71, i32 1907} ; [ DW_TAG_subprogram ]
!287 = metadata !{i32 786453, i32 0, metadata !"", i32 0, i32 0, i64 0, i64 0, i64 0, i32 0, null, metadata !288, i32 0, i32 0} ; [ DW_TAG_subroutine_type ]
!288 = metadata !{metadata !86, metadata !81, metadata !75}
!289 = metadata !{i32 786478, i32 0, metadata !58, metadata !"operator--", metadata !"operator--", metadata !"_ZN11ap_int_baseILi8ELb0ELb1EEmmEi", metadata !59, i32 1912, metadata !287, i1 false, i1 false, i32 0, i32 0, null, i32 256, i1 false, null, null, i32 0, metadata !71, i32 1912} ; [ DW_TAG_subprogram ]
!290 = metadata !{i32 786478, i32 0, metadata !58, metadata !"operator+", metadata !"operator+", metadata !"_ZNK11ap_int_baseILi8ELb0ELb1EEpsEv", metadata !59, i32 1921, metadata !291, i1 false, i1 false, i32 0, i32 0, null, i32 256, i1 false, null, null, i32 0, metadata !71, i32 1921} ; [ DW_TAG_subprogram ]
!291 = metadata !{i32 786453, i32 0, metadata !"", i32 0, i32 0, i64 0, i64 0, i64 0, i32 0, null, metadata !292, i32 0, i32 0} ; [ DW_TAG_subroutine_type ]
!292 = metadata !{metadata !58, metadata !219}
!293 = metadata !{i32 786478, i32 0, metadata !58, metadata !"operator!", metadata !"operator!", metadata !"_ZNK11ap_int_baseILi8ELb0ELb1EEntEv", metadata !59, i32 1927, metadata !221, i1 false, i1 false, i32 0, i32 0, null, i32 256, i1 false, null, null, i32 0, metadata !71, i32 1927} ; [ DW_TAG_subprogram ]
!294 = metadata !{i32 786478, i32 0, metadata !58, metadata !"operator-", metadata !"operator-", metadata !"_ZNK11ap_int_baseILi8ELb0ELb1EEngEv", metadata !59, i32 1932, metadata !295, i1 false, i1 false, i32 0, i32 0, null, i32 256, i1 false, null, null, i32 0, metadata !71, i32 1932} ; [ DW_TAG_subprogram ]
!295 = metadata !{i32 786453, i32 0, metadata !"", i32 0, i32 0, i64 0, i64 0, i64 0, i32 0, null, metadata !296, i32 0, i32 0} ; [ DW_TAG_subroutine_type ]
!296 = metadata !{metadata !297, metadata !219}
!297 = metadata !{i32 786434, null, metadata !"ap_int_base<9, true, true>", metadata !59, i32 1453, i64 16, i64 16, i32 0, i32 0, null, metadata !298, i32 0, null, metadata !587} ; [ DW_TAG_class_type ]
!298 = metadata !{metadata !299, metadata !311, metadata !315, metadata !318, metadata !321, metadata !324, metadata !327, metadata !330, metadata !333, metadata !336, metadata !339, metadata !342, metadata !345, metadata !348, metadata !351, metadata !354, metadata !357, metadata !360, metadata !363, metadata !368, metadata !373, metadata !378, metadata !379, metadata !383, metadata !386, metadata !389, metadata !392, metadata !395, metadata !398, metadata !401, metadata !404, metadata !407, metadata !410, metadata !413, metadata !416, metadata !425, metadata !428, metadata !431, metadata !434, metadata !437, metadata !440, metadata !443, metadata !446, metadata !449, metadata !452, metadata !455, metadata !458, metadata !461, metadata !462, metadata !466, metadata !469, metadata !470, metadata !471, metadata !472, metadata !473, metadata !474, metadata !477, metadata !478, metadata !481, metadata !482, metadata !483, metadata !484, metadata !485, metadata !486, metadata !489, metadata !490, metadata !491, metadata !494, metadata !495, metadata !498, metadata !499, metadata !506, metadata !512, metadata !513, metadata !516, metadata !517, metadata !554, metadata !555, metadata !556, metadata !557, metadata !560, metadata !561, metadata !562, metadata !563, metadata !564, metadata !565, metadata !566, metadata !567, metadata !568, metadata !569, metadata !570, metadata !571, metadata !581, metadata !584}
!299 = metadata !{i32 786460, metadata !297, null, metadata !59, i32 0, i64 0, i64 0, i64 0, i32 0, metadata !300} ; [ DW_TAG_inheritance ]
!300 = metadata !{i32 786434, null, metadata !"ssdm_int<9 + 1024 * 0, true>", metadata !63, i32 11, i64 16, i64 16, i32 0, i32 0, null, metadata !301, i32 0, null, metadata !308} ; [ DW_TAG_class_type ]
!301 = metadata !{metadata !302, metadata !304}
!302 = metadata !{i32 786445, metadata !300, metadata !"V", metadata !63, i32 11, i64 9, i64 16, i64 0, i32 0, metadata !303} ; [ DW_TAG_member ]
!303 = metadata !{i32 786468, null, metadata !"int9", null, i32 0, i64 9, i64 16, i64 0, i32 0, i32 5} ; [ DW_TAG_base_type ]
!304 = metadata !{i32 786478, i32 0, metadata !300, metadata !"ssdm_int", metadata !"ssdm_int", metadata !"", metadata !63, i32 11, metadata !305, i1 false, i1 false, i32 0, i32 0, null, i32 256, i1 false, null, null, i32 0, metadata !71, i32 11} ; [ DW_TAG_subprogram ]
!305 = metadata !{i32 786453, i32 0, metadata !"", i32 0, i32 0, i64 0, i64 0, i64 0, i32 0, null, metadata !306, i32 0, i32 0} ; [ DW_TAG_subroutine_type ]
!306 = metadata !{null, metadata !307}
!307 = metadata !{i32 786447, i32 0, metadata !"", i32 0, i32 0, i64 64, i64 64, i64 0, i32 64, metadata !300} ; [ DW_TAG_pointer_type ]
!308 = metadata !{metadata !309, metadata !310}
!309 = metadata !{i32 786480, null, metadata !"_AP_N", metadata !75, i64 9, null, i32 0, i32 0} ; [ DW_TAG_template_value_parameter ]
!310 = metadata !{i32 786480, null, metadata !"_AP_S", metadata !77, i64 1, null, i32 0, i32 0} ; [ DW_TAG_template_value_parameter ]
!311 = metadata !{i32 786478, i32 0, metadata !297, metadata !"ap_int_base", metadata !"ap_int_base", metadata !"", metadata !59, i32 1494, metadata !312, i1 false, i1 false, i32 0, i32 0, null, i32 256, i1 false, null, null, i32 0, metadata !71, i32 1494} ; [ DW_TAG_subprogram ]
!312 = metadata !{i32 786453, i32 0, metadata !"", i32 0, i32 0, i64 0, i64 0, i64 0, i32 0, null, metadata !313, i32 0, i32 0} ; [ DW_TAG_subroutine_type ]
!313 = metadata !{null, metadata !314}
!314 = metadata !{i32 786447, i32 0, metadata !"", i32 0, i32 0, i64 64, i64 64, i64 0, i32 64, metadata !297} ; [ DW_TAG_pointer_type ]
!315 = metadata !{i32 786478, i32 0, metadata !297, metadata !"ap_int_base", metadata !"ap_int_base", metadata !"", metadata !59, i32 1516, metadata !316, i1 false, i1 false, i32 0, i32 0, null, i32 384, i1 false, null, null, i32 0, metadata !71, i32 1516} ; [ DW_TAG_subprogram ]
!316 = metadata !{i32 786453, i32 0, metadata !"", i32 0, i32 0, i64 0, i64 0, i64 0, i32 0, null, metadata !317, i32 0, i32 0} ; [ DW_TAG_subroutine_type ]
!317 = metadata !{null, metadata !314, metadata !77}
!318 = metadata !{i32 786478, i32 0, metadata !297, metadata !"ap_int_base", metadata !"ap_int_base", metadata !"", metadata !59, i32 1517, metadata !319, i1 false, i1 false, i32 0, i32 0, null, i32 384, i1 false, null, null, i32 0, metadata !71, i32 1517} ; [ DW_TAG_subprogram ]
!319 = metadata !{i32 786453, i32 0, metadata !"", i32 0, i32 0, i64 0, i64 0, i64 0, i32 0, null, metadata !320, i32 0, i32 0} ; [ DW_TAG_subroutine_type ]
!320 = metadata !{null, metadata !314, metadata !102}
!321 = metadata !{i32 786478, i32 0, metadata !297, metadata !"ap_int_base", metadata !"ap_int_base", metadata !"", metadata !59, i32 1518, metadata !322, i1 false, i1 false, i32 0, i32 0, null, i32 384, i1 false, null, null, i32 0, metadata !71, i32 1518} ; [ DW_TAG_subprogram ]
!322 = metadata !{i32 786453, i32 0, metadata !"", i32 0, i32 0, i64 0, i64 0, i64 0, i32 0, null, metadata !323, i32 0, i32 0} ; [ DW_TAG_subroutine_type ]
!323 = metadata !{null, metadata !314, metadata !106}
!324 = metadata !{i32 786478, i32 0, metadata !297, metadata !"ap_int_base", metadata !"ap_int_base", metadata !"", metadata !59, i32 1519, metadata !325, i1 false, i1 false, i32 0, i32 0, null, i32 384, i1 false, null, null, i32 0, metadata !71, i32 1519} ; [ DW_TAG_subprogram ]
!325 = metadata !{i32 786453, i32 0, metadata !"", i32 0, i32 0, i64 0, i64 0, i64 0, i32 0, null, metadata !326, i32 0, i32 0} ; [ DW_TAG_subroutine_type ]
!326 = metadata !{null, metadata !314, metadata !110}
!327 = metadata !{i32 786478, i32 0, metadata !297, metadata !"ap_int_base", metadata !"ap_int_base", metadata !"", metadata !59, i32 1520, metadata !328, i1 false, i1 false, i32 0, i32 0, null, i32 384, i1 false, null, null, i32 0, metadata !71, i32 1520} ; [ DW_TAG_subprogram ]
!328 = metadata !{i32 786453, i32 0, metadata !"", i32 0, i32 0, i64 0, i64 0, i64 0, i32 0, null, metadata !329, i32 0, i32 0} ; [ DW_TAG_subroutine_type ]
!329 = metadata !{null, metadata !314, metadata !114}
!330 = metadata !{i32 786478, i32 0, metadata !297, metadata !"ap_int_base", metadata !"ap_int_base", metadata !"", metadata !59, i32 1521, metadata !331, i1 false, i1 false, i32 0, i32 0, null, i32 384, i1 false, null, null, i32 0, metadata !71, i32 1521} ; [ DW_TAG_subprogram ]
!331 = metadata !{i32 786453, i32 0, metadata !"", i32 0, i32 0, i64 0, i64 0, i64 0, i32 0, null, metadata !332, i32 0, i32 0} ; [ DW_TAG_subroutine_type ]
!332 = metadata !{null, metadata !314, metadata !75}
!333 = metadata !{i32 786478, i32 0, metadata !297, metadata !"ap_int_base", metadata !"ap_int_base", metadata !"", metadata !59, i32 1522, metadata !334, i1 false, i1 false, i32 0, i32 0, null, i32 384, i1 false, null, null, i32 0, metadata !71, i32 1522} ; [ DW_TAG_subprogram ]
!334 = metadata !{i32 786453, i32 0, metadata !"", i32 0, i32 0, i64 0, i64 0, i64 0, i32 0, null, metadata !335, i32 0, i32 0} ; [ DW_TAG_subroutine_type ]
!335 = metadata !{null, metadata !314, metadata !121}
!336 = metadata !{i32 786478, i32 0, metadata !297, metadata !"ap_int_base", metadata !"ap_int_base", metadata !"", metadata !59, i32 1523, metadata !337, i1 false, i1 false, i32 0, i32 0, null, i32 384, i1 false, null, null, i32 0, metadata !71, i32 1523} ; [ DW_TAG_subprogram ]
!337 = metadata !{i32 786453, i32 0, metadata !"", i32 0, i32 0, i64 0, i64 0, i64 0, i32 0, null, metadata !338, i32 0, i32 0} ; [ DW_TAG_subroutine_type ]
!338 = metadata !{null, metadata !314, metadata !125}
!339 = metadata !{i32 786478, i32 0, metadata !297, metadata !"ap_int_base", metadata !"ap_int_base", metadata !"", metadata !59, i32 1524, metadata !340, i1 false, i1 false, i32 0, i32 0, null, i32 384, i1 false, null, null, i32 0, metadata !71, i32 1524} ; [ DW_TAG_subprogram ]
!340 = metadata !{i32 786453, i32 0, metadata !"", i32 0, i32 0, i64 0, i64 0, i64 0, i32 0, null, metadata !341, i32 0, i32 0} ; [ DW_TAG_subroutine_type ]
!341 = metadata !{null, metadata !314, metadata !129}
!342 = metadata !{i32 786478, i32 0, metadata !297, metadata !"ap_int_base", metadata !"ap_int_base", metadata !"", metadata !59, i32 1525, metadata !343, i1 false, i1 false, i32 0, i32 0, null, i32 384, i1 false, null, null, i32 0, metadata !71, i32 1525} ; [ DW_TAG_subprogram ]
!343 = metadata !{i32 786453, i32 0, metadata !"", i32 0, i32 0, i64 0, i64 0, i64 0, i32 0, null, metadata !344, i32 0, i32 0} ; [ DW_TAG_subroutine_type ]
!344 = metadata !{null, metadata !314, metadata !133}
!345 = metadata !{i32 786478, i32 0, metadata !297, metadata !"ap_int_base", metadata !"ap_int_base", metadata !"", metadata !59, i32 1526, metadata !346, i1 false, i1 false, i32 0, i32 0, null, i32 384, i1 false, null, null, i32 0, metadata !71, i32 1526} ; [ DW_TAG_subprogram ]
!346 = metadata !{i32 786453, i32 0, metadata !"", i32 0, i32 0, i64 0, i64 0, i64 0, i32 0, null, metadata !347, i32 0, i32 0} ; [ DW_TAG_subroutine_type ]
!347 = metadata !{null, metadata !314, metadata !138}
!348 = metadata !{i32 786478, i32 0, metadata !297, metadata !"ap_int_base", metadata !"ap_int_base", metadata !"", metadata !59, i32 1527, metadata !349, i1 false, i1 false, i32 0, i32 0, null, i32 384, i1 false, null, null, i32 0, metadata !71, i32 1527} ; [ DW_TAG_subprogram ]
!349 = metadata !{i32 786453, i32 0, metadata !"", i32 0, i32 0, i64 0, i64 0, i64 0, i32 0, null, metadata !350, i32 0, i32 0} ; [ DW_TAG_subroutine_type ]
!350 = metadata !{null, metadata !314, metadata !143}
!351 = metadata !{i32 786478, i32 0, metadata !297, metadata !"ap_int_base", metadata !"ap_int_base", metadata !"", metadata !59, i32 1528, metadata !352, i1 false, i1 false, i32 0, i32 0, null, i32 384, i1 false, null, null, i32 0, metadata !71, i32 1528} ; [ DW_TAG_subprogram ]
!352 = metadata !{i32 786453, i32 0, metadata !"", i32 0, i32 0, i64 0, i64 0, i64 0, i32 0, null, metadata !353, i32 0, i32 0} ; [ DW_TAG_subroutine_type ]
!353 = metadata !{null, metadata !314, metadata !148}
!354 = metadata !{i32 786478, i32 0, metadata !297, metadata !"ap_int_base", metadata !"ap_int_base", metadata !"", metadata !59, i32 1529, metadata !355, i1 false, i1 false, i32 0, i32 0, null, i32 384, i1 false, null, null, i32 0, metadata !71, i32 1529} ; [ DW_TAG_subprogram ]
!355 = metadata !{i32 786453, i32 0, metadata !"", i32 0, i32 0, i64 0, i64 0, i64 0, i32 0, null, metadata !356, i32 0, i32 0} ; [ DW_TAG_subroutine_type ]
!356 = metadata !{null, metadata !314, metadata !152}
!357 = metadata !{i32 786478, i32 0, metadata !297, metadata !"ap_int_base", metadata !"ap_int_base", metadata !"", metadata !59, i32 1556, metadata !358, i1 false, i1 false, i32 0, i32 0, null, i32 256, i1 false, null, null, i32 0, metadata !71, i32 1556} ; [ DW_TAG_subprogram ]
!358 = metadata !{i32 786453, i32 0, metadata !"", i32 0, i32 0, i64 0, i64 0, i64 0, i32 0, null, metadata !359, i32 0, i32 0} ; [ DW_TAG_subroutine_type ]
!359 = metadata !{null, metadata !314, metadata !156}
!360 = metadata !{i32 786478, i32 0, metadata !297, metadata !"ap_int_base", metadata !"ap_int_base", metadata !"", metadata !59, i32 1563, metadata !361, i1 false, i1 false, i32 0, i32 0, null, i32 256, i1 false, null, null, i32 0, metadata !71, i32 1563} ; [ DW_TAG_subprogram ]
!361 = metadata !{i32 786453, i32 0, metadata !"", i32 0, i32 0, i64 0, i64 0, i64 0, i32 0, null, metadata !362, i32 0, i32 0} ; [ DW_TAG_subroutine_type ]
!362 = metadata !{null, metadata !314, metadata !156, metadata !102}
!363 = metadata !{i32 786478, i32 0, metadata !297, metadata !"read", metadata !"read", metadata !"_ZNV11ap_int_baseILi9ELb1ELb1EE4readEv", metadata !59, i32 1584, metadata !364, i1 false, i1 false, i32 0, i32 0, null, i32 256, i1 false, null, null, i32 0, metadata !71, i32 1584} ; [ DW_TAG_subprogram ]
!364 = metadata !{i32 786453, i32 0, metadata !"", i32 0, i32 0, i64 0, i64 0, i64 0, i32 0, null, metadata !365, i32 0, i32 0} ; [ DW_TAG_subroutine_type ]
!365 = metadata !{metadata !297, metadata !366}
!366 = metadata !{i32 786447, i32 0, metadata !"", i32 0, i32 0, i64 64, i64 64, i64 0, i32 64, metadata !367} ; [ DW_TAG_pointer_type ]
!367 = metadata !{i32 786485, null, metadata !"", null, i32 0, i64 0, i64 0, i64 0, i32 0, metadata !297} ; [ DW_TAG_volatile_type ]
!368 = metadata !{i32 786478, i32 0, metadata !297, metadata !"write", metadata !"write", metadata !"_ZNV11ap_int_baseILi9ELb1ELb1EE5writeERKS0_", metadata !59, i32 1590, metadata !369, i1 false, i1 false, i32 0, i32 0, null, i32 256, i1 false, null, null, i32 0, metadata !71, i32 1590} ; [ DW_TAG_subprogram ]
!369 = metadata !{i32 786453, i32 0, metadata !"", i32 0, i32 0, i64 0, i64 0, i64 0, i32 0, null, metadata !370, i32 0, i32 0} ; [ DW_TAG_subroutine_type ]
!370 = metadata !{null, metadata !366, metadata !371}
!371 = metadata !{i32 786448, null, null, null, i32 0, i64 0, i64 0, i64 0, i32 0, metadata !372} ; [ DW_TAG_reference_type ]
!372 = metadata !{i32 786470, null, metadata !"", null, i32 0, i64 0, i64 0, i64 0, i32 0, metadata !297} ; [ DW_TAG_const_type ]
!373 = metadata !{i32 786478, i32 0, metadata !297, metadata !"operator=", metadata !"operator=", metadata !"_ZNV11ap_int_baseILi9ELb1ELb1EEaSERVKS0_", metadata !59, i32 1602, metadata !374, i1 false, i1 false, i32 0, i32 0, null, i32 256, i1 false, null, null, i32 0, metadata !71, i32 1602} ; [ DW_TAG_subprogram ]
!374 = metadata !{i32 786453, i32 0, metadata !"", i32 0, i32 0, i64 0, i64 0, i64 0, i32 0, null, metadata !375, i32 0, i32 0} ; [ DW_TAG_subroutine_type ]
!375 = metadata !{null, metadata !366, metadata !376}
!376 = metadata !{i32 786448, null, null, null, i32 0, i64 0, i64 0, i64 0, i32 0, metadata !377} ; [ DW_TAG_reference_type ]
!377 = metadata !{i32 786470, null, metadata !"", null, i32 0, i64 0, i64 0, i64 0, i32 0, metadata !367} ; [ DW_TAG_const_type ]
!378 = metadata !{i32 786478, i32 0, metadata !297, metadata !"operator=", metadata !"operator=", metadata !"_ZNV11ap_int_baseILi9ELb1ELb1EEaSERKS0_", metadata !59, i32 1611, metadata !369, i1 false, i1 false, i32 0, i32 0, null, i32 256, i1 false, null, null, i32 0, metadata !71, i32 1611} ; [ DW_TAG_subprogram ]
!379 = metadata !{i32 786478, i32 0, metadata !297, metadata !"operator=", metadata !"operator=", metadata !"_ZN11ap_int_baseILi9ELb1ELb1EEaSERVKS0_", metadata !59, i32 1634, metadata !380, i1 false, i1 false, i32 0, i32 0, null, i32 256, i1 false, null, null, i32 0, metadata !71, i32 1634} ; [ DW_TAG_subprogram ]
!380 = metadata !{i32 786453, i32 0, metadata !"", i32 0, i32 0, i64 0, i64 0, i64 0, i32 0, null, metadata !381, i32 0, i32 0} ; [ DW_TAG_subroutine_type ]
!381 = metadata !{metadata !382, metadata !314, metadata !376}
!382 = metadata !{i32 786448, null, null, null, i32 0, i64 0, i64 0, i64 0, i32 0, metadata !297} ; [ DW_TAG_reference_type ]
!383 = metadata !{i32 786478, i32 0, metadata !297, metadata !"operator=", metadata !"operator=", metadata !"_ZN11ap_int_baseILi9ELb1ELb1EEaSERKS0_", metadata !59, i32 1639, metadata !384, i1 false, i1 false, i32 0, i32 0, null, i32 256, i1 false, null, null, i32 0, metadata !71, i32 1639} ; [ DW_TAG_subprogram ]
!384 = metadata !{i32 786453, i32 0, metadata !"", i32 0, i32 0, i64 0, i64 0, i64 0, i32 0, null, metadata !385, i32 0, i32 0} ; [ DW_TAG_subroutine_type ]
!385 = metadata !{metadata !382, metadata !314, metadata !371}
!386 = metadata !{i32 786478, i32 0, metadata !297, metadata !"operator=", metadata !"operator=", metadata !"_ZN11ap_int_baseILi9ELb1ELb1EEaSEPKc", metadata !59, i32 1643, metadata !387, i1 false, i1 false, i32 0, i32 0, null, i32 256, i1 false, null, null, i32 0, metadata !71, i32 1643} ; [ DW_TAG_subprogram ]
!387 = metadata !{i32 786453, i32 0, metadata !"", i32 0, i32 0, i64 0, i64 0, i64 0, i32 0, null, metadata !388, i32 0, i32 0} ; [ DW_TAG_subroutine_type ]
!388 = metadata !{metadata !382, metadata !314, metadata !156}
!389 = metadata !{i32 786478, i32 0, metadata !297, metadata !"set", metadata !"set", metadata !"_ZN11ap_int_baseILi9ELb1ELb1EE3setEPKca", metadata !59, i32 1651, metadata !390, i1 false, i1 false, i32 0, i32 0, null, i32 256, i1 false, null, null, i32 0, metadata !71, i32 1651} ; [ DW_TAG_subprogram ]
!390 = metadata !{i32 786453, i32 0, metadata !"", i32 0, i32 0, i64 0, i64 0, i64 0, i32 0, null, metadata !391, i32 0, i32 0} ; [ DW_TAG_subroutine_type ]
!391 = metadata !{metadata !382, metadata !314, metadata !156, metadata !102}
!392 = metadata !{i32 786478, i32 0, metadata !297, metadata !"operator=", metadata !"operator=", metadata !"_ZN11ap_int_baseILi9ELb1ELb1EEaSEa", metadata !59, i32 1665, metadata !393, i1 false, i1 false, i32 0, i32 0, null, i32 256, i1 false, null, null, i32 0, metadata !71, i32 1665} ; [ DW_TAG_subprogram ]
!393 = metadata !{i32 786453, i32 0, metadata !"", i32 0, i32 0, i64 0, i64 0, i64 0, i32 0, null, metadata !394, i32 0, i32 0} ; [ DW_TAG_subroutine_type ]
!394 = metadata !{metadata !382, metadata !314, metadata !102}
!395 = metadata !{i32 786478, i32 0, metadata !297, metadata !"operator=", metadata !"operator=", metadata !"_ZN11ap_int_baseILi9ELb1ELb1EEaSEh", metadata !59, i32 1666, metadata !396, i1 false, i1 false, i32 0, i32 0, null, i32 256, i1 false, null, null, i32 0, metadata !71, i32 1666} ; [ DW_TAG_subprogram ]
!396 = metadata !{i32 786453, i32 0, metadata !"", i32 0, i32 0, i64 0, i64 0, i64 0, i32 0, null, metadata !397, i32 0, i32 0} ; [ DW_TAG_subroutine_type ]
!397 = metadata !{metadata !382, metadata !314, metadata !106}
!398 = metadata !{i32 786478, i32 0, metadata !297, metadata !"operator=", metadata !"operator=", metadata !"_ZN11ap_int_baseILi9ELb1ELb1EEaSEs", metadata !59, i32 1667, metadata !399, i1 false, i1 false, i32 0, i32 0, null, i32 256, i1 false, null, null, i32 0, metadata !71, i32 1667} ; [ DW_TAG_subprogram ]
!399 = metadata !{i32 786453, i32 0, metadata !"", i32 0, i32 0, i64 0, i64 0, i64 0, i32 0, null, metadata !400, i32 0, i32 0} ; [ DW_TAG_subroutine_type ]
!400 = metadata !{metadata !382, metadata !314, metadata !110}
!401 = metadata !{i32 786478, i32 0, metadata !297, metadata !"operator=", metadata !"operator=", metadata !"_ZN11ap_int_baseILi9ELb1ELb1EEaSEt", metadata !59, i32 1668, metadata !402, i1 false, i1 false, i32 0, i32 0, null, i32 256, i1 false, null, null, i32 0, metadata !71, i32 1668} ; [ DW_TAG_subprogram ]
!402 = metadata !{i32 786453, i32 0, metadata !"", i32 0, i32 0, i64 0, i64 0, i64 0, i32 0, null, metadata !403, i32 0, i32 0} ; [ DW_TAG_subroutine_type ]
!403 = metadata !{metadata !382, metadata !314, metadata !114}
!404 = metadata !{i32 786478, i32 0, metadata !297, metadata !"operator=", metadata !"operator=", metadata !"_ZN11ap_int_baseILi9ELb1ELb1EEaSEi", metadata !59, i32 1669, metadata !405, i1 false, i1 false, i32 0, i32 0, null, i32 256, i1 false, null, null, i32 0, metadata !71, i32 1669} ; [ DW_TAG_subprogram ]
!405 = metadata !{i32 786453, i32 0, metadata !"", i32 0, i32 0, i64 0, i64 0, i64 0, i32 0, null, metadata !406, i32 0, i32 0} ; [ DW_TAG_subroutine_type ]
!406 = metadata !{metadata !382, metadata !314, metadata !75}
!407 = metadata !{i32 786478, i32 0, metadata !297, metadata !"operator=", metadata !"operator=", metadata !"_ZN11ap_int_baseILi9ELb1ELb1EEaSEj", metadata !59, i32 1670, metadata !408, i1 false, i1 false, i32 0, i32 0, null, i32 256, i1 false, null, null, i32 0, metadata !71, i32 1670} ; [ DW_TAG_subprogram ]
!408 = metadata !{i32 786453, i32 0, metadata !"", i32 0, i32 0, i64 0, i64 0, i64 0, i32 0, null, metadata !409, i32 0, i32 0} ; [ DW_TAG_subroutine_type ]
!409 = metadata !{metadata !382, metadata !314, metadata !121}
!410 = metadata !{i32 786478, i32 0, metadata !297, metadata !"operator=", metadata !"operator=", metadata !"_ZN11ap_int_baseILi9ELb1ELb1EEaSEx", metadata !59, i32 1671, metadata !411, i1 false, i1 false, i32 0, i32 0, null, i32 256, i1 false, null, null, i32 0, metadata !71, i32 1671} ; [ DW_TAG_subprogram ]
!411 = metadata !{i32 786453, i32 0, metadata !"", i32 0, i32 0, i64 0, i64 0, i64 0, i32 0, null, metadata !412, i32 0, i32 0} ; [ DW_TAG_subroutine_type ]
!412 = metadata !{metadata !382, metadata !314, metadata !133}
!413 = metadata !{i32 786478, i32 0, metadata !297, metadata !"operator=", metadata !"operator=", metadata !"_ZN11ap_int_baseILi9ELb1ELb1EEaSEy", metadata !59, i32 1672, metadata !414, i1 false, i1 false, i32 0, i32 0, null, i32 256, i1 false, null, null, i32 0, metadata !71, i32 1672} ; [ DW_TAG_subprogram ]
!414 = metadata !{i32 786453, i32 0, metadata !"", i32 0, i32 0, i64 0, i64 0, i64 0, i32 0, null, metadata !415, i32 0, i32 0} ; [ DW_TAG_subroutine_type ]
!415 = metadata !{metadata !382, metadata !314, metadata !138}
!416 = metadata !{i32 786478, i32 0, metadata !297, metadata !"operator short", metadata !"operator short", metadata !"_ZNK11ap_int_baseILi9ELb1ELb1EEcvsEv", metadata !59, i32 1710, metadata !417, i1 false, i1 false, i32 0, i32 0, null, i32 256, i1 false, null, null, i32 0, metadata !71, i32 1710} ; [ DW_TAG_subprogram ]
!417 = metadata !{i32 786453, i32 0, metadata !"", i32 0, i32 0, i64 0, i64 0, i64 0, i32 0, null, metadata !418, i32 0, i32 0} ; [ DW_TAG_subroutine_type ]
!418 = metadata !{metadata !419, metadata !424}
!419 = metadata !{i32 786454, metadata !297, metadata !"RetType", metadata !59, i32 1458, i64 0, i64 0, i64 0, i32 0, metadata !420} ; [ DW_TAG_typedef ]
!420 = metadata !{i32 786454, metadata !421, metadata !"Type", metadata !59, i32 1429, i64 0, i64 0, i64 0, i32 0, metadata !110} ; [ DW_TAG_typedef ]
!421 = metadata !{i32 786434, null, metadata !"retval<2, true>", metadata !59, i32 1428, i64 8, i64 8, i32 0, i32 0, null, metadata !216, i32 0, null, metadata !422} ; [ DW_TAG_class_type ]
!422 = metadata !{metadata !423, metadata !310}
!423 = metadata !{i32 786480, null, metadata !"_AP_N", metadata !75, i64 2, null, i32 0, i32 0} ; [ DW_TAG_template_value_parameter ]
!424 = metadata !{i32 786447, i32 0, metadata !"", i32 0, i32 0, i64 64, i64 64, i64 0, i32 64, metadata !372} ; [ DW_TAG_pointer_type ]
!425 = metadata !{i32 786478, i32 0, metadata !297, metadata !"to_bool", metadata !"to_bool", metadata !"_ZNK11ap_int_baseILi9ELb1ELb1EE7to_boolEv", metadata !59, i32 1716, metadata !426, i1 false, i1 false, i32 0, i32 0, null, i32 256, i1 false, null, null, i32 0, metadata !71, i32 1716} ; [ DW_TAG_subprogram ]
!426 = metadata !{i32 786453, i32 0, metadata !"", i32 0, i32 0, i64 0, i64 0, i64 0, i32 0, null, metadata !427, i32 0, i32 0} ; [ DW_TAG_subroutine_type ]
!427 = metadata !{metadata !77, metadata !424}
!428 = metadata !{i32 786478, i32 0, metadata !297, metadata !"to_uchar", metadata !"to_uchar", metadata !"_ZNK11ap_int_baseILi9ELb1ELb1EE8to_ucharEv", metadata !59, i32 1717, metadata !429, i1 false, i1 false, i32 0, i32 0, null, i32 256, i1 false, null, null, i32 0, metadata !71, i32 1717} ; [ DW_TAG_subprogram ]
!429 = metadata !{i32 786453, i32 0, metadata !"", i32 0, i32 0, i64 0, i64 0, i64 0, i32 0, null, metadata !430, i32 0, i32 0} ; [ DW_TAG_subroutine_type ]
!430 = metadata !{metadata !106, metadata !424}
!431 = metadata !{i32 786478, i32 0, metadata !297, metadata !"to_char", metadata !"to_char", metadata !"_ZNK11ap_int_baseILi9ELb1ELb1EE7to_charEv", metadata !59, i32 1718, metadata !432, i1 false, i1 false, i32 0, i32 0, null, i32 256, i1 false, null, null, i32 0, metadata !71, i32 1718} ; [ DW_TAG_subprogram ]
!432 = metadata !{i32 786453, i32 0, metadata !"", i32 0, i32 0, i64 0, i64 0, i64 0, i32 0, null, metadata !433, i32 0, i32 0} ; [ DW_TAG_subroutine_type ]
!433 = metadata !{metadata !102, metadata !424}
!434 = metadata !{i32 786478, i32 0, metadata !297, metadata !"to_ushort", metadata !"to_ushort", metadata !"_ZNK11ap_int_baseILi9ELb1ELb1EE9to_ushortEv", metadata !59, i32 1719, metadata !435, i1 false, i1 false, i32 0, i32 0, null, i32 256, i1 false, null, null, i32 0, metadata !71, i32 1719} ; [ DW_TAG_subprogram ]
!435 = metadata !{i32 786453, i32 0, metadata !"", i32 0, i32 0, i64 0, i64 0, i64 0, i32 0, null, metadata !436, i32 0, i32 0} ; [ DW_TAG_subroutine_type ]
!436 = metadata !{metadata !114, metadata !424}
!437 = metadata !{i32 786478, i32 0, metadata !297, metadata !"to_short", metadata !"to_short", metadata !"_ZNK11ap_int_baseILi9ELb1ELb1EE8to_shortEv", metadata !59, i32 1720, metadata !438, i1 false, i1 false, i32 0, i32 0, null, i32 256, i1 false, null, null, i32 0, metadata !71, i32 1720} ; [ DW_TAG_subprogram ]
!438 = metadata !{i32 786453, i32 0, metadata !"", i32 0, i32 0, i64 0, i64 0, i64 0, i32 0, null, metadata !439, i32 0, i32 0} ; [ DW_TAG_subroutine_type ]
!439 = metadata !{metadata !110, metadata !424}
!440 = metadata !{i32 786478, i32 0, metadata !297, metadata !"to_int", metadata !"to_int", metadata !"_ZNK11ap_int_baseILi9ELb1ELb1EE6to_intEv", metadata !59, i32 1721, metadata !441, i1 false, i1 false, i32 0, i32 0, null, i32 256, i1 false, null, null, i32 0, metadata !71, i32 1721} ; [ DW_TAG_subprogram ]
!441 = metadata !{i32 786453, i32 0, metadata !"", i32 0, i32 0, i64 0, i64 0, i64 0, i32 0, null, metadata !442, i32 0, i32 0} ; [ DW_TAG_subroutine_type ]
!442 = metadata !{metadata !75, metadata !424}
!443 = metadata !{i32 786478, i32 0, metadata !297, metadata !"to_uint", metadata !"to_uint", metadata !"_ZNK11ap_int_baseILi9ELb1ELb1EE7to_uintEv", metadata !59, i32 1722, metadata !444, i1 false, i1 false, i32 0, i32 0, null, i32 256, i1 false, null, null, i32 0, metadata !71, i32 1722} ; [ DW_TAG_subprogram ]
!444 = metadata !{i32 786453, i32 0, metadata !"", i32 0, i32 0, i64 0, i64 0, i64 0, i32 0, null, metadata !445, i32 0, i32 0} ; [ DW_TAG_subroutine_type ]
!445 = metadata !{metadata !121, metadata !424}
!446 = metadata !{i32 786478, i32 0, metadata !297, metadata !"to_long", metadata !"to_long", metadata !"_ZNK11ap_int_baseILi9ELb1ELb1EE7to_longEv", metadata !59, i32 1723, metadata !447, i1 false, i1 false, i32 0, i32 0, null, i32 256, i1 false, null, null, i32 0, metadata !71, i32 1723} ; [ DW_TAG_subprogram ]
!447 = metadata !{i32 786453, i32 0, metadata !"", i32 0, i32 0, i64 0, i64 0, i64 0, i32 0, null, metadata !448, i32 0, i32 0} ; [ DW_TAG_subroutine_type ]
!448 = metadata !{metadata !125, metadata !424}
!449 = metadata !{i32 786478, i32 0, metadata !297, metadata !"to_ulong", metadata !"to_ulong", metadata !"_ZNK11ap_int_baseILi9ELb1ELb1EE8to_ulongEv", metadata !59, i32 1724, metadata !450, i1 false, i1 false, i32 0, i32 0, null, i32 256, i1 false, null, null, i32 0, metadata !71, i32 1724} ; [ DW_TAG_subprogram ]
!450 = metadata !{i32 786453, i32 0, metadata !"", i32 0, i32 0, i64 0, i64 0, i64 0, i32 0, null, metadata !451, i32 0, i32 0} ; [ DW_TAG_subroutine_type ]
!451 = metadata !{metadata !129, metadata !424}
!452 = metadata !{i32 786478, i32 0, metadata !297, metadata !"to_int64", metadata !"to_int64", metadata !"_ZNK11ap_int_baseILi9ELb1ELb1EE8to_int64Ev", metadata !59, i32 1725, metadata !453, i1 false, i1 false, i32 0, i32 0, null, i32 256, i1 false, null, null, i32 0, metadata !71, i32 1725} ; [ DW_TAG_subprogram ]
!453 = metadata !{i32 786453, i32 0, metadata !"", i32 0, i32 0, i64 0, i64 0, i64 0, i32 0, null, metadata !454, i32 0, i32 0} ; [ DW_TAG_subroutine_type ]
!454 = metadata !{metadata !133, metadata !424}
!455 = metadata !{i32 786478, i32 0, metadata !297, metadata !"to_uint64", metadata !"to_uint64", metadata !"_ZNK11ap_int_baseILi9ELb1ELb1EE9to_uint64Ev", metadata !59, i32 1726, metadata !456, i1 false, i1 false, i32 0, i32 0, null, i32 256, i1 false, null, null, i32 0, metadata !71, i32 1726} ; [ DW_TAG_subprogram ]
!456 = metadata !{i32 786453, i32 0, metadata !"", i32 0, i32 0, i64 0, i64 0, i64 0, i32 0, null, metadata !457, i32 0, i32 0} ; [ DW_TAG_subroutine_type ]
!457 = metadata !{metadata !138, metadata !424}
!458 = metadata !{i32 786478, i32 0, metadata !297, metadata !"to_double", metadata !"to_double", metadata !"_ZNK11ap_int_baseILi9ELb1ELb1EE9to_doubleEv", metadata !59, i32 1727, metadata !459, i1 false, i1 false, i32 0, i32 0, null, i32 256, i1 false, null, null, i32 0, metadata !71, i32 1727} ; [ DW_TAG_subprogram ]
!459 = metadata !{i32 786453, i32 0, metadata !"", i32 0, i32 0, i64 0, i64 0, i64 0, i32 0, null, metadata !460, i32 0, i32 0} ; [ DW_TAG_subroutine_type ]
!460 = metadata !{metadata !152, metadata !424}
!461 = metadata !{i32 786478, i32 0, metadata !297, metadata !"length", metadata !"length", metadata !"_ZNK11ap_int_baseILi9ELb1ELb1EE6lengthEv", metadata !59, i32 1741, metadata !441, i1 false, i1 false, i32 0, i32 0, null, i32 256, i1 false, null, null, i32 0, metadata !71, i32 1741} ; [ DW_TAG_subprogram ]
!462 = metadata !{i32 786478, i32 0, metadata !297, metadata !"length", metadata !"length", metadata !"_ZNVK11ap_int_baseILi9ELb1ELb1EE6lengthEv", metadata !59, i32 1742, metadata !463, i1 false, i1 false, i32 0, i32 0, null, i32 256, i1 false, null, null, i32 0, metadata !71, i32 1742} ; [ DW_TAG_subprogram ]
!463 = metadata !{i32 786453, i32 0, metadata !"", i32 0, i32 0, i64 0, i64 0, i64 0, i32 0, null, metadata !464, i32 0, i32 0} ; [ DW_TAG_subroutine_type ]
!464 = metadata !{metadata !75, metadata !465}
!465 = metadata !{i32 786447, i32 0, metadata !"", i32 0, i32 0, i64 64, i64 64, i64 0, i32 64, metadata !377} ; [ DW_TAG_pointer_type ]
!466 = metadata !{i32 786478, i32 0, metadata !297, metadata !"reverse", metadata !"reverse", metadata !"_ZN11ap_int_baseILi9ELb1ELb1EE7reverseEv", metadata !59, i32 1747, metadata !467, i1 false, i1 false, i32 0, i32 0, null, i32 256, i1 false, null, null, i32 0, metadata !71, i32 1747} ; [ DW_TAG_subprogram ]
!467 = metadata !{i32 786453, i32 0, metadata !"", i32 0, i32 0, i64 0, i64 0, i64 0, i32 0, null, metadata !468, i32 0, i32 0} ; [ DW_TAG_subroutine_type ]
!468 = metadata !{metadata !382, metadata !314}
!469 = metadata !{i32 786478, i32 0, metadata !297, metadata !"iszero", metadata !"iszero", metadata !"_ZNK11ap_int_baseILi9ELb1ELb1EE6iszeroEv", metadata !59, i32 1753, metadata !426, i1 false, i1 false, i32 0, i32 0, null, i32 256, i1 false, null, null, i32 0, metadata !71, i32 1753} ; [ DW_TAG_subprogram ]
!470 = metadata !{i32 786478, i32 0, metadata !297, metadata !"is_zero", metadata !"is_zero", metadata !"_ZNK11ap_int_baseILi9ELb1ELb1EE7is_zeroEv", metadata !59, i32 1758, metadata !426, i1 false, i1 false, i32 0, i32 0, null, i32 256, i1 false, null, null, i32 0, metadata !71, i32 1758} ; [ DW_TAG_subprogram ]
!471 = metadata !{i32 786478, i32 0, metadata !297, metadata !"sign", metadata !"sign", metadata !"_ZNK11ap_int_baseILi9ELb1ELb1EE4signEv", metadata !59, i32 1763, metadata !426, i1 false, i1 false, i32 0, i32 0, null, i32 256, i1 false, null, null, i32 0, metadata !71, i32 1763} ; [ DW_TAG_subprogram ]
!472 = metadata !{i32 786478, i32 0, metadata !297, metadata !"clear", metadata !"clear", metadata !"_ZN11ap_int_baseILi9ELb1ELb1EE5clearEi", metadata !59, i32 1771, metadata !331, i1 false, i1 false, i32 0, i32 0, null, i32 256, i1 false, null, null, i32 0, metadata !71, i32 1771} ; [ DW_TAG_subprogram ]
!473 = metadata !{i32 786478, i32 0, metadata !297, metadata !"invert", metadata !"invert", metadata !"_ZN11ap_int_baseILi9ELb1ELb1EE6invertEi", metadata !59, i32 1777, metadata !331, i1 false, i1 false, i32 0, i32 0, null, i32 256, i1 false, null, null, i32 0, metadata !71, i32 1777} ; [ DW_TAG_subprogram ]
!474 = metadata !{i32 786478, i32 0, metadata !297, metadata !"test", metadata !"test", metadata !"_ZNK11ap_int_baseILi9ELb1ELb1EE4testEi", metadata !59, i32 1785, metadata !475, i1 false, i1 false, i32 0, i32 0, null, i32 256, i1 false, null, null, i32 0, metadata !71, i32 1785} ; [ DW_TAG_subprogram ]
!475 = metadata !{i32 786453, i32 0, metadata !"", i32 0, i32 0, i64 0, i64 0, i64 0, i32 0, null, metadata !476, i32 0, i32 0} ; [ DW_TAG_subroutine_type ]
!476 = metadata !{metadata !77, metadata !424, metadata !75}
!477 = metadata !{i32 786478, i32 0, metadata !297, metadata !"set", metadata !"set", metadata !"_ZN11ap_int_baseILi9ELb1ELb1EE3setEi", metadata !59, i32 1791, metadata !331, i1 false, i1 false, i32 0, i32 0, null, i32 256, i1 false, null, null, i32 0, metadata !71, i32 1791} ; [ DW_TAG_subprogram ]
!478 = metadata !{i32 786478, i32 0, metadata !297, metadata !"set", metadata !"set", metadata !"_ZN11ap_int_baseILi9ELb1ELb1EE3setEib", metadata !59, i32 1797, metadata !479, i1 false, i1 false, i32 0, i32 0, null, i32 256, i1 false, null, null, i32 0, metadata !71, i32 1797} ; [ DW_TAG_subprogram ]
!479 = metadata !{i32 786453, i32 0, metadata !"", i32 0, i32 0, i64 0, i64 0, i64 0, i32 0, null, metadata !480, i32 0, i32 0} ; [ DW_TAG_subroutine_type ]
!480 = metadata !{null, metadata !314, metadata !75, metadata !77}
!481 = metadata !{i32 786478, i32 0, metadata !297, metadata !"lrotate", metadata !"lrotate", metadata !"_ZN11ap_int_baseILi9ELb1ELb1EE7lrotateEi", metadata !59, i32 1804, metadata !331, i1 false, i1 false, i32 0, i32 0, null, i32 256, i1 false, null, null, i32 0, metadata !71, i32 1804} ; [ DW_TAG_subprogram ]
!482 = metadata !{i32 786478, i32 0, metadata !297, metadata !"rrotate", metadata !"rrotate", metadata !"_ZN11ap_int_baseILi9ELb1ELb1EE7rrotateEi", metadata !59, i32 1813, metadata !331, i1 false, i1 false, i32 0, i32 0, null, i32 256, i1 false, null, null, i32 0, metadata !71, i32 1813} ; [ DW_TAG_subprogram ]
!483 = metadata !{i32 786478, i32 0, metadata !297, metadata !"set_bit", metadata !"set_bit", metadata !"_ZN11ap_int_baseILi9ELb1ELb1EE7set_bitEib", metadata !59, i32 1821, metadata !479, i1 false, i1 false, i32 0, i32 0, null, i32 256, i1 false, null, null, i32 0, metadata !71, i32 1821} ; [ DW_TAG_subprogram ]
!484 = metadata !{i32 786478, i32 0, metadata !297, metadata !"get_bit", metadata !"get_bit", metadata !"_ZNK11ap_int_baseILi9ELb1ELb1EE7get_bitEi", metadata !59, i32 1826, metadata !475, i1 false, i1 false, i32 0, i32 0, null, i32 256, i1 false, null, null, i32 0, metadata !71, i32 1826} ; [ DW_TAG_subprogram ]
!485 = metadata !{i32 786478, i32 0, metadata !297, metadata !"b_not", metadata !"b_not", metadata !"_ZN11ap_int_baseILi9ELb1ELb1EE5b_notEv", metadata !59, i32 1831, metadata !312, i1 false, i1 false, i32 0, i32 0, null, i32 256, i1 false, null, null, i32 0, metadata !71, i32 1831} ; [ DW_TAG_subprogram ]
!486 = metadata !{i32 786478, i32 0, metadata !297, metadata !"countLeadingZeros", metadata !"countLeadingZeros", metadata !"_ZN11ap_int_baseILi9ELb1ELb1EE17countLeadingZerosEv", metadata !59, i32 1838, metadata !487, i1 false, i1 false, i32 0, i32 0, null, i32 256, i1 false, null, null, i32 0, metadata !71, i32 1838} ; [ DW_TAG_subprogram ]
!487 = metadata !{i32 786453, i32 0, metadata !"", i32 0, i32 0, i64 0, i64 0, i64 0, i32 0, null, metadata !488, i32 0, i32 0} ; [ DW_TAG_subroutine_type ]
!488 = metadata !{metadata !75, metadata !314}
!489 = metadata !{i32 786478, i32 0, metadata !297, metadata !"operator++", metadata !"operator++", metadata !"_ZN11ap_int_baseILi9ELb1ELb1EEppEv", metadata !59, i32 1895, metadata !467, i1 false, i1 false, i32 0, i32 0, null, i32 256, i1 false, null, null, i32 0, metadata !71, i32 1895} ; [ DW_TAG_subprogram ]
!490 = metadata !{i32 786478, i32 0, metadata !297, metadata !"operator--", metadata !"operator--", metadata !"_ZN11ap_int_baseILi9ELb1ELb1EEmmEv", metadata !59, i32 1899, metadata !467, i1 false, i1 false, i32 0, i32 0, null, i32 256, i1 false, null, null, i32 0, metadata !71, i32 1899} ; [ DW_TAG_subprogram ]
!491 = metadata !{i32 786478, i32 0, metadata !297, metadata !"operator++", metadata !"operator++", metadata !"_ZN11ap_int_baseILi9ELb1ELb1EEppEi", metadata !59, i32 1907, metadata !492, i1 false, i1 false, i32 0, i32 0, null, i32 256, i1 false, null, null, i32 0, metadata !71, i32 1907} ; [ DW_TAG_subprogram ]
!492 = metadata !{i32 786453, i32 0, metadata !"", i32 0, i32 0, i64 0, i64 0, i64 0, i32 0, null, metadata !493, i32 0, i32 0} ; [ DW_TAG_subroutine_type ]
!493 = metadata !{metadata !372, metadata !314, metadata !75}
!494 = metadata !{i32 786478, i32 0, metadata !297, metadata !"operator--", metadata !"operator--", metadata !"_ZN11ap_int_baseILi9ELb1ELb1EEmmEi", metadata !59, i32 1912, metadata !492, i1 false, i1 false, i32 0, i32 0, null, i32 256, i1 false, null, null, i32 0, metadata !71, i32 1912} ; [ DW_TAG_subprogram ]
!495 = metadata !{i32 786478, i32 0, metadata !297, metadata !"operator+", metadata !"operator+", metadata !"_ZNK11ap_int_baseILi9ELb1ELb1EEpsEv", metadata !59, i32 1921, metadata !496, i1 false, i1 false, i32 0, i32 0, null, i32 256, i1 false, null, null, i32 0, metadata !71, i32 1921} ; [ DW_TAG_subprogram ]
!496 = metadata !{i32 786453, i32 0, metadata !"", i32 0, i32 0, i64 0, i64 0, i64 0, i32 0, null, metadata !497, i32 0, i32 0} ; [ DW_TAG_subroutine_type ]
!497 = metadata !{metadata !297, metadata !424}
!498 = metadata !{i32 786478, i32 0, metadata !297, metadata !"operator!", metadata !"operator!", metadata !"_ZNK11ap_int_baseILi9ELb1ELb1EEntEv", metadata !59, i32 1927, metadata !426, i1 false, i1 false, i32 0, i32 0, null, i32 256, i1 false, null, null, i32 0, metadata !71, i32 1927} ; [ DW_TAG_subprogram ]
!499 = metadata !{i32 786478, i32 0, metadata !297, metadata !"operator-", metadata !"operator-", metadata !"_ZNK11ap_int_baseILi9ELb1ELb1EEngEv", metadata !59, i32 1932, metadata !500, i1 false, i1 false, i32 0, i32 0, null, i32 256, i1 false, null, null, i32 0, metadata !71, i32 1932} ; [ DW_TAG_subprogram ]
!500 = metadata !{i32 786453, i32 0, metadata !"", i32 0, i32 0, i64 0, i64 0, i64 0, i32 0, null, metadata !501, i32 0, i32 0} ; [ DW_TAG_subroutine_type ]
!501 = metadata !{metadata !502, metadata !424}
!502 = metadata !{i32 786434, null, metadata !"ap_int_base<10, true, true>", metadata !59, i32 651, i64 0, i64 0, i32 0, i32 4, null, null, i32 0, null, metadata !503} ; [ DW_TAG_class_type ]
!503 = metadata !{metadata !504, metadata !310, metadata !505}
!504 = metadata !{i32 786480, null, metadata !"_AP_W", metadata !75, i64 10, null, i32 0, i32 0} ; [ DW_TAG_template_value_parameter ]
!505 = metadata !{i32 786480, null, metadata !"_AP_C", metadata !77, i64 1, null, i32 0, i32 0} ; [ DW_TAG_template_value_parameter ]
!506 = metadata !{i32 786478, i32 0, metadata !297, metadata !"range", metadata !"range", metadata !"_ZN11ap_int_baseILi9ELb1ELb1EE5rangeEii", metadata !59, i32 2062, metadata !507, i1 false, i1 false, i32 0, i32 0, null, i32 256, i1 false, null, null, i32 0, metadata !71, i32 2062} ; [ DW_TAG_subprogram ]
!507 = metadata !{i32 786453, i32 0, metadata !"", i32 0, i32 0, i64 0, i64 0, i64 0, i32 0, null, metadata !508, i32 0, i32 0} ; [ DW_TAG_subroutine_type ]
!508 = metadata !{metadata !509, metadata !314, metadata !75, metadata !75}
!509 = metadata !{i32 786434, null, metadata !"ap_range_ref<9, true>", metadata !59, i32 925, i64 0, i64 0, i32 0, i32 4, null, null, i32 0, null, metadata !510} ; [ DW_TAG_class_type ]
!510 = metadata !{metadata !511, metadata !310}
!511 = metadata !{i32 786480, null, metadata !"_AP_W", metadata !75, i64 9, null, i32 0, i32 0} ; [ DW_TAG_template_value_parameter ]
!512 = metadata !{i32 786478, i32 0, metadata !297, metadata !"operator()", metadata !"operator()", metadata !"_ZN11ap_int_baseILi9ELb1ELb1EEclEii", metadata !59, i32 2068, metadata !507, i1 false, i1 false, i32 0, i32 0, null, i32 256, i1 false, null, null, i32 0, metadata !71, i32 2068} ; [ DW_TAG_subprogram ]
!513 = metadata !{i32 786478, i32 0, metadata !297, metadata !"range", metadata !"range", metadata !"_ZNK11ap_int_baseILi9ELb1ELb1EE5rangeEii", metadata !59, i32 2074, metadata !514, i1 false, i1 false, i32 0, i32 0, null, i32 256, i1 false, null, null, i32 0, metadata !71, i32 2074} ; [ DW_TAG_subprogram ]
!514 = metadata !{i32 786453, i32 0, metadata !"", i32 0, i32 0, i64 0, i64 0, i64 0, i32 0, null, metadata !515, i32 0, i32 0} ; [ DW_TAG_subroutine_type ]
!515 = metadata !{metadata !509, metadata !424, metadata !75, metadata !75}
!516 = metadata !{i32 786478, i32 0, metadata !297, metadata !"operator()", metadata !"operator()", metadata !"_ZNK11ap_int_baseILi9ELb1ELb1EEclEii", metadata !59, i32 2080, metadata !514, i1 false, i1 false, i32 0, i32 0, null, i32 256, i1 false, null, null, i32 0, metadata !71, i32 2080} ; [ DW_TAG_subprogram ]
!517 = metadata !{i32 786478, i32 0, metadata !297, metadata !"operator[]", metadata !"operator[]", metadata !"_ZN11ap_int_baseILi9ELb1ELb1EEixEi", metadata !59, i32 2099, metadata !518, i1 false, i1 false, i32 0, i32 0, null, i32 256, i1 false, null, null, i32 0, metadata !71, i32 2099} ; [ DW_TAG_subprogram ]
!518 = metadata !{i32 786453, i32 0, metadata !"", i32 0, i32 0, i64 0, i64 0, i64 0, i32 0, null, metadata !519, i32 0, i32 0} ; [ DW_TAG_subroutine_type ]
!519 = metadata !{metadata !520, metadata !314, metadata !75}
!520 = metadata !{i32 786434, null, metadata !"ap_bit_ref<9, true>", metadata !59, i32 1249, i64 128, i64 64, i32 0, i32 0, null, metadata !521, i32 0, null, metadata !510} ; [ DW_TAG_class_type ]
!521 = metadata !{metadata !522, metadata !523, metadata !524, metadata !530, metadata !534, metadata !538, metadata !539, metadata !543, metadata !546, metadata !547, metadata !550, metadata !551}
!522 = metadata !{i32 786445, metadata !520, metadata !"d_bv", metadata !59, i32 1250, i64 64, i64 64, i64 0, i32 0, metadata !382} ; [ DW_TAG_member ]
!523 = metadata !{i32 786445, metadata !520, metadata !"d_index", metadata !59, i32 1251, i64 32, i64 32, i64 64, i32 0, metadata !75} ; [ DW_TAG_member ]
!524 = metadata !{i32 786478, i32 0, metadata !520, metadata !"ap_bit_ref", metadata !"ap_bit_ref", metadata !"", metadata !59, i32 1254, metadata !525, i1 false, i1 false, i32 0, i32 0, null, i32 256, i1 false, null, null, i32 0, metadata !71, i32 1254} ; [ DW_TAG_subprogram ]
!525 = metadata !{i32 786453, i32 0, metadata !"", i32 0, i32 0, i64 0, i64 0, i64 0, i32 0, null, metadata !526, i32 0, i32 0} ; [ DW_TAG_subroutine_type ]
!526 = metadata !{null, metadata !527, metadata !528}
!527 = metadata !{i32 786447, i32 0, metadata !"", i32 0, i32 0, i64 64, i64 64, i64 0, i32 64, metadata !520} ; [ DW_TAG_pointer_type ]
!528 = metadata !{i32 786448, null, null, null, i32 0, i64 0, i64 0, i64 0, i32 0, metadata !529} ; [ DW_TAG_reference_type ]
!529 = metadata !{i32 786470, null, metadata !"", null, i32 0, i64 0, i64 0, i64 0, i32 0, metadata !520} ; [ DW_TAG_const_type ]
!530 = metadata !{i32 786478, i32 0, metadata !520, metadata !"ap_bit_ref", metadata !"ap_bit_ref", metadata !"", metadata !59, i32 1257, metadata !531, i1 false, i1 false, i32 0, i32 0, null, i32 256, i1 false, null, null, i32 0, metadata !71, i32 1257} ; [ DW_TAG_subprogram ]
!531 = metadata !{i32 786453, i32 0, metadata !"", i32 0, i32 0, i64 0, i64 0, i64 0, i32 0, null, metadata !532, i32 0, i32 0} ; [ DW_TAG_subroutine_type ]
!532 = metadata !{null, metadata !527, metadata !533, metadata !75}
!533 = metadata !{i32 786447, null, metadata !"", null, i32 0, i64 64, i64 64, i64 0, i32 0, metadata !297} ; [ DW_TAG_pointer_type ]
!534 = metadata !{i32 786478, i32 0, metadata !520, metadata !"operator _Bool", metadata !"operator _Bool", metadata !"_ZNK10ap_bit_refILi9ELb1EEcvbEv", metadata !59, i32 1259, metadata !535, i1 false, i1 false, i32 0, i32 0, null, i32 256, i1 false, null, null, i32 0, metadata !71, i32 1259} ; [ DW_TAG_subprogram ]
!535 = metadata !{i32 786453, i32 0, metadata !"", i32 0, i32 0, i64 0, i64 0, i64 0, i32 0, null, metadata !536, i32 0, i32 0} ; [ DW_TAG_subroutine_type ]
!536 = metadata !{metadata !77, metadata !537}
!537 = metadata !{i32 786447, i32 0, metadata !"", i32 0, i32 0, i64 64, i64 64, i64 0, i32 64, metadata !529} ; [ DW_TAG_pointer_type ]
!538 = metadata !{i32 786478, i32 0, metadata !520, metadata !"to_bool", metadata !"to_bool", metadata !"_ZNK10ap_bit_refILi9ELb1EE7to_boolEv", metadata !59, i32 1260, metadata !535, i1 false, i1 false, i32 0, i32 0, null, i32 256, i1 false, null, null, i32 0, metadata !71, i32 1260} ; [ DW_TAG_subprogram ]
!539 = metadata !{i32 786478, i32 0, metadata !520, metadata !"operator=", metadata !"operator=", metadata !"_ZN10ap_bit_refILi9ELb1EEaSEy", metadata !59, i32 1262, metadata !540, i1 false, i1 false, i32 0, i32 0, null, i32 256, i1 false, null, null, i32 0, metadata !71, i32 1262} ; [ DW_TAG_subprogram ]
!540 = metadata !{i32 786453, i32 0, metadata !"", i32 0, i32 0, i64 0, i64 0, i64 0, i32 0, null, metadata !541, i32 0, i32 0} ; [ DW_TAG_subroutine_type ]
!541 = metadata !{metadata !542, metadata !527, metadata !139}
!542 = metadata !{i32 786448, null, null, null, i32 0, i64 0, i64 0, i64 0, i32 0, metadata !520} ; [ DW_TAG_reference_type ]
!543 = metadata !{i32 786478, i32 0, metadata !520, metadata !"operator=", metadata !"operator=", metadata !"_ZN10ap_bit_refILi9ELb1EEaSERKS0_", metadata !59, i32 1282, metadata !544, i1 false, i1 false, i32 0, i32 0, null, i32 256, i1 false, null, null, i32 0, metadata !71, i32 1282} ; [ DW_TAG_subprogram ]
!544 = metadata !{i32 786453, i32 0, metadata !"", i32 0, i32 0, i64 0, i64 0, i64 0, i32 0, null, metadata !545, i32 0, i32 0} ; [ DW_TAG_subroutine_type ]
!545 = metadata !{metadata !542, metadata !527, metadata !528}
!546 = metadata !{i32 786478, i32 0, metadata !520, metadata !"get", metadata !"get", metadata !"_ZNK10ap_bit_refILi9ELb1EE3getEv", metadata !59, i32 1390, metadata !535, i1 false, i1 false, i32 0, i32 0, null, i32 256, i1 false, null, null, i32 0, metadata !71, i32 1390} ; [ DW_TAG_subprogram ]
!547 = metadata !{i32 786478, i32 0, metadata !520, metadata !"get", metadata !"get", metadata !"_ZN10ap_bit_refILi9ELb1EE3getEv", metadata !59, i32 1394, metadata !548, i1 false, i1 false, i32 0, i32 0, null, i32 256, i1 false, null, null, i32 0, metadata !71, i32 1394} ; [ DW_TAG_subprogram ]
!548 = metadata !{i32 786453, i32 0, metadata !"", i32 0, i32 0, i64 0, i64 0, i64 0, i32 0, null, metadata !549, i32 0, i32 0} ; [ DW_TAG_subroutine_type ]
!549 = metadata !{metadata !77, metadata !527}
!550 = metadata !{i32 786478, i32 0, metadata !520, metadata !"operator~", metadata !"operator~", metadata !"_ZNK10ap_bit_refILi9ELb1EEcoEv", metadata !59, i32 1403, metadata !535, i1 false, i1 false, i32 0, i32 0, null, i32 256, i1 false, null, null, i32 0, metadata !71, i32 1403} ; [ DW_TAG_subprogram ]
!551 = metadata !{i32 786478, i32 0, metadata !520, metadata !"length", metadata !"length", metadata !"_ZNK10ap_bit_refILi9ELb1EE6lengthEv", metadata !59, i32 1408, metadata !552, i1 false, i1 false, i32 0, i32 0, null, i32 256, i1 false, null, null, i32 0, metadata !71, i32 1408} ; [ DW_TAG_subprogram ]
!552 = metadata !{i32 786453, i32 0, metadata !"", i32 0, i32 0, i64 0, i64 0, i64 0, i32 0, null, metadata !553, i32 0, i32 0} ; [ DW_TAG_subroutine_type ]
!553 = metadata !{metadata !75, metadata !537}
!554 = metadata !{i32 786478, i32 0, metadata !297, metadata !"operator[]", metadata !"operator[]", metadata !"_ZNK11ap_int_baseILi9ELb1ELb1EEixEi", metadata !59, i32 2113, metadata !475, i1 false, i1 false, i32 0, i32 0, null, i32 256, i1 false, null, null, i32 0, metadata !71, i32 2113} ; [ DW_TAG_subprogram ]
!555 = metadata !{i32 786478, i32 0, metadata !297, metadata !"bit", metadata !"bit", metadata !"_ZN11ap_int_baseILi9ELb1ELb1EE3bitEi", metadata !59, i32 2127, metadata !518, i1 false, i1 false, i32 0, i32 0, null, i32 256, i1 false, null, null, i32 0, metadata !71, i32 2127} ; [ DW_TAG_subprogram ]
!556 = metadata !{i32 786478, i32 0, metadata !297, metadata !"bit", metadata !"bit", metadata !"_ZNK11ap_int_baseILi9ELb1ELb1EE3bitEi", metadata !59, i32 2141, metadata !475, i1 false, i1 false, i32 0, i32 0, null, i32 256, i1 false, null, null, i32 0, metadata !71, i32 2141} ; [ DW_TAG_subprogram ]
!557 = metadata !{i32 786478, i32 0, metadata !297, metadata !"and_reduce", metadata !"and_reduce", metadata !"_ZN11ap_int_baseILi9ELb1ELb1EE10and_reduceEv", metadata !59, i32 2321, metadata !558, i1 false, i1 false, i32 0, i32 0, null, i32 256, i1 false, null, null, i32 0, metadata !71, i32 2321} ; [ DW_TAG_subprogram ]
!558 = metadata !{i32 786453, i32 0, metadata !"", i32 0, i32 0, i64 0, i64 0, i64 0, i32 0, null, metadata !559, i32 0, i32 0} ; [ DW_TAG_subroutine_type ]
!559 = metadata !{metadata !77, metadata !314}
!560 = metadata !{i32 786478, i32 0, metadata !297, metadata !"nand_reduce", metadata !"nand_reduce", metadata !"_ZN11ap_int_baseILi9ELb1ELb1EE11nand_reduceEv", metadata !59, i32 2324, metadata !558, i1 false, i1 false, i32 0, i32 0, null, i32 256, i1 false, null, null, i32 0, metadata !71, i32 2324} ; [ DW_TAG_subprogram ]
!561 = metadata !{i32 786478, i32 0, metadata !297, metadata !"or_reduce", metadata !"or_reduce", metadata !"_ZN11ap_int_baseILi9ELb1ELb1EE9or_reduceEv", metadata !59, i32 2327, metadata !558, i1 false, i1 false, i32 0, i32 0, null, i32 256, i1 false, null, null, i32 0, metadata !71, i32 2327} ; [ DW_TAG_subprogram ]
!562 = metadata !{i32 786478, i32 0, metadata !297, metadata !"nor_reduce", metadata !"nor_reduce", metadata !"_ZN11ap_int_baseILi9ELb1ELb1EE10nor_reduceEv", metadata !59, i32 2330, metadata !558, i1 false, i1 false, i32 0, i32 0, null, i32 256, i1 false, null, null, i32 0, metadata !71, i32 2330} ; [ DW_TAG_subprogram ]
!563 = metadata !{i32 786478, i32 0, metadata !297, metadata !"xor_reduce", metadata !"xor_reduce", metadata !"_ZN11ap_int_baseILi9ELb1ELb1EE10xor_reduceEv", metadata !59, i32 2333, metadata !558, i1 false, i1 false, i32 0, i32 0, null, i32 256, i1 false, null, null, i32 0, metadata !71, i32 2333} ; [ DW_TAG_subprogram ]
!564 = metadata !{i32 786478, i32 0, metadata !297, metadata !"xnor_reduce", metadata !"xnor_reduce", metadata !"_ZN11ap_int_baseILi9ELb1ELb1EE11xnor_reduceEv", metadata !59, i32 2336, metadata !558, i1 false, i1 false, i32 0, i32 0, null, i32 256, i1 false, null, null, i32 0, metadata !71, i32 2336} ; [ DW_TAG_subprogram ]
!565 = metadata !{i32 786478, i32 0, metadata !297, metadata !"and_reduce", metadata !"and_reduce", metadata !"_ZNK11ap_int_baseILi9ELb1ELb1EE10and_reduceEv", metadata !59, i32 2340, metadata !426, i1 false, i1 false, i32 0, i32 0, null, i32 256, i1 false, null, null, i32 0, metadata !71, i32 2340} ; [ DW_TAG_subprogram ]
!566 = metadata !{i32 786478, i32 0, metadata !297, metadata !"nand_reduce", metadata !"nand_reduce", metadata !"_ZNK11ap_int_baseILi9ELb1ELb1EE11nand_reduceEv", metadata !59, i32 2343, metadata !426, i1 false, i1 false, i32 0, i32 0, null, i32 256, i1 false, null, null, i32 0, metadata !71, i32 2343} ; [ DW_TAG_subprogram ]
!567 = metadata !{i32 786478, i32 0, metadata !297, metadata !"or_reduce", metadata !"or_reduce", metadata !"_ZNK11ap_int_baseILi9ELb1ELb1EE9or_reduceEv", metadata !59, i32 2346, metadata !426, i1 false, i1 false, i32 0, i32 0, null, i32 256, i1 false, null, null, i32 0, metadata !71, i32 2346} ; [ DW_TAG_subprogram ]
!568 = metadata !{i32 786478, i32 0, metadata !297, metadata !"nor_reduce", metadata !"nor_reduce", metadata !"_ZNK11ap_int_baseILi9ELb1ELb1EE10nor_reduceEv", metadata !59, i32 2349, metadata !426, i1 false, i1 false, i32 0, i32 0, null, i32 256, i1 false, null, null, i32 0, metadata !71, i32 2349} ; [ DW_TAG_subprogram ]
!569 = metadata !{i32 786478, i32 0, metadata !297, metadata !"xor_reduce", metadata !"xor_reduce", metadata !"_ZNK11ap_int_baseILi9ELb1ELb1EE10xor_reduceEv", metadata !59, i32 2352, metadata !426, i1 false, i1 false, i32 0, i32 0, null, i32 256, i1 false, null, null, i32 0, metadata !71, i32 2352} ; [ DW_TAG_subprogram ]
!570 = metadata !{i32 786478, i32 0, metadata !297, metadata !"xnor_reduce", metadata !"xnor_reduce", metadata !"_ZNK11ap_int_baseILi9ELb1ELb1EE11xnor_reduceEv", metadata !59, i32 2355, metadata !426, i1 false, i1 false, i32 0, i32 0, null, i32 256, i1 false, null, null, i32 0, metadata !71, i32 2355} ; [ DW_TAG_subprogram ]
!571 = metadata !{i32 786478, i32 0, metadata !297, metadata !"to_string", metadata !"to_string", metadata !"_ZNK11ap_int_baseILi9ELb1ELb1EE9to_stringEPci8BaseModeb", metadata !59, i32 2362, metadata !572, i1 false, i1 false, i32 0, i32 0, null, i32 256, i1 false, null, null, i32 0, metadata !71, i32 2362} ; [ DW_TAG_subprogram ]
!572 = metadata !{i32 786453, i32 0, metadata !"", i32 0, i32 0, i64 0, i64 0, i64 0, i32 0, null, metadata !573, i32 0, i32 0} ; [ DW_TAG_subroutine_type ]
!573 = metadata !{null, metadata !424, metadata !574, metadata !75, metadata !575, metadata !77}
!574 = metadata !{i32 786447, null, metadata !"", null, i32 0, i64 64, i64 64, i64 0, i32 0, metadata !158} ; [ DW_TAG_pointer_type ]
!575 = metadata !{i32 786436, null, metadata !"BaseMode", metadata !59, i32 603, i64 5, i64 8, i32 0, i32 0, null, metadata !576, i32 0, i32 0} ; [ DW_TAG_enumeration_type ]
!576 = metadata !{metadata !577, metadata !578, metadata !579, metadata !580}
!577 = metadata !{i32 786472, metadata !"SC_BIN", i64 2} ; [ DW_TAG_enumerator ]
!578 = metadata !{i32 786472, metadata !"SC_OCT", i64 8} ; [ DW_TAG_enumerator ]
!579 = metadata !{i32 786472, metadata !"SC_DEC", i64 10} ; [ DW_TAG_enumerator ]
!580 = metadata !{i32 786472, metadata !"SC_HEX", i64 16} ; [ DW_TAG_enumerator ]
!581 = metadata !{i32 786478, i32 0, metadata !297, metadata !"to_string", metadata !"to_string", metadata !"_ZNK11ap_int_baseILi9ELb1ELb1EE9to_stringE8BaseModeb", metadata !59, i32 2389, metadata !582, i1 false, i1 false, i32 0, i32 0, null, i32 256, i1 false, null, null, i32 0, metadata !71, i32 2389} ; [ DW_TAG_subprogram ]
!582 = metadata !{i32 786453, i32 0, metadata !"", i32 0, i32 0, i64 0, i64 0, i64 0, i32 0, null, metadata !583, i32 0, i32 0} ; [ DW_TAG_subroutine_type ]
!583 = metadata !{metadata !574, metadata !424, metadata !575, metadata !77}
!584 = metadata !{i32 786478, i32 0, metadata !297, metadata !"to_string", metadata !"to_string", metadata !"_ZNK11ap_int_baseILi9ELb1ELb1EE9to_stringEab", metadata !59, i32 2393, metadata !585, i1 false, i1 false, i32 0, i32 0, null, i32 256, i1 false, null, null, i32 0, metadata !71, i32 2393} ; [ DW_TAG_subprogram ]
!585 = metadata !{i32 786453, i32 0, metadata !"", i32 0, i32 0, i64 0, i64 0, i64 0, i32 0, null, metadata !586, i32 0, i32 0} ; [ DW_TAG_subroutine_type ]
!586 = metadata !{metadata !574, metadata !424, metadata !102, metadata !77}
!587 = metadata !{metadata !511, metadata !310, metadata !505}
!588 = metadata !{i32 786478, i32 0, metadata !58, metadata !"range", metadata !"range", metadata !"_ZN11ap_int_baseILi8ELb0ELb1EE5rangeEii", metadata !59, i32 2062, metadata !589, i1 false, i1 false, i32 0, i32 0, null, i32 256, i1 false, null, null, i32 0, metadata !71, i32 2062} ; [ DW_TAG_subprogram ]
!589 = metadata !{i32 786453, i32 0, metadata !"", i32 0, i32 0, i64 0, i64 0, i64 0, i32 0, null, metadata !590, i32 0, i32 0} ; [ DW_TAG_subroutine_type ]
!590 = metadata !{metadata !591, metadata !81, metadata !75, metadata !75}
!591 = metadata !{i32 786434, null, metadata !"ap_range_ref<8, false>", metadata !59, i32 925, i64 0, i64 0, i32 0, i32 4, null, null, i32 0, null, metadata !592} ; [ DW_TAG_class_type ]
!592 = metadata !{metadata !593, metadata !76}
!593 = metadata !{i32 786480, null, metadata !"_AP_W", metadata !75, i64 8, null, i32 0, i32 0} ; [ DW_TAG_template_value_parameter ]
!594 = metadata !{i32 786478, i32 0, metadata !58, metadata !"operator()", metadata !"operator()", metadata !"_ZN11ap_int_baseILi8ELb0ELb1EEclEii", metadata !59, i32 2068, metadata !589, i1 false, i1 false, i32 0, i32 0, null, i32 256, i1 false, null, null, i32 0, metadata !71, i32 2068} ; [ DW_TAG_subprogram ]
!595 = metadata !{i32 786478, i32 0, metadata !58, metadata !"range", metadata !"range", metadata !"_ZNK11ap_int_baseILi8ELb0ELb1EE5rangeEii", metadata !59, i32 2074, metadata !596, i1 false, i1 false, i32 0, i32 0, null, i32 256, i1 false, null, null, i32 0, metadata !71, i32 2074} ; [ DW_TAG_subprogram ]
!596 = metadata !{i32 786453, i32 0, metadata !"", i32 0, i32 0, i64 0, i64 0, i64 0, i32 0, null, metadata !597, i32 0, i32 0} ; [ DW_TAG_subroutine_type ]
!597 = metadata !{metadata !591, metadata !219, metadata !75, metadata !75}
!598 = metadata !{i32 786478, i32 0, metadata !58, metadata !"operator()", metadata !"operator()", metadata !"_ZNK11ap_int_baseILi8ELb0ELb1EEclEii", metadata !59, i32 2080, metadata !596, i1 false, i1 false, i32 0, i32 0, null, i32 256, i1 false, null, null, i32 0, metadata !71, i32 2080} ; [ DW_TAG_subprogram ]
!599 = metadata !{i32 786478, i32 0, metadata !58, metadata !"operator[]", metadata !"operator[]", metadata !"_ZN11ap_int_baseILi8ELb0ELb1EEixEi", metadata !59, i32 2099, metadata !600, i1 false, i1 false, i32 0, i32 0, null, i32 256, i1 false, null, null, i32 0, metadata !71, i32 2099} ; [ DW_TAG_subprogram ]
!600 = metadata !{i32 786453, i32 0, metadata !"", i32 0, i32 0, i64 0, i64 0, i64 0, i32 0, null, metadata !601, i32 0, i32 0} ; [ DW_TAG_subroutine_type ]
!601 = metadata !{metadata !602, metadata !81, metadata !75}
!602 = metadata !{i32 786434, null, metadata !"ap_bit_ref<8, false>", metadata !59, i32 1249, i64 0, i64 0, i32 0, i32 4, null, null, i32 0, null, metadata !592} ; [ DW_TAG_class_type ]
!603 = metadata !{i32 786478, i32 0, metadata !58, metadata !"operator[]", metadata !"operator[]", metadata !"_ZNK11ap_int_baseILi8ELb0ELb1EEixEi", metadata !59, i32 2113, metadata !270, i1 false, i1 false, i32 0, i32 0, null, i32 256, i1 false, null, null, i32 0, metadata !71, i32 2113} ; [ DW_TAG_subprogram ]
!604 = metadata !{i32 786478, i32 0, metadata !58, metadata !"bit", metadata !"bit", metadata !"_ZN11ap_int_baseILi8ELb0ELb1EE3bitEi", metadata !59, i32 2127, metadata !600, i1 false, i1 false, i32 0, i32 0, null, i32 256, i1 false, null, null, i32 0, metadata !71, i32 2127} ; [ DW_TAG_subprogram ]
!605 = metadata !{i32 786478, i32 0, metadata !58, metadata !"bit", metadata !"bit", metadata !"_ZNK11ap_int_baseILi8ELb0ELb1EE3bitEi", metadata !59, i32 2141, metadata !270, i1 false, i1 false, i32 0, i32 0, null, i32 256, i1 false, null, null, i32 0, metadata !71, i32 2141} ; [ DW_TAG_subprogram ]
!606 = metadata !{i32 786478, i32 0, metadata !58, metadata !"and_reduce", metadata !"and_reduce", metadata !"_ZN11ap_int_baseILi8ELb0ELb1EE10and_reduceEv", metadata !59, i32 2321, metadata !607, i1 false, i1 false, i32 0, i32 0, null, i32 256, i1 false, null, null, i32 0, metadata !71, i32 2321} ; [ DW_TAG_subprogram ]
!607 = metadata !{i32 786453, i32 0, metadata !"", i32 0, i32 0, i64 0, i64 0, i64 0, i32 0, null, metadata !608, i32 0, i32 0} ; [ DW_TAG_subroutine_type ]
!608 = metadata !{metadata !77, metadata !81}
!609 = metadata !{i32 786478, i32 0, metadata !58, metadata !"nand_reduce", metadata !"nand_reduce", metadata !"_ZN11ap_int_baseILi8ELb0ELb1EE11nand_reduceEv", metadata !59, i32 2324, metadata !607, i1 false, i1 false, i32 0, i32 0, null, i32 256, i1 false, null, null, i32 0, metadata !71, i32 2324} ; [ DW_TAG_subprogram ]
!610 = metadata !{i32 786478, i32 0, metadata !58, metadata !"or_reduce", metadata !"or_reduce", metadata !"_ZN11ap_int_baseILi8ELb0ELb1EE9or_reduceEv", metadata !59, i32 2327, metadata !607, i1 false, i1 false, i32 0, i32 0, null, i32 256, i1 false, null, null, i32 0, metadata !71, i32 2327} ; [ DW_TAG_subprogram ]
!611 = metadata !{i32 786478, i32 0, metadata !58, metadata !"nor_reduce", metadata !"nor_reduce", metadata !"_ZN11ap_int_baseILi8ELb0ELb1EE10nor_reduceEv", metadata !59, i32 2330, metadata !607, i1 false, i1 false, i32 0, i32 0, null, i32 256, i1 false, null, null, i32 0, metadata !71, i32 2330} ; [ DW_TAG_subprogram ]
!612 = metadata !{i32 786478, i32 0, metadata !58, metadata !"xor_reduce", metadata !"xor_reduce", metadata !"_ZN11ap_int_baseILi8ELb0ELb1EE10xor_reduceEv", metadata !59, i32 2333, metadata !607, i1 false, i1 false, i32 0, i32 0, null, i32 256, i1 false, null, null, i32 0, metadata !71, i32 2333} ; [ DW_TAG_subprogram ]
!613 = metadata !{i32 786478, i32 0, metadata !58, metadata !"xnor_reduce", metadata !"xnor_reduce", metadata !"_ZN11ap_int_baseILi8ELb0ELb1EE11xnor_reduceEv", metadata !59, i32 2336, metadata !607, i1 false, i1 false, i32 0, i32 0, null, i32 256, i1 false, null, null, i32 0, metadata !71, i32 2336} ; [ DW_TAG_subprogram ]
!614 = metadata !{i32 786478, i32 0, metadata !58, metadata !"and_reduce", metadata !"and_reduce", metadata !"_ZNK11ap_int_baseILi8ELb0ELb1EE10and_reduceEv", metadata !59, i32 2340, metadata !221, i1 false, i1 false, i32 0, i32 0, null, i32 256, i1 false, null, null, i32 0, metadata !71, i32 2340} ; [ DW_TAG_subprogram ]
!615 = metadata !{i32 786478, i32 0, metadata !58, metadata !"nand_reduce", metadata !"nand_reduce", metadata !"_ZNK11ap_int_baseILi8ELb0ELb1EE11nand_reduceEv", metadata !59, i32 2343, metadata !221, i1 false, i1 false, i32 0, i32 0, null, i32 256, i1 false, null, null, i32 0, metadata !71, i32 2343} ; [ DW_TAG_subprogram ]
!616 = metadata !{i32 786478, i32 0, metadata !58, metadata !"or_reduce", metadata !"or_reduce", metadata !"_ZNK11ap_int_baseILi8ELb0ELb1EE9or_reduceEv", metadata !59, i32 2346, metadata !221, i1 false, i1 false, i32 0, i32 0, null, i32 256, i1 false, null, null, i32 0, metadata !71, i32 2346} ; [ DW_TAG_subprogram ]
!617 = metadata !{i32 786478, i32 0, metadata !58, metadata !"nor_reduce", metadata !"nor_reduce", metadata !"_ZNK11ap_int_baseILi8ELb0ELb1EE10nor_reduceEv", metadata !59, i32 2349, metadata !221, i1 false, i1 false, i32 0, i32 0, null, i32 256, i1 false, null, null, i32 0, metadata !71, i32 2349} ; [ DW_TAG_subprogram ]
!618 = metadata !{i32 786478, i32 0, metadata !58, metadata !"xor_reduce", metadata !"xor_reduce", metadata !"_ZNK11ap_int_baseILi8ELb0ELb1EE10xor_reduceEv", metadata !59, i32 2352, metadata !221, i1 false, i1 false, i32 0, i32 0, null, i32 256, i1 false, null, null, i32 0, metadata !71, i32 2352} ; [ DW_TAG_subprogram ]
!619 = metadata !{i32 786478, i32 0, metadata !58, metadata !"xnor_reduce", metadata !"xnor_reduce", metadata !"_ZNK11ap_int_baseILi8ELb0ELb1EE11xnor_reduceEv", metadata !59, i32 2355, metadata !221, i1 false, i1 false, i32 0, i32 0, null, i32 256, i1 false, null, null, i32 0, metadata !71, i32 2355} ; [ DW_TAG_subprogram ]
!620 = metadata !{i32 786478, i32 0, metadata !58, metadata !"to_string", metadata !"to_string", metadata !"_ZNK11ap_int_baseILi8ELb0ELb1EE9to_stringEPci8BaseModeb", metadata !59, i32 2362, metadata !621, i1 false, i1 false, i32 0, i32 0, null, i32 256, i1 false, null, null, i32 0, metadata !71, i32 2362} ; [ DW_TAG_subprogram ]
!621 = metadata !{i32 786453, i32 0, metadata !"", i32 0, i32 0, i64 0, i64 0, i64 0, i32 0, null, metadata !622, i32 0, i32 0} ; [ DW_TAG_subroutine_type ]
!622 = metadata !{null, metadata !219, metadata !574, metadata !75, metadata !575, metadata !77}
!623 = metadata !{i32 786478, i32 0, metadata !58, metadata !"to_string", metadata !"to_string", metadata !"_ZNK11ap_int_baseILi8ELb0ELb1EE9to_stringE8BaseModeb", metadata !59, i32 2389, metadata !624, i1 false, i1 false, i32 0, i32 0, null, i32 256, i1 false, null, null, i32 0, metadata !71, i32 2389} ; [ DW_TAG_subprogram ]
!624 = metadata !{i32 786453, i32 0, metadata !"", i32 0, i32 0, i64 0, i64 0, i64 0, i32 0, null, metadata !625, i32 0, i32 0} ; [ DW_TAG_subroutine_type ]
!625 = metadata !{metadata !574, metadata !219, metadata !575, metadata !77}
!626 = metadata !{i32 786478, i32 0, metadata !58, metadata !"to_string", metadata !"to_string", metadata !"_ZNK11ap_int_baseILi8ELb0ELb1EE9to_stringEab", metadata !59, i32 2393, metadata !627, i1 false, i1 false, i32 0, i32 0, null, i32 256, i1 false, null, null, i32 0, metadata !71, i32 2393} ; [ DW_TAG_subprogram ]
!627 = metadata !{i32 786453, i32 0, metadata !"", i32 0, i32 0, i64 0, i64 0, i64 0, i32 0, null, metadata !628, i32 0, i32 0} ; [ DW_TAG_subroutine_type ]
!628 = metadata !{metadata !574, metadata !219, metadata !102, metadata !77}
!629 = metadata !{metadata !593, metadata !76, metadata !505}
!630 = metadata !{i32 786478, i32 0, metadata !54, metadata !"ap_uint", metadata !"ap_uint", metadata !"", metadata !55, i32 186, metadata !631, i1 false, i1 false, i32 0, i32 0, null, i32 256, i1 false, null, null, i32 0, metadata !71, i32 186} ; [ DW_TAG_subprogram ]
!631 = metadata !{i32 786453, i32 0, metadata !"", i32 0, i32 0, i64 0, i64 0, i64 0, i32 0, null, metadata !632, i32 0, i32 0} ; [ DW_TAG_subroutine_type ]
!632 = metadata !{null, metadata !633}
!633 = metadata !{i32 786447, i32 0, metadata !"", i32 0, i32 0, i64 64, i64 64, i64 0, i32 64, metadata !54} ; [ DW_TAG_pointer_type ]
!634 = metadata !{i32 786478, i32 0, metadata !54, metadata !"ap_uint<8>", metadata !"ap_uint<8>", metadata !"", metadata !55, i32 188, metadata !635, i1 false, i1 false, i32 0, i32 0, null, i32 256, i1 false, null, metadata !639, i32 0, metadata !71, i32 188} ; [ DW_TAG_subprogram ]
!635 = metadata !{i32 786453, i32 0, metadata !"", i32 0, i32 0, i64 0, i64 0, i64 0, i32 0, null, metadata !636, i32 0, i32 0} ; [ DW_TAG_subroutine_type ]
!636 = metadata !{null, metadata !633, metadata !637}
!637 = metadata !{i32 786448, null, null, null, i32 0, i64 0, i64 0, i64 0, i32 0, metadata !638} ; [ DW_TAG_reference_type ]
!638 = metadata !{i32 786470, null, metadata !"", null, i32 0, i64 0, i64 0, i64 0, i32 0, metadata !54} ; [ DW_TAG_const_type ]
!639 = metadata !{metadata !88}
!640 = metadata !{i32 786478, i32 0, metadata !54, metadata !"ap_uint<8>", metadata !"ap_uint<8>", metadata !"", metadata !55, i32 194, metadata !641, i1 false, i1 false, i32 0, i32 0, null, i32 256, i1 false, null, metadata !639, i32 0, metadata !71, i32 194} ; [ DW_TAG_subprogram ]
!641 = metadata !{i32 786453, i32 0, metadata !"", i32 0, i32 0, i64 0, i64 0, i64 0, i32 0, null, metadata !642, i32 0, i32 0} ; [ DW_TAG_subroutine_type ]
!642 = metadata !{null, metadata !633, metadata !643}
!643 = metadata !{i32 786448, null, null, null, i32 0, i64 0, i64 0, i64 0, i32 0, metadata !644} ; [ DW_TAG_reference_type ]
!644 = metadata !{i32 786470, null, metadata !"", null, i32 0, i64 0, i64 0, i64 0, i32 0, metadata !645} ; [ DW_TAG_const_type ]
!645 = metadata !{i32 786485, null, metadata !"", null, i32 0, i64 0, i64 0, i64 0, i32 0, metadata !54} ; [ DW_TAG_volatile_type ]
!646 = metadata !{i32 786478, i32 0, metadata !54, metadata !"ap_uint<8, false>", metadata !"ap_uint<8, false>", metadata !"", metadata !55, i32 229, metadata !647, i1 false, i1 false, i32 0, i32 0, null, i32 256, i1 false, null, metadata !87, i32 0, metadata !71, i32 229} ; [ DW_TAG_subprogram ]
!647 = metadata !{i32 786453, i32 0, metadata !"", i32 0, i32 0, i64 0, i64 0, i64 0, i32 0, null, metadata !648, i32 0, i32 0} ; [ DW_TAG_subroutine_type ]
!648 = metadata !{null, metadata !633, metadata !85}
!649 = metadata !{i32 786478, i32 0, metadata !54, metadata !"ap_uint", metadata !"ap_uint", metadata !"", metadata !55, i32 248, metadata !650, i1 false, i1 false, i32 0, i32 0, null, i32 256, i1 false, null, null, i32 0, metadata !71, i32 248} ; [ DW_TAG_subprogram ]
!650 = metadata !{i32 786453, i32 0, metadata !"", i32 0, i32 0, i64 0, i64 0, i64 0, i32 0, null, metadata !651, i32 0, i32 0} ; [ DW_TAG_subroutine_type ]
!651 = metadata !{null, metadata !633, metadata !77}
!652 = metadata !{i32 786478, i32 0, metadata !54, metadata !"ap_uint", metadata !"ap_uint", metadata !"", metadata !55, i32 249, metadata !653, i1 false, i1 false, i32 0, i32 0, null, i32 256, i1 false, null, null, i32 0, metadata !71, i32 249} ; [ DW_TAG_subprogram ]
!653 = metadata !{i32 786453, i32 0, metadata !"", i32 0, i32 0, i64 0, i64 0, i64 0, i32 0, null, metadata !654, i32 0, i32 0} ; [ DW_TAG_subroutine_type ]
!654 = metadata !{null, metadata !633, metadata !102}
!655 = metadata !{i32 786478, i32 0, metadata !54, metadata !"ap_uint", metadata !"ap_uint", metadata !"", metadata !55, i32 250, metadata !656, i1 false, i1 false, i32 0, i32 0, null, i32 256, i1 false, null, null, i32 0, metadata !71, i32 250} ; [ DW_TAG_subprogram ]
!656 = metadata !{i32 786453, i32 0, metadata !"", i32 0, i32 0, i64 0, i64 0, i64 0, i32 0, null, metadata !657, i32 0, i32 0} ; [ DW_TAG_subroutine_type ]
!657 = metadata !{null, metadata !633, metadata !106}
!658 = metadata !{i32 786478, i32 0, metadata !54, metadata !"ap_uint", metadata !"ap_uint", metadata !"", metadata !55, i32 251, metadata !659, i1 false, i1 false, i32 0, i32 0, null, i32 256, i1 false, null, null, i32 0, metadata !71, i32 251} ; [ DW_TAG_subprogram ]
!659 = metadata !{i32 786453, i32 0, metadata !"", i32 0, i32 0, i64 0, i64 0, i64 0, i32 0, null, metadata !660, i32 0, i32 0} ; [ DW_TAG_subroutine_type ]
!660 = metadata !{null, metadata !633, metadata !110}
!661 = metadata !{i32 786478, i32 0, metadata !54, metadata !"ap_uint", metadata !"ap_uint", metadata !"", metadata !55, i32 252, metadata !662, i1 false, i1 false, i32 0, i32 0, null, i32 256, i1 false, null, null, i32 0, metadata !71, i32 252} ; [ DW_TAG_subprogram ]
!662 = metadata !{i32 786453, i32 0, metadata !"", i32 0, i32 0, i64 0, i64 0, i64 0, i32 0, null, metadata !663, i32 0, i32 0} ; [ DW_TAG_subroutine_type ]
!663 = metadata !{null, metadata !633, metadata !114}
!664 = metadata !{i32 786478, i32 0, metadata !54, metadata !"ap_uint", metadata !"ap_uint", metadata !"", metadata !55, i32 253, metadata !665, i1 false, i1 false, i32 0, i32 0, null, i32 256, i1 false, null, null, i32 0, metadata !71, i32 253} ; [ DW_TAG_subprogram ]
!665 = metadata !{i32 786453, i32 0, metadata !"", i32 0, i32 0, i64 0, i64 0, i64 0, i32 0, null, metadata !666, i32 0, i32 0} ; [ DW_TAG_subroutine_type ]
!666 = metadata !{null, metadata !633, metadata !75}
!667 = metadata !{i32 786478, i32 0, metadata !54, metadata !"ap_uint", metadata !"ap_uint", metadata !"", metadata !55, i32 254, metadata !668, i1 false, i1 false, i32 0, i32 0, null, i32 256, i1 false, null, null, i32 0, metadata !71, i32 254} ; [ DW_TAG_subprogram ]
!668 = metadata !{i32 786453, i32 0, metadata !"", i32 0, i32 0, i64 0, i64 0, i64 0, i32 0, null, metadata !669, i32 0, i32 0} ; [ DW_TAG_subroutine_type ]
!669 = metadata !{null, metadata !633, metadata !121}
!670 = metadata !{i32 786478, i32 0, metadata !54, metadata !"ap_uint", metadata !"ap_uint", metadata !"", metadata !55, i32 255, metadata !671, i1 false, i1 false, i32 0, i32 0, null, i32 256, i1 false, null, null, i32 0, metadata !71, i32 255} ; [ DW_TAG_subprogram ]
!671 = metadata !{i32 786453, i32 0, metadata !"", i32 0, i32 0, i64 0, i64 0, i64 0, i32 0, null, metadata !672, i32 0, i32 0} ; [ DW_TAG_subroutine_type ]
!672 = metadata !{null, metadata !633, metadata !125}
!673 = metadata !{i32 786478, i32 0, metadata !54, metadata !"ap_uint", metadata !"ap_uint", metadata !"", metadata !55, i32 256, metadata !674, i1 false, i1 false, i32 0, i32 0, null, i32 256, i1 false, null, null, i32 0, metadata !71, i32 256} ; [ DW_TAG_subprogram ]
!674 = metadata !{i32 786453, i32 0, metadata !"", i32 0, i32 0, i64 0, i64 0, i64 0, i32 0, null, metadata !675, i32 0, i32 0} ; [ DW_TAG_subroutine_type ]
!675 = metadata !{null, metadata !633, metadata !129}
!676 = metadata !{i32 786478, i32 0, metadata !54, metadata !"ap_uint", metadata !"ap_uint", metadata !"", metadata !55, i32 257, metadata !677, i1 false, i1 false, i32 0, i32 0, null, i32 256, i1 false, null, null, i32 0, metadata !71, i32 257} ; [ DW_TAG_subprogram ]
!677 = metadata !{i32 786453, i32 0, metadata !"", i32 0, i32 0, i64 0, i64 0, i64 0, i32 0, null, metadata !678, i32 0, i32 0} ; [ DW_TAG_subroutine_type ]
!678 = metadata !{null, metadata !633, metadata !139}
!679 = metadata !{i32 786478, i32 0, metadata !54, metadata !"ap_uint", metadata !"ap_uint", metadata !"", metadata !55, i32 258, metadata !680, i1 false, i1 false, i32 0, i32 0, null, i32 256, i1 false, null, null, i32 0, metadata !71, i32 258} ; [ DW_TAG_subprogram ]
!680 = metadata !{i32 786453, i32 0, metadata !"", i32 0, i32 0, i64 0, i64 0, i64 0, i32 0, null, metadata !681, i32 0, i32 0} ; [ DW_TAG_subroutine_type ]
!681 = metadata !{null, metadata !633, metadata !134}
!682 = metadata !{i32 786478, i32 0, metadata !54, metadata !"ap_uint", metadata !"ap_uint", metadata !"", metadata !55, i32 259, metadata !683, i1 false, i1 false, i32 0, i32 0, null, i32 256, i1 false, null, null, i32 0, metadata !71, i32 259} ; [ DW_TAG_subprogram ]
!683 = metadata !{i32 786453, i32 0, metadata !"", i32 0, i32 0, i64 0, i64 0, i64 0, i32 0, null, metadata !684, i32 0, i32 0} ; [ DW_TAG_subroutine_type ]
!684 = metadata !{null, metadata !633, metadata !143}
!685 = metadata !{i32 786478, i32 0, metadata !54, metadata !"ap_uint", metadata !"ap_uint", metadata !"", metadata !55, i32 260, metadata !686, i1 false, i1 false, i32 0, i32 0, null, i32 256, i1 false, null, null, i32 0, metadata !71, i32 260} ; [ DW_TAG_subprogram ]
!686 = metadata !{i32 786453, i32 0, metadata !"", i32 0, i32 0, i64 0, i64 0, i64 0, i32 0, null, metadata !687, i32 0, i32 0} ; [ DW_TAG_subroutine_type ]
!687 = metadata !{null, metadata !633, metadata !148}
!688 = metadata !{i32 786478, i32 0, metadata !54, metadata !"ap_uint", metadata !"ap_uint", metadata !"", metadata !55, i32 261, metadata !689, i1 false, i1 false, i32 0, i32 0, null, i32 256, i1 false, null, null, i32 0, metadata !71, i32 261} ; [ DW_TAG_subprogram ]
!689 = metadata !{i32 786453, i32 0, metadata !"", i32 0, i32 0, i64 0, i64 0, i64 0, i32 0, null, metadata !690, i32 0, i32 0} ; [ DW_TAG_subroutine_type ]
!690 = metadata !{null, metadata !633, metadata !152}
!691 = metadata !{i32 786478, i32 0, metadata !54, metadata !"ap_uint", metadata !"ap_uint", metadata !"", metadata !55, i32 263, metadata !692, i1 false, i1 false, i32 0, i32 0, null, i32 256, i1 false, null, null, i32 0, metadata !71, i32 263} ; [ DW_TAG_subprogram ]
!692 = metadata !{i32 786453, i32 0, metadata !"", i32 0, i32 0, i64 0, i64 0, i64 0, i32 0, null, metadata !693, i32 0, i32 0} ; [ DW_TAG_subroutine_type ]
!693 = metadata !{null, metadata !633, metadata !156}
!694 = metadata !{i32 786478, i32 0, metadata !54, metadata !"ap_uint", metadata !"ap_uint", metadata !"", metadata !55, i32 264, metadata !695, i1 false, i1 false, i32 0, i32 0, null, i32 256, i1 false, null, null, i32 0, metadata !71, i32 264} ; [ DW_TAG_subprogram ]
!695 = metadata !{i32 786453, i32 0, metadata !"", i32 0, i32 0, i64 0, i64 0, i64 0, i32 0, null, metadata !696, i32 0, i32 0} ; [ DW_TAG_subroutine_type ]
!696 = metadata !{null, metadata !633, metadata !156, metadata !102}
!697 = metadata !{i32 786478, i32 0, metadata !54, metadata !"operator=", metadata !"operator=", metadata !"_ZNV7ap_uintILi8EEaSERKS0_", metadata !55, i32 267, metadata !698, i1 false, i1 false, i32 0, i32 0, null, i32 256, i1 false, null, null, i32 0, metadata !71, i32 267} ; [ DW_TAG_subprogram ]
!698 = metadata !{i32 786453, i32 0, metadata !"", i32 0, i32 0, i64 0, i64 0, i64 0, i32 0, null, metadata !699, i32 0, i32 0} ; [ DW_TAG_subroutine_type ]
!699 = metadata !{null, metadata !700, metadata !637}
!700 = metadata !{i32 786447, i32 0, metadata !"", i32 0, i32 0, i64 64, i64 64, i64 0, i32 64, metadata !645} ; [ DW_TAG_pointer_type ]
!701 = metadata !{i32 786478, i32 0, metadata !54, metadata !"operator=", metadata !"operator=", metadata !"_ZNV7ap_uintILi8EEaSERVKS0_", metadata !55, i32 271, metadata !702, i1 false, i1 false, i32 0, i32 0, null, i32 256, i1 false, null, null, i32 0, metadata !71, i32 271} ; [ DW_TAG_subprogram ]
!702 = metadata !{i32 786453, i32 0, metadata !"", i32 0, i32 0, i64 0, i64 0, i64 0, i32 0, null, metadata !703, i32 0, i32 0} ; [ DW_TAG_subroutine_type ]
!703 = metadata !{null, metadata !700, metadata !643}
!704 = metadata !{i32 786478, i32 0, metadata !54, metadata !"operator=", metadata !"operator=", metadata !"_ZN7ap_uintILi8EEaSERVKS0_", metadata !55, i32 275, metadata !705, i1 false, i1 false, i32 0, i32 0, null, i32 256, i1 false, null, null, i32 0, metadata !71, i32 275} ; [ DW_TAG_subprogram ]
!705 = metadata !{i32 786453, i32 0, metadata !"", i32 0, i32 0, i64 0, i64 0, i64 0, i32 0, null, metadata !706, i32 0, i32 0} ; [ DW_TAG_subroutine_type ]
!706 = metadata !{metadata !707, metadata !633, metadata !643}
!707 = metadata !{i32 786448, null, null, null, i32 0, i64 0, i64 0, i64 0, i32 0, metadata !54} ; [ DW_TAG_reference_type ]
!708 = metadata !{i32 786478, i32 0, metadata !54, metadata !"operator=", metadata !"operator=", metadata !"_ZN7ap_uintILi8EEaSERKS0_", metadata !55, i32 280, metadata !709, i1 false, i1 false, i32 0, i32 0, null, i32 256, i1 false, null, null, i32 0, metadata !71, i32 280} ; [ DW_TAG_subprogram ]
!709 = metadata !{i32 786453, i32 0, metadata !"", i32 0, i32 0, i64 0, i64 0, i64 0, i32 0, null, metadata !710, i32 0, i32 0} ; [ DW_TAG_subroutine_type ]
!710 = metadata !{metadata !707, metadata !633, metadata !637}
!711 = metadata !{i32 786478, i32 0, metadata !54, metadata !"~ap_uint", metadata !"~ap_uint", metadata !"", metadata !55, i32 183, metadata !631, i1 false, i1 false, i32 0, i32 0, null, i32 320, i1 false, null, null, i32 0, metadata !71, i32 183} ; [ DW_TAG_subprogram ]
!712 = metadata !{metadata !593}
!713 = metadata !{i32 786447, null, metadata !"", null, i32 0, i64 64, i64 64, i64 0, i32 0, metadata !714} ; [ DW_TAG_pointer_type ]
!714 = metadata !{i32 786485, null, metadata !"", null, i32 0, i64 0, i64 0, i64 0, i32 0, metadata !77} ; [ DW_TAG_volatile_type ]
!715 = metadata !{i32 786448, null, null, null, i32 0, i64 0, i64 0, i64 0, i32 0, metadata !716} ; [ DW_TAG_reference_type ]
!716 = metadata !{i32 786434, metadata !717, metadata !"stream<ap_uint<8> >", metadata !718, i32 79, i64 8, i64 8, i32 0, i32 0, null, metadata !719, i32 0, null, metadata !761} ; [ DW_TAG_class_type ]
!717 = metadata !{i32 786489, null, metadata !"hls", metadata !718, i32 69} ; [ DW_TAG_namespace ]
!718 = metadata !{i32 786473, metadata !"/opt/Xilinx/Vivado/2018.1/common/technology/autopilot/hls_stream.h", metadata !"/home/andrea/Documenti/vision/Ultrascale/hls/LF_VALID_TO_AXIS", null} ; [ DW_TAG_file_type ]
!719 = metadata !{metadata !720, metadata !721, metadata !725, metadata !728, metadata !733, metadata !736, metadata !739, metadata !742, metadata !746, metadata !747, metadata !748, metadata !751, metadata !754, metadata !755, metadata !758}
!720 = metadata !{i32 786445, metadata !716, metadata !"V", metadata !718, i32 163, i64 8, i64 8, i64 0, i32 0, metadata !54} ; [ DW_TAG_member ]
!721 = metadata !{i32 786478, i32 0, metadata !716, metadata !"stream", metadata !"stream", metadata !"", metadata !718, i32 83, metadata !722, i1 false, i1 false, i32 0, i32 0, null, i32 256, i1 false, null, null, i32 0, metadata !71, i32 83} ; [ DW_TAG_subprogram ]
!722 = metadata !{i32 786453, i32 0, metadata !"", i32 0, i32 0, i64 0, i64 0, i64 0, i32 0, null, metadata !723, i32 0, i32 0} ; [ DW_TAG_subroutine_type ]
!723 = metadata !{null, metadata !724}
!724 = metadata !{i32 786447, i32 0, metadata !"", i32 0, i32 0, i64 64, i64 64, i64 0, i32 64, metadata !716} ; [ DW_TAG_pointer_type ]
!725 = metadata !{i32 786478, i32 0, metadata !716, metadata !"stream", metadata !"stream", metadata !"", metadata !718, i32 86, metadata !726, i1 false, i1 false, i32 0, i32 0, null, i32 256, i1 false, null, null, i32 0, metadata !71, i32 86} ; [ DW_TAG_subprogram ]
!726 = metadata !{i32 786453, i32 0, metadata !"", i32 0, i32 0, i64 0, i64 0, i64 0, i32 0, null, metadata !727, i32 0, i32 0} ; [ DW_TAG_subroutine_type ]
!727 = metadata !{null, metadata !724, metadata !156}
!728 = metadata !{i32 786478, i32 0, metadata !716, metadata !"stream", metadata !"stream", metadata !"", metadata !718, i32 91, metadata !729, i1 false, i1 false, i32 0, i32 0, null, i32 257, i1 false, null, null, i32 0, metadata !71, i32 91} ; [ DW_TAG_subprogram ]
!729 = metadata !{i32 786453, i32 0, metadata !"", i32 0, i32 0, i64 0, i64 0, i64 0, i32 0, null, metadata !730, i32 0, i32 0} ; [ DW_TAG_subroutine_type ]
!730 = metadata !{null, metadata !724, metadata !731}
!731 = metadata !{i32 786448, null, null, null, i32 0, i64 0, i64 0, i64 0, i32 0, metadata !732} ; [ DW_TAG_reference_type ]
!732 = metadata !{i32 786470, null, metadata !"", null, i32 0, i64 0, i64 0, i64 0, i32 0, metadata !716} ; [ DW_TAG_const_type ]
!733 = metadata !{i32 786478, i32 0, metadata !716, metadata !"operator=", metadata !"operator=", metadata !"_ZN3hls6streamI7ap_uintILi8EEEaSERKS3_", metadata !718, i32 94, metadata !734, i1 false, i1 false, i32 0, i32 0, null, i32 257, i1 false, null, null, i32 0, metadata !71, i32 94} ; [ DW_TAG_subprogram ]
!734 = metadata !{i32 786453, i32 0, metadata !"", i32 0, i32 0, i64 0, i64 0, i64 0, i32 0, null, metadata !735, i32 0, i32 0} ; [ DW_TAG_subroutine_type ]
!735 = metadata !{metadata !715, metadata !724, metadata !731}
!736 = metadata !{i32 786478, i32 0, metadata !716, metadata !"operator>>", metadata !"operator>>", metadata !"_ZN3hls6streamI7ap_uintILi8EEErsERS2_", metadata !718, i32 101, metadata !737, i1 false, i1 false, i32 0, i32 0, null, i32 256, i1 false, null, null, i32 0, metadata !71, i32 101} ; [ DW_TAG_subprogram ]
!737 = metadata !{i32 786453, i32 0, metadata !"", i32 0, i32 0, i64 0, i64 0, i64 0, i32 0, null, metadata !738, i32 0, i32 0} ; [ DW_TAG_subroutine_type ]
!738 = metadata !{null, metadata !724, metadata !707}
!739 = metadata !{i32 786478, i32 0, metadata !716, metadata !"operator<<", metadata !"operator<<", metadata !"_ZN3hls6streamI7ap_uintILi8EEElsERKS2_", metadata !718, i32 105, metadata !740, i1 false, i1 false, i32 0, i32 0, null, i32 256, i1 false, null, null, i32 0, metadata !71, i32 105} ; [ DW_TAG_subprogram ]
!740 = metadata !{i32 786453, i32 0, metadata !"", i32 0, i32 0, i64 0, i64 0, i64 0, i32 0, null, metadata !741, i32 0, i32 0} ; [ DW_TAG_subroutine_type ]
!741 = metadata !{null, metadata !724, metadata !637}
!742 = metadata !{i32 786478, i32 0, metadata !716, metadata !"empty", metadata !"empty", metadata !"_ZNK3hls6streamI7ap_uintILi8EEE5emptyEv", metadata !718, i32 112, metadata !743, i1 false, i1 false, i32 0, i32 0, null, i32 256, i1 false, null, null, i32 0, metadata !71, i32 112} ; [ DW_TAG_subprogram ]
!743 = metadata !{i32 786453, i32 0, metadata !"", i32 0, i32 0, i64 0, i64 0, i64 0, i32 0, null, metadata !744, i32 0, i32 0} ; [ DW_TAG_subroutine_type ]
!744 = metadata !{metadata !77, metadata !745}
!745 = metadata !{i32 786447, i32 0, metadata !"", i32 0, i32 0, i64 64, i64 64, i64 0, i32 64, metadata !732} ; [ DW_TAG_pointer_type ]
!746 = metadata !{i32 786478, i32 0, metadata !716, metadata !"full", metadata !"full", metadata !"_ZNK3hls6streamI7ap_uintILi8EEE4fullEv", metadata !718, i32 117, metadata !743, i1 false, i1 false, i32 0, i32 0, null, i32 256, i1 false, null, null, i32 0, metadata !71, i32 117} ; [ DW_TAG_subprogram ]
!747 = metadata !{i32 786478, i32 0, metadata !716, metadata !"read", metadata !"read", metadata !"_ZN3hls6streamI7ap_uintILi8EEE4readERS2_", metadata !718, i32 123, metadata !737, i1 false, i1 false, i32 0, i32 0, null, i32 256, i1 false, null, null, i32 0, metadata !71, i32 123} ; [ DW_TAG_subprogram ]
!748 = metadata !{i32 786478, i32 0, metadata !716, metadata !"read", metadata !"read", metadata !"_ZN3hls6streamI7ap_uintILi8EEE4readEv", metadata !718, i32 129, metadata !749, i1 false, i1 false, i32 0, i32 0, null, i32 256, i1 false, null, null, i32 0, metadata !71, i32 129} ; [ DW_TAG_subprogram ]
!749 = metadata !{i32 786453, i32 0, metadata !"", i32 0, i32 0, i64 0, i64 0, i64 0, i32 0, null, metadata !750, i32 0, i32 0} ; [ DW_TAG_subroutine_type ]
!750 = metadata !{metadata !54, metadata !724}
!751 = metadata !{i32 786478, i32 0, metadata !716, metadata !"read_nb", metadata !"read_nb", metadata !"_ZN3hls6streamI7ap_uintILi8EEE7read_nbERS2_", metadata !718, i32 136, metadata !752, i1 false, i1 false, i32 0, i32 0, null, i32 256, i1 false, null, null, i32 0, metadata !71, i32 136} ; [ DW_TAG_subprogram ]
!752 = metadata !{i32 786453, i32 0, metadata !"", i32 0, i32 0, i64 0, i64 0, i64 0, i32 0, null, metadata !753, i32 0, i32 0} ; [ DW_TAG_subroutine_type ]
!753 = metadata !{metadata !77, metadata !724, metadata !707}
!754 = metadata !{i32 786478, i32 0, metadata !716, metadata !"write", metadata !"write", metadata !"_ZN3hls6streamI7ap_uintILi8EEE5writeERKS2_", metadata !718, i32 144, metadata !740, i1 false, i1 false, i32 0, i32 0, null, i32 256, i1 false, null, null, i32 0, metadata !71, i32 144} ; [ DW_TAG_subprogram ]
!755 = metadata !{i32 786478, i32 0, metadata !716, metadata !"write_nb", metadata !"write_nb", metadata !"_ZN3hls6streamI7ap_uintILi8EEE8write_nbERKS2_", metadata !718, i32 150, metadata !756, i1 false, i1 false, i32 0, i32 0, null, i32 256, i1 false, null, null, i32 0, metadata !71, i32 150} ; [ DW_TAG_subprogram ]
!756 = metadata !{i32 786453, i32 0, metadata !"", i32 0, i32 0, i64 0, i64 0, i64 0, i32 0, null, metadata !757, i32 0, i32 0} ; [ DW_TAG_subroutine_type ]
!757 = metadata !{metadata !77, metadata !724, metadata !637}
!758 = metadata !{i32 786478, i32 0, metadata !716, metadata !"size", metadata !"size", metadata !"_ZN3hls6streamI7ap_uintILi8EEE4sizeEv", metadata !718, i32 157, metadata !759, i1 false, i1 false, i32 0, i32 0, null, i32 256, i1 false, null, null, i32 0, metadata !71, i32 157} ; [ DW_TAG_subprogram ]
!759 = metadata !{i32 786453, i32 0, metadata !"", i32 0, i32 0, i64 0, i64 0, i64 0, i32 0, null, metadata !760, i32 0, i32 0} ; [ DW_TAG_subroutine_type ]
!760 = metadata !{metadata !121, metadata !724}
!761 = metadata !{metadata !762}
!762 = metadata !{i32 786479, null, metadata !"__STREAM_T__", metadata !54, null, i32 0, i32 0} ; [ DW_TAG_template_type_parameter ]
!763 = metadata !{i32 786447, null, metadata !"", null, i32 0, i64 64, i64 64, i64 0, i32 0, metadata !764} ; [ DW_TAG_pointer_type ]
!764 = metadata !{i32 786438, null, metadata !"ap_uint<8>", metadata !55, i32 183, i64 8, i64 8, i32 0, i32 0, null, metadata !765, i32 0, null, metadata !712} ; [ DW_TAG_class_field_type ]
!765 = metadata !{metadata !766}
!766 = metadata !{i32 786438, null, metadata !"ap_int_base<8, false, true>", metadata !59, i32 1453, i64 8, i64 8, i32 0, i32 0, null, metadata !767, i32 0, null, metadata !629} ; [ DW_TAG_class_field_type ]
!767 = metadata !{metadata !768}
!768 = metadata !{i32 786438, null, metadata !"ssdm_int<8 + 1024 * 0, false>", metadata !63, i32 10, i64 8, i64 8, i32 0, i32 0, null, metadata !769, i32 0, null, metadata !73} ; [ DW_TAG_class_field_type ]
!769 = metadata !{metadata !65}
!770 = metadata !{i32 3, i32 38, metadata !47, null}
!771 = metadata !{i32 786689, metadata !47, metadata !"frame_valid", metadata !48, i32 33554435, metadata !713, i32 0, i32 0} ; [ DW_TAG_arg_variable ]
!772 = metadata !{i32 3, i32 62, metadata !47, null}
!773 = metadata !{i32 786689, metadata !47, metadata !"line_valid", metadata !48, i32 50331651, metadata !713, i32 0, i32 0} ; [ DW_TAG_arg_variable ]
!774 = metadata !{i32 3, i32 90, metadata !47, null}
!775 = metadata !{i32 790531, metadata !776, metadata !"outputStream.V.V", null, i32 3, metadata !777, i32 0, i32 0} ; [ DW_TAG_arg_variable_field ]
!776 = metadata !{i32 786689, metadata !47, metadata !"outputStream", metadata !48, i32 67108867, metadata !715, i32 0, i32 0} ; [ DW_TAG_arg_variable ]
!777 = metadata !{i32 786447, null, metadata !"", null, i32 0, i64 0, i64 0, i64 0, i32 0, metadata !778} ; [ DW_TAG_pointer_type ]
!778 = metadata !{i32 786438, metadata !717, metadata !"stream<ap_uint<8> >", metadata !718, i32 79, i64 8, i64 8, i32 0, i32 0, null, metadata !779, i32 0, null, metadata !761} ; [ DW_TAG_class_field_type ]
!779 = metadata !{metadata !764}
!780 = metadata !{i32 3, i32 121, metadata !47, null}
!781 = metadata !{i32 5, i32 1, metadata !782, null}
!782 = metadata !{i32 786443, metadata !47, i32 4, i32 1, metadata !48, i32 0} ; [ DW_TAG_lexical_block ]
!783 = metadata !{i32 6, i32 1, metadata !782, null}
!784 = metadata !{i32 7, i32 1, metadata !782, null}
!785 = metadata !{i32 8, i32 1, metadata !782, null}
!786 = metadata !{i32 11, i32 1, metadata !782, null}
!787 = metadata !{i32 22, i32 3, metadata !788, null}
!788 = metadata !{i32 786443, metadata !782, i32 21, i32 2, metadata !48, i32 1} ; [ DW_TAG_lexical_block ]
!789 = metadata !{i32 20, i32 2, metadata !782, null}
!790 = metadata !{i32 23, i32 4, metadata !788, null}
!791 = metadata !{i32 24, i32 2, metadata !788, null}
!792 = metadata !{i32 27, i32 3, metadata !793, null}
!793 = metadata !{i32 786443, metadata !782, i32 26, i32 2, metadata !48, i32 2} ; [ DW_TAG_lexical_block ]
!794 = metadata !{i32 790531, metadata !795, metadata !"op.V", null, i32 194, metadata !797, i32 0, i32 0} ; [ DW_TAG_arg_variable_field ]
!795 = metadata !{i32 786689, metadata !796, metadata !"op", metadata !55, i32 33554626, metadata !643, i32 0, i32 0} ; [ DW_TAG_arg_variable ]
!796 = metadata !{i32 786478, i32 0, null, metadata !"ap_uint<8>", metadata !"ap_uint<8>", metadata !"_ZN7ap_uintILi8EEC1ILi8EEERVKS_IXT_EE", metadata !55, i32 194, metadata !641, i1 false, i1 true, i32 0, i32 0, null, i32 256, i1 false, null, metadata !639, metadata !640, metadata !71, i32 194} ; [ DW_TAG_subprogram ]
!797 = metadata !{i32 786447, null, metadata !"", null, i32 0, i64 0, i64 0, i64 0, i32 0, metadata !764} ; [ DW_TAG_pointer_type ]
!798 = metadata !{i32 194, i32 81, metadata !796, metadata !799}
!799 = metadata !{i32 29, i32 4, metadata !800, null}
!800 = metadata !{i32 786443, metadata !793, i32 28, i32 3, metadata !48, i32 3} ; [ DW_TAG_lexical_block ]
!801 = metadata !{i32 790531, metadata !802, metadata !"op.V", null, i32 194, metadata !797, i32 0, i32 0} ; [ DW_TAG_arg_variable_field ]
!802 = metadata !{i32 786689, metadata !803, metadata !"op", metadata !55, i32 33554626, metadata !643, i32 0, i32 0} ; [ DW_TAG_arg_variable ]
!803 = metadata !{i32 786478, i32 0, null, metadata !"ap_uint<8>", metadata !"ap_uint<8>", metadata !"_ZN7ap_uintILi8EEC2ILi8EEERVKS_IXT_EE", metadata !55, i32 194, metadata !641, i1 false, i1 true, i32 0, i32 0, null, i32 256, i1 false, null, metadata !639, metadata !640, metadata !71, i32 194} ; [ DW_TAG_subprogram ]
!804 = metadata !{i32 194, i32 81, metadata !803, metadata !805}
!805 = metadata !{i32 194, i32 103, metadata !796, metadata !799}
!806 = metadata !{i32 194, i32 87, metadata !807, metadata !805}
!807 = metadata !{i32 786443, metadata !803, i32 194, i32 85, metadata !55, i32 4} ; [ DW_TAG_lexical_block ]
!808 = metadata !{i32 790531, metadata !809, metadata !"stream<ap_uint<8> >.V.V", null, i32 144, metadata !812, i32 0, i32 0} ; [ DW_TAG_arg_variable_field ]
!809 = metadata !{i32 786689, metadata !810, metadata !"this", metadata !718, i32 16777360, metadata !811, i32 64, i32 0} ; [ DW_TAG_arg_variable ]
!810 = metadata !{i32 786478, i32 0, metadata !717, metadata !"write", metadata !"write", metadata !"_ZN3hls6streamI7ap_uintILi8EEE5writeERKS2_", metadata !718, i32 144, metadata !740, i1 false, i1 true, i32 0, i32 0, null, i32 256, i1 false, null, null, metadata !754, metadata !71, i32 144} ; [ DW_TAG_subprogram ]
!811 = metadata !{i32 786447, null, metadata !"", null, i32 0, i64 64, i64 64, i64 0, i32 0, metadata !716} ; [ DW_TAG_pointer_type ]
!812 = metadata !{i32 786447, null, metadata !"", null, i32 0, i64 64, i64 64, i64 0, i32 0, metadata !778} ; [ DW_TAG_pointer_type ]
!813 = metadata !{i32 144, i32 48, metadata !810, metadata !799}
!814 = metadata !{i32 790529, metadata !815, metadata !"tmp.V", null, i32 145, metadata !764, i32 0, i32 0} ; [ DW_TAG_auto_variable_field ]
!815 = metadata !{i32 786688, metadata !816, metadata !"tmp", metadata !718, i32 145, metadata !54, i32 0, i32 0} ; [ DW_TAG_auto_variable ]
!816 = metadata !{i32 786443, metadata !810, i32 144, i32 79, metadata !718, i32 7} ; [ DW_TAG_lexical_block ]
!817 = metadata !{i32 145, i32 31, metadata !816, metadata !799}
!818 = metadata !{i32 146, i32 9, metadata !816, metadata !799}
!819 = metadata !{i32 30, i32 3, metadata !800, null}
!820 = metadata !{i32 32, i32 1, metadata !782, null}
