; ModuleID = '/home/andrea/Documenti/vision/Ultrascale/hls/VGA/AXI_STREAM_TO_VGA_RED_255/AXI_STREAM_TO_VGA_RED_255_prj/solution1/.autopilot/db/a.o.bc'
target datalayout = "e-p:64:64:64-i1:8:8-i8:8:8-i16:16:16-i32:32:32-i64:64:64-f32:32:32-f64:64:64-v64:64:64-v128:128:128-a0:0:64-s0:64:64-f80:128:128-n8:16:32:64-S128"
target triple = "x86_64-unknown-linux-gnu"

%struct.ap_uint.0 = type { %struct.ap_int_base.1 }
%struct.ap_int_base.1 = type { %struct.ssdm_int.2 }
%struct.ssdm_int.2 = type { i4 }
%"class.hls::stream" = type { %struct.ap_uint }
%struct.ap_uint = type { %struct.ap_int_base }
%struct.ap_int_base = type { %struct.ssdm_int }
%struct.ssdm_int = type { i8 }
%struct.ap_uint.3 = type { %struct.ap_int_base.4 }
%struct.ap_int_base.4 = type { %struct.ssdm_int.5 }
%struct.ssdm_int.5 = type { i1 }
%struct.ap_uint.6 = type { %struct.ap_int_base.7 }
%struct.ap_int_base.7 = type { %struct.ssdm_int.8 }
%struct.ssdm_int.8 = type { i20 }
%struct.ap_int_base.9 = type { %struct.ssdm_int.10 }
%struct.ssdm_int.10 = type { i9 }
%struct.ap_int_base.20 = type { %struct.ssdm_int.21 }
%struct.ssdm_int.21 = type { i32 }
%struct.ap_int_base.22 = type { %struct.ssdm_int.23 }
%struct.ssdm_int.23 = type { i33 }

@.str = private unnamed_addr constant [5 x i8] c"axis\00", align 1 ; [#uses=1 type=[5 x i8]*]
@.str1 = private unnamed_addr constant [5 x i8] c"both\00", align 1 ; [#uses=1 type=[5 x i8]*]
@.str2 = private unnamed_addr constant [1 x i8] zeroinitializer, align 1 ; [#uses=1 type=[1 x i8]*]
@.str3 = private unnamed_addr constant [8 x i8] c"ap_none\00", align 1 ; [#uses=1 type=[8 x i8]*]
@_ZZ25axi_stream_to_vga_red_255bRN3hls6streamI7ap_uintILi8EEEEPVS1_ILi4EES7_S7_PVS1_ILi1EESA_E14color_blinking = internal global %struct.ap_uint.0 zeroinitializer, align 1 ; [#uses=4 type=%struct.ap_uint.0*]
@_ZGVZ25axi_stream_to_vga_red_255bRN3hls6streamI7ap_uintILi8EEEEPVS1_ILi4EES7_S7_PVS1_ILi1EESA_E14color_blinking = internal global i8 0 ; [#uses=2 type=i8*]
@.str4 = private unnamed_addr constant [12 x i8] c"hls_label_0\00", align 1 ; [#uses=1 type=[12 x i8]*]
@llvm.global_ctors = appending global [0 x { i32, void ()* }] zeroinitializer ; [#uses=0 type=[0 x { i32, void ()* }]*]

; [#uses=0]
define void @_Z25axi_stream_to_vga_red_255bRN3hls6streamI7ap_uintILi8EEEEPVS1_ILi4EES7_S7_PVS1_ILi1EESA_(i1 zeroext %selftest, %"class.hls::stream"* %inStream, %struct.ap_uint.0* %R, %struct.ap_uint.0* %G, %struct.ap_uint.0* %B, %struct.ap_uint.3* %V_SYNC, %struct.ap_uint.3* %H_SYNC) nounwind uwtable {
  %1 = alloca i1, align 1                         ; [#uses=3 type=i1*]
  %2 = alloca %"class.hls::stream"*, align 8      ; [#uses=4 type=%"class.hls::stream"**]
  %3 = alloca %struct.ap_uint.0*, align 8         ; [#uses=4 type=%struct.ap_uint.0**]
  %4 = alloca %struct.ap_uint.0*, align 8         ; [#uses=4 type=%struct.ap_uint.0**]
  %5 = alloca %struct.ap_uint.0*, align 8         ; [#uses=4 type=%struct.ap_uint.0**]
  %6 = alloca %struct.ap_uint.3*, align 8         ; [#uses=4 type=%struct.ap_uint.3**]
  %7 = alloca %struct.ap_uint.3*, align 8         ; [#uses=4 type=%struct.ap_uint.3**]
  %TOTAL_V = alloca i32, align 4                  ; [#uses=1 type=i32*]
  %TOTAL_H = alloca i32, align 4                  ; [#uses=1 type=i32*]
  %index = alloca i32, align 4                    ; [#uses=1 type=i32*]
  %x = alloca i32, align 4                        ; [#uses=8 type=i32*]
  %y = alloca i32, align 4                        ; [#uses=8 type=i32*]
  %V_SYNC_temp = alloca %struct.ap_uint.3, align 1 ; [#uses=5 type=%struct.ap_uint.3*]
  %H_SYNC_temp = alloca %struct.ap_uint.3, align 1 ; [#uses=5 type=%struct.ap_uint.3*]
  %input_selection = alloca i1, align 1           ; [#uses=2 type=i1*]
  %8 = alloca %struct.ap_int_base.1, align 1      ; [#uses=1 type=%struct.ap_int_base.1*]
  %emptyStream = alloca i1, align 1               ; [#uses=2 type=i1*]
  %x_coordinate = alloca %struct.ap_uint.6, align 4 ; [#uses=3 type=%struct.ap_uint.6*]
  %y_coordinate = alloca %struct.ap_uint.6, align 4 ; [#uses=3 type=%struct.ap_uint.6*]
  %9 = alloca %struct.ap_uint.3, align 1          ; [#uses=2 type=%struct.ap_uint.3*]
  %10 = alloca %struct.ap_uint.3, align 1         ; [#uses=2 type=%struct.ap_uint.3*]
  %11 = alloca %struct.ap_uint.3, align 1         ; [#uses=2 type=%struct.ap_uint.3*]
  %12 = alloca %struct.ap_uint.3, align 1         ; [#uses=2 type=%struct.ap_uint.3*]
  %R_temp = alloca %struct.ap_uint.0, align 1     ; [#uses=8 type=%struct.ap_uint.0*]
  %G_temp = alloca %struct.ap_uint.0, align 1     ; [#uses=6 type=%struct.ap_uint.0*]
  %B_temp = alloca %struct.ap_uint.0, align 1     ; [#uses=6 type=%struct.ap_uint.0*]
  %in = alloca %struct.ap_uint, align 1           ; [#uses=3 type=%struct.ap_uint*]
  %13 = alloca %struct.ap_uint.0, align 1         ; [#uses=2 type=%struct.ap_uint.0*]
  %14 = alloca %struct.ap_uint.0, align 1         ; [#uses=2 type=%struct.ap_uint.0*]
  %15 = alloca %struct.ap_uint.0, align 1         ; [#uses=2 type=%struct.ap_uint.0*]
  %16 = alloca %struct.ap_uint.0, align 1         ; [#uses=2 type=%struct.ap_uint.0*]
  %17 = alloca %struct.ap_int_base.9, align 2     ; [#uses=2 type=%struct.ap_int_base.9*]
  %18 = alloca %struct.ap_uint.0, align 1         ; [#uses=2 type=%struct.ap_uint.0*]
  %19 = alloca %struct.ap_uint.0, align 1         ; [#uses=2 type=%struct.ap_uint.0*]
  %20 = alloca %struct.ap_uint.0, align 1         ; [#uses=2 type=%struct.ap_uint.0*]
  %21 = alloca %struct.ap_uint.6, align 4         ; [#uses=3 type=%struct.ap_uint.6*]
  %22 = alloca %struct.ap_uint.6, align 4         ; [#uses=3 type=%struct.ap_uint.6*]
  %23 = alloca %struct.ap_uint.0, align 1         ; [#uses=3 type=%struct.ap_uint.0*]
  %24 = alloca %struct.ap_uint.0, align 1         ; [#uses=2 type=%struct.ap_uint.0*]
  %25 = alloca %struct.ap_uint.0, align 1         ; [#uses=2 type=%struct.ap_uint.0*]
  %26 = alloca %struct.ap_uint.0, align 1         ; [#uses=2 type=%struct.ap_uint.0*]
  store i1 %selftest, i1* %1, align 1
  call void @llvm.dbg.declare(metadata !{i1* %1}, metadata !5121), !dbg !5122 ; [debug line = 49:37] [debug variable = selftest]
  store %"class.hls::stream"* %inStream, %"class.hls::stream"** %2, align 8
  call void @llvm.dbg.declare(metadata !{%"class.hls::stream"** %2}, metadata !5123), !dbg !5124 ; [debug line = 49:66] [debug variable = inStream]
  store %struct.ap_uint.0* %R, %struct.ap_uint.0** %3, align 8
  call void @llvm.dbg.declare(metadata !{%struct.ap_uint.0** %3}, metadata !5125), !dbg !5126 ; [debug line = 50:24] [debug variable = R]
  store %struct.ap_uint.0* %G, %struct.ap_uint.0** %4, align 8
  call void @llvm.dbg.declare(metadata !{%struct.ap_uint.0** %4}, metadata !5127), !dbg !5128 ; [debug line = 50:48] [debug variable = G]
  store %struct.ap_uint.0* %B, %struct.ap_uint.0** %5, align 8
  call void @llvm.dbg.declare(metadata !{%struct.ap_uint.0** %5}, metadata !5129), !dbg !5130 ; [debug line = 50:72] [debug variable = B]
  store %struct.ap_uint.3* %V_SYNC, %struct.ap_uint.3** %6, align 8
  call void @llvm.dbg.declare(metadata !{%struct.ap_uint.3** %6}, metadata !5131), !dbg !5132 ; [debug line = 51:24] [debug variable = V_SYNC]
  store %struct.ap_uint.3* %H_SYNC, %struct.ap_uint.3** %7, align 8
  call void @llvm.dbg.declare(metadata !{%struct.ap_uint.3** %7}, metadata !5133), !dbg !5134 ; [debug line = 51:53] [debug variable = H_SYNC]
  %27 = load %"class.hls::stream"** %2, align 8, !dbg !5135 ; [#uses=1 type=%"class.hls::stream"*] [debug line = 53:1]
  call void (...)* @_ssdm_op_SpecInterface(%"class.hls::stream"* %27, i8* getelementptr inbounds ([5 x i8]* @.str, i32 0, i32 0), i32 1, i32 1, i8* getelementptr inbounds ([5 x i8]* @.str1, i32 0, i32 0), i32 0, i32 0, i8* getelementptr inbounds ([1 x i8]* @.str2, i32 0, i32 0), i8* getelementptr inbounds ([1 x i8]* @.str2, i32 0, i32 0), i8* getelementptr inbounds ([1 x i8]* @.str2, i32 0, i32 0), i32 0, i32 0, i32 0, i32 0, i8* getelementptr inbounds ([1 x i8]* @.str2, i32 0, i32 0), i8* getelementptr inbounds ([1 x i8]* @.str2, i32 0, i32 0)) nounwind, !dbg !5135 ; [debug line = 53:1]
  %28 = load i1* %1, align 1, !dbg !5137          ; [#uses=1 type=i1] [debug line = 54:1]
  %29 = zext i1 %28 to i32, !dbg !5137            ; [#uses=1 type=i32] [debug line = 54:1]
  call void (...)* @_ssdm_op_SpecInterface(i32 %29, i8* getelementptr inbounds ([8 x i8]* @.str3, i32 0, i32 0), i32 0, i32 0, i8* getelementptr inbounds ([1 x i8]* @.str2, i32 0, i32 0), i32 0, i32 0, i8* getelementptr inbounds ([1 x i8]* @.str2, i32 0, i32 0), i8* getelementptr inbounds ([1 x i8]* @.str2, i32 0, i32 0), i8* getelementptr inbounds ([1 x i8]* @.str2, i32 0, i32 0), i32 0, i32 0, i32 0, i32 0, i8* getelementptr inbounds ([1 x i8]* @.str2, i32 0, i32 0), i8* getelementptr inbounds ([1 x i8]* @.str2, i32 0, i32 0)) nounwind, !dbg !5137 ; [debug line = 54:1]
  %30 = load %struct.ap_uint.0** %3, align 8, !dbg !5138 ; [#uses=1 type=%struct.ap_uint.0*] [debug line = 55:1]
  call void (...)* @_ssdm_op_SpecInterface(%struct.ap_uint.0* %30, i8* getelementptr inbounds ([8 x i8]* @.str3, i32 0, i32 0), i32 0, i32 0, i8* getelementptr inbounds ([1 x i8]* @.str2, i32 0, i32 0), i32 0, i32 0, i8* getelementptr inbounds ([1 x i8]* @.str2, i32 0, i32 0), i8* getelementptr inbounds ([1 x i8]* @.str2, i32 0, i32 0), i8* getelementptr inbounds ([1 x i8]* @.str2, i32 0, i32 0), i32 0, i32 0, i32 0, i32 0, i8* getelementptr inbounds ([1 x i8]* @.str2, i32 0, i32 0), i8* getelementptr inbounds ([1 x i8]* @.str2, i32 0, i32 0)) nounwind, !dbg !5138 ; [debug line = 55:1]
  %31 = load %struct.ap_uint.0** %4, align 8, !dbg !5139 ; [#uses=1 type=%struct.ap_uint.0*] [debug line = 56:1]
  call void (...)* @_ssdm_op_SpecInterface(%struct.ap_uint.0* %31, i8* getelementptr inbounds ([8 x i8]* @.str3, i32 0, i32 0), i32 0, i32 0, i8* getelementptr inbounds ([1 x i8]* @.str2, i32 0, i32 0), i32 0, i32 0, i8* getelementptr inbounds ([1 x i8]* @.str2, i32 0, i32 0), i8* getelementptr inbounds ([1 x i8]* @.str2, i32 0, i32 0), i8* getelementptr inbounds ([1 x i8]* @.str2, i32 0, i32 0), i32 0, i32 0, i32 0, i32 0, i8* getelementptr inbounds ([1 x i8]* @.str2, i32 0, i32 0), i8* getelementptr inbounds ([1 x i8]* @.str2, i32 0, i32 0)) nounwind, !dbg !5139 ; [debug line = 56:1]
  %32 = load %struct.ap_uint.0** %5, align 8, !dbg !5140 ; [#uses=1 type=%struct.ap_uint.0*] [debug line = 57:1]
  call void (...)* @_ssdm_op_SpecInterface(%struct.ap_uint.0* %32, i8* getelementptr inbounds ([8 x i8]* @.str3, i32 0, i32 0), i32 0, i32 0, i8* getelementptr inbounds ([1 x i8]* @.str2, i32 0, i32 0), i32 0, i32 0, i8* getelementptr inbounds ([1 x i8]* @.str2, i32 0, i32 0), i8* getelementptr inbounds ([1 x i8]* @.str2, i32 0, i32 0), i8* getelementptr inbounds ([1 x i8]* @.str2, i32 0, i32 0), i32 0, i32 0, i32 0, i32 0, i8* getelementptr inbounds ([1 x i8]* @.str2, i32 0, i32 0), i8* getelementptr inbounds ([1 x i8]* @.str2, i32 0, i32 0)) nounwind, !dbg !5140 ; [debug line = 57:1]
  %33 = load %struct.ap_uint.3** %7, align 8, !dbg !5141 ; [#uses=1 type=%struct.ap_uint.3*] [debug line = 58:1]
  call void (...)* @_ssdm_op_SpecInterface(%struct.ap_uint.3* %33, i8* getelementptr inbounds ([8 x i8]* @.str3, i32 0, i32 0), i32 0, i32 0, i8* getelementptr inbounds ([1 x i8]* @.str2, i32 0, i32 0), i32 0, i32 0, i8* getelementptr inbounds ([1 x i8]* @.str2, i32 0, i32 0), i8* getelementptr inbounds ([1 x i8]* @.str2, i32 0, i32 0), i8* getelementptr inbounds ([1 x i8]* @.str2, i32 0, i32 0), i32 0, i32 0, i32 0, i32 0, i8* getelementptr inbounds ([1 x i8]* @.str2, i32 0, i32 0), i8* getelementptr inbounds ([1 x i8]* @.str2, i32 0, i32 0)) nounwind, !dbg !5141 ; [debug line = 58:1]
  %34 = load %struct.ap_uint.3** %6, align 8, !dbg !5142 ; [#uses=1 type=%struct.ap_uint.3*] [debug line = 59:1]
  call void (...)* @_ssdm_op_SpecInterface(%struct.ap_uint.3* %34, i8* getelementptr inbounds ([8 x i8]* @.str3, i32 0, i32 0), i32 0, i32 0, i8* getelementptr inbounds ([1 x i8]* @.str2, i32 0, i32 0), i32 0, i32 0, i8* getelementptr inbounds ([1 x i8]* @.str2, i32 0, i32 0), i8* getelementptr inbounds ([1 x i8]* @.str2, i32 0, i32 0), i8* getelementptr inbounds ([1 x i8]* @.str2, i32 0, i32 0), i32 0, i32 0, i32 0, i32 0, i8* getelementptr inbounds ([1 x i8]* @.str2, i32 0, i32 0), i8* getelementptr inbounds ([1 x i8]* @.str2, i32 0, i32 0)) nounwind, !dbg !5142 ; [debug line = 59:1]
  call void @llvm.dbg.declare(metadata !{i32* %TOTAL_V}, metadata !5143), !dbg !5144 ; [debug line = 62:21] [debug variable = TOTAL_V]
  store i32 525, i32* %TOTAL_V, align 4, !dbg !5145 ; [debug line = 62:48]
  call void @llvm.dbg.declare(metadata !{i32* %TOTAL_H}, metadata !5146), !dbg !5147 ; [debug line = 63:21] [debug variable = TOTAL_H]
  store i32 800, i32* %TOTAL_H, align 4, !dbg !5148 ; [debug line = 63:49]
  call void @llvm.dbg.declare(metadata !{i32* %index}, metadata !5149), !dbg !5150 ; [debug line = 65:15] [debug variable = index]
  store i32 0, i32* %index, align 4, !dbg !5151   ; [debug line = 65:24]
  call void @llvm.dbg.declare(metadata !{i32* %x}, metadata !5152), !dbg !5153 ; [debug line = 66:15] [debug variable = x]
  call void @llvm.dbg.declare(metadata !{i32* %y}, metadata !5154), !dbg !5155 ; [debug line = 66:17] [debug variable = y]
  call void @llvm.dbg.declare(metadata !{%struct.ap_uint.3* %V_SYNC_temp}, metadata !5156), !dbg !5157 ; [debug line = 67:13] [debug variable = V_SYNC_temp]
  call void @_ZN7ap_uintILi1EEC1Ei(%struct.ap_uint.3* %V_SYNC_temp, i32 1), !dbg !5158 ; [debug line = 67:28]
  call void @llvm.dbg.declare(metadata !{%struct.ap_uint.3* %H_SYNC_temp}, metadata !5159), !dbg !5160 ; [debug line = 68:13] [debug variable = H_SYNC_temp]
  call void @_ZN7ap_uintILi1EEC1Ei(%struct.ap_uint.3* %H_SYNC_temp, i32 1), !dbg !5161 ; [debug line = 68:29]
  call void @llvm.dbg.declare(metadata !{i1* %input_selection}, metadata !5162), !dbg !5163 ; [debug line = 70:7] [debug variable = input_selection]
  %35 = load i1* %1, align 1, !dbg !5164          ; [#uses=1 type=i1] [debug line = 70:33]
  store i1 %35, i1* %input_selection, align 1, !dbg !5164 ; [debug line = 70:33]
  %36 = load i8* @_ZGVZ25axi_stream_to_vga_red_255bRN3hls6streamI7ap_uintILi8EEEEPVS1_ILi4EES7_S7_PVS1_ILi1EESA_E14color_blinking, align 1, !dbg !5165 ; [#uses=1 type=i8] [debug line = 72:38]
  %37 = icmp eq i8 %36, 0, !dbg !5165             ; [#uses=1 type=i1] [debug line = 72:38]
  br i1 %37, label %38, label %39, !dbg !5165     ; [debug line = 72:38]

; <label>:38                                      ; preds = %0
  call void @_ZN7ap_uintILi4EEC1Ei(%struct.ap_uint.0* @_ZZ25axi_stream_to_vga_red_255bRN3hls6streamI7ap_uintILi8EEEEPVS1_ILi4EES7_S7_PVS1_ILi1EESA_E14color_blinking, i32 0), !dbg !5165 ; [debug line = 72:38]
  store i8 1, i8* @_ZGVZ25axi_stream_to_vga_red_255bRN3hls6streamI7ap_uintILi8EEEEPVS1_ILi4EES7_S7_PVS1_ILi1EESA_E14color_blinking, !dbg !5165 ; [debug line = 72:38]
  br label %39, !dbg !5165                        ; [debug line = 72:38]

; <label>:39                                      ; preds = %38, %0
  call void (...)* @_ssdm_op_SpecReset(%struct.ap_uint.0* @_ZZ25axi_stream_to_vga_red_255bRN3hls6streamI7ap_uintILi8EEEEPVS1_ILi4EES7_S7_PVS1_ILi1EESA_E14color_blinking, i32 1, i8* getelementptr inbounds ([1 x i8]* @.str2, i32 0, i32 0)) nounwind, !dbg !5166 ; [debug line = 73:1]
  call void @_ZN11ap_int_baseILi4ELb0ELb1EEppEi(%struct.ap_int_base.1* sret %8, %struct.ap_int_base.1* getelementptr inbounds (%struct.ap_uint.0* @_ZZ25axi_stream_to_vga_red_255bRN3hls6streamI7ap_uintILi8EEEEPVS1_ILi4EES7_S7_PVS1_ILi1EESA_E14color_blinking, i32 0, i32 0), i32 0), !dbg !5167 ; [debug line = 76:2]
  call void @llvm.dbg.declare(metadata !{i1* %emptyStream}, metadata !5168), !dbg !5169 ; [debug line = 85:7] [debug variable = emptyStream]
  %40 = load %"class.hls::stream"** %2, align 8, !dbg !5170 ; [#uses=1 type=%"class.hls::stream"*] [debug line = 85:21]
  %41 = call zeroext i1 @_ZNK3hls6streamI7ap_uintILi8EEE5emptyEv(%"class.hls::stream"* %40), !dbg !5170 ; [#uses=1 type=i1] [debug line = 85:21]
  store i1 %41, i1* %emptyStream, align 1, !dbg !5170 ; [debug line = 85:21]
  store i32 0, i32* %y, align 4, !dbg !5171       ; [debug line = 87:7]
  br label %42, !dbg !5171                        ; [debug line = 87:7]

; <label>:42                                      ; preds = %145, %39
  %43 = load i32* %y, align 4, !dbg !5171         ; [#uses=1 type=i32] [debug line = 87:7]
  %44 = icmp ult i32 %43, 525, !dbg !5171         ; [#uses=1 type=i1] [debug line = 87:7]
  br i1 %44, label %45, label %148, !dbg !5171    ; [debug line = 87:7]

; <label>:45                                      ; preds = %42
  store i32 0, i32* %x, align 4, !dbg !5173       ; [debug line = 88:7]
  br label %46, !dbg !5173                        ; [debug line = 88:7]

; <label>:46                                      ; preds = %141, %45
  %47 = load i32* %x, align 4, !dbg !5173         ; [#uses=1 type=i32] [debug line = 88:7]
  %48 = icmp ult i32 %47, 800, !dbg !5173         ; [#uses=1 type=i1] [debug line = 88:7]
  br i1 %48, label %49, label %144, !dbg !5173    ; [debug line = 88:7]

; <label>:49                                      ; preds = %46
  call void (...)* @_ssdm_RegionBegin(i8* getelementptr inbounds ([12 x i8]* @.str4, i32 0, i32 0)) nounwind, !dbg !5175 ; [debug line = 89:3]
  call void (...)* @_ssdm_op_SpecPipeline(i32 1, i32 1, i32 1, i32 0, i8* getelementptr inbounds ([1 x i8]* @.str2, i32 0, i32 0)) nounwind, !dbg !5177 ; [debug line = 90:1]
  call void @llvm.dbg.declare(metadata !{%struct.ap_uint.6* %x_coordinate}, metadata !5178), !dbg !5179 ; [debug line = 92:14] [debug variable = x_coordinate]
  %50 = load i32* %x, align 4, !dbg !5180         ; [#uses=1 type=i32] [debug line = 92:57]
  %51 = sub i32 %50, 144, !dbg !5180              ; [#uses=1 type=i32] [debug line = 92:57]
  call void @_ZN7ap_uintILi20EEC1Ej(%struct.ap_uint.6* %x_coordinate, i32 %51), !dbg !5180 ; [debug line = 92:57]
  call void @llvm.dbg.declare(metadata !{%struct.ap_uint.6* %y_coordinate}, metadata !5181), !dbg !5182 ; [debug line = 93:15] [debug variable = y_coordinate]
  %52 = load i32* %y, align 4, !dbg !5183         ; [#uses=1 type=i32] [debug line = 93:57]
  %53 = sub i32 %52, 35, !dbg !5183               ; [#uses=1 type=i32] [debug line = 93:57]
  call void @_ZN7ap_uintILi20EEC1Ej(%struct.ap_uint.6* %y_coordinate, i32 %53), !dbg !5183 ; [debug line = 93:57]
  %54 = load i32* %y, align 4, !dbg !5184         ; [#uses=1 type=i32] [debug line = 95:3]
  %55 = icmp ult i32 %54, 2, !dbg !5184           ; [#uses=1 type=i1] [debug line = 95:3]
  br i1 %55, label %56, label %58, !dbg !5184     ; [debug line = 95:3]

; <label>:56                                      ; preds = %49
  call void @_ZN7ap_uintILi1EEC1Ei(%struct.ap_uint.3* %9, i32 0), !dbg !5185 ; [debug line = 95:12]
  %57 = call %struct.ap_uint.3* @_ZN7ap_uintILi1EEaSERKS0_(%struct.ap_uint.3* %V_SYNC_temp, %struct.ap_uint.3* %9), !dbg !5185 ; [#uses=0 type=%struct.ap_uint.3*] [debug line = 95:12]
  br label %60, !dbg !5185                        ; [debug line = 95:12]

; <label>:58                                      ; preds = %49
  call void @_ZN7ap_uintILi1EEC1Ei(%struct.ap_uint.3* %10, i32 1), !dbg !5186 ; [debug line = 96:8]
  %59 = call %struct.ap_uint.3* @_ZN7ap_uintILi1EEaSERKS0_(%struct.ap_uint.3* %V_SYNC_temp, %struct.ap_uint.3* %10), !dbg !5186 ; [#uses=0 type=%struct.ap_uint.3*] [debug line = 96:8]
  br label %60

; <label>:60                                      ; preds = %58, %56
  %61 = load i32* %x, align 4, !dbg !5187         ; [#uses=1 type=i32] [debug line = 98:3]
  %62 = icmp ult i32 %61, 96, !dbg !5187          ; [#uses=1 type=i1] [debug line = 98:3]
  br i1 %62, label %63, label %65, !dbg !5187     ; [debug line = 98:3]

; <label>:63                                      ; preds = %60
  call void @_ZN7ap_uintILi1EEC1Ei(%struct.ap_uint.3* %11, i32 0), !dbg !5188 ; [debug line = 98:13]
  %64 = call %struct.ap_uint.3* @_ZN7ap_uintILi1EEaSERKS0_(%struct.ap_uint.3* %H_SYNC_temp, %struct.ap_uint.3* %11), !dbg !5188 ; [#uses=0 type=%struct.ap_uint.3*] [debug line = 98:13]
  br label %67, !dbg !5188                        ; [debug line = 98:13]

; <label>:65                                      ; preds = %60
  call void @_ZN7ap_uintILi1EEC1Ei(%struct.ap_uint.3* %12, i32 1), !dbg !5189 ; [debug line = 99:8]
  %66 = call %struct.ap_uint.3* @_ZN7ap_uintILi1EEaSERKS0_(%struct.ap_uint.3* %H_SYNC_temp, %struct.ap_uint.3* %12), !dbg !5189 ; [#uses=0 type=%struct.ap_uint.3*] [debug line = 99:8]
  br label %67

; <label>:67                                      ; preds = %65, %63
  %68 = load i32* %x, align 4, !dbg !5190         ; [#uses=1 type=i32] [debug line = 101:3]
  %69 = icmp uge i32 %68, 144, !dbg !5190         ; [#uses=1 type=i1] [debug line = 101:3]
  br i1 %69, label %70, label %134, !dbg !5190    ; [debug line = 101:3]

; <label>:70                                      ; preds = %67
  %71 = load i32* %x, align 4, !dbg !5190         ; [#uses=1 type=i32] [debug line = 101:3]
  %72 = icmp ult i32 %71, 784, !dbg !5190         ; [#uses=1 type=i1] [debug line = 101:3]
  br i1 %72, label %73, label %134, !dbg !5190    ; [debug line = 101:3]

; <label>:73                                      ; preds = %70
  %74 = load i32* %y, align 4, !dbg !5190         ; [#uses=1 type=i32] [debug line = 101:3]
  %75 = icmp uge i32 %74, 35, !dbg !5190          ; [#uses=1 type=i1] [debug line = 101:3]
  br i1 %75, label %76, label %134, !dbg !5190    ; [debug line = 101:3]

; <label>:76                                      ; preds = %73
  %77 = load i32* %y, align 4, !dbg !5190         ; [#uses=1 type=i32] [debug line = 101:3]
  %78 = icmp ult i32 %77, 515, !dbg !5190         ; [#uses=1 type=i1] [debug line = 101:3]
  br i1 %78, label %79, label %134, !dbg !5190    ; [debug line = 101:3]

; <label>:79                                      ; preds = %76
  call void @llvm.dbg.declare(metadata !{%struct.ap_uint.0* %R_temp}, metadata !5191), !dbg !5193 ; [debug line = 106:15] [debug variable = R_temp]
  call void @_ZN7ap_uintILi4EEC1Ev(%struct.ap_uint.0* %R_temp), !dbg !5194 ; [debug line = 106:21]
  call void @llvm.dbg.declare(metadata !{%struct.ap_uint.0* %G_temp}, metadata !5195), !dbg !5196 ; [debug line = 107:15] [debug variable = G_temp]
  call void @_ZN7ap_uintILi4EEC1Ev(%struct.ap_uint.0* %G_temp), !dbg !5197 ; [debug line = 107:21]
  call void @llvm.dbg.declare(metadata !{%struct.ap_uint.0* %B_temp}, metadata !5198), !dbg !5199 ; [debug line = 108:15] [debug variable = B_temp]
  call void @_ZN7ap_uintILi4EEC1Ev(%struct.ap_uint.0* %B_temp), !dbg !5200 ; [debug line = 108:21]
  %80 = load i1* %input_selection, align 1, !dbg !5201 ; [#uses=1 type=i1] [debug line = 110:4]
  %81 = zext i1 %80 to i32, !dbg !5201            ; [#uses=1 type=i32] [debug line = 110:4]
  %82 = icmp eq i32 %81, 0, !dbg !5201            ; [#uses=1 type=i1] [debug line = 110:4]
  br i1 %82, label %83, label %104, !dbg !5201    ; [debug line = 110:4]

; <label>:83                                      ; preds = %79
  %84 = load i1* %emptyStream, align 1, !dbg !5202 ; [#uses=1 type=i1] [debug line = 112:5]
  br i1 %84, label %99, label %85, !dbg !5202     ; [debug line = 112:5]

; <label>:85                                      ; preds = %83
  call void @llvm.dbg.declare(metadata !{%struct.ap_uint* %in}, metadata !5204), !dbg !5207 ; [debug line = 115:12] [debug variable = in]
  %86 = load %"class.hls::stream"** %2, align 8, !dbg !5208 ; [#uses=1 type=%"class.hls::stream"*] [debug line = 115:17]
  call void @_ZN3hls6streamI7ap_uintILi8EEE4readEv(%struct.ap_uint* sret %in, %"class.hls::stream"* %86), !dbg !5208 ; [debug line = 115:17]
  %87 = bitcast %struct.ap_uint* %in to %struct.ap_int_base*, !dbg !5209 ; [#uses=1 type=%struct.ap_int_base*] [debug line = 116:10]
  %88 = call zeroext i1 @_ZeqILi8ELb0EEbRK11ap_int_baseIXT_EXT0_EXleT_Li64EEEi(%struct.ap_int_base* %87, i32 255), !dbg !5209 ; [#uses=1 type=i1] [debug line = 116:10]
  br i1 %88, label %89, label %93, !dbg !5209     ; [debug line = 116:10]

; <label>:89                                      ; preds = %85
  call void @_ZN7ap_uintILi4EEC1Ei(%struct.ap_uint.0* %13, i32 255), !dbg !5210 ; [debug line = 118:7]
  %90 = call %struct.ap_uint.0* @_ZN7ap_uintILi4EEaSERKS0_(%struct.ap_uint.0* %R_temp, %struct.ap_uint.0* %13), !dbg !5210 ; [#uses=0 type=%struct.ap_uint.0*] [debug line = 118:7]
  call void @_ZN7ap_uintILi4EEC1Ei(%struct.ap_uint.0* %14, i32 0), !dbg !5212 ; [debug line = 119:7]
  %91 = call %struct.ap_uint.0* @_ZN7ap_uintILi4EEaSERKS0_(%struct.ap_uint.0* %G_temp, %struct.ap_uint.0* %14), !dbg !5212 ; [#uses=0 type=%struct.ap_uint.0*] [debug line = 119:7]
  call void @_ZN7ap_uintILi4EEC1Ei(%struct.ap_uint.0* %15, i32 0), !dbg !5213 ; [debug line = 120:7]
  %92 = call %struct.ap_uint.0* @_ZN7ap_uintILi4EEaSERKS0_(%struct.ap_uint.0* %B_temp, %struct.ap_uint.0* %15), !dbg !5213 ; [#uses=0 type=%struct.ap_uint.0*] [debug line = 120:7]
  br label %98, !dbg !5214                        ; [debug line = 121:6]

; <label>:93                                      ; preds = %85
  %94 = bitcast %struct.ap_uint* %in to %struct.ap_int_base*, !dbg !5215 ; [#uses=1 type=%struct.ap_int_base*] [debug line = 124:17]
  call void @_ZdvILi8ELb0EEN11ap_int_baseIXT_EXT0_EXleT_Li64EEE5RTypeIXLi32EEXLb1EEE3divERKS1_i(%struct.ap_int_base.9* sret %17, %struct.ap_int_base* %94, i32 16), !dbg !5215 ; [debug line = 124:17]
  call void @_ZN7ap_uintILi4EEC1ILi9ELb1EEERK11ap_int_baseIXT_EXT0_EXleT_Li64EEE(%struct.ap_uint.0* %16, %struct.ap_int_base.9* %17), !dbg !5215 ; [debug line = 124:17]
  %95 = call %struct.ap_uint.0* @_ZN7ap_uintILi4EEaSERKS0_(%struct.ap_uint.0* %R_temp, %struct.ap_uint.0* %16), !dbg !5215 ; [#uses=0 type=%struct.ap_uint.0*] [debug line = 124:17]
  %96 = call %struct.ap_uint.0* @_ZN7ap_uintILi4EEaSERKS0_(%struct.ap_uint.0* %G_temp, %struct.ap_uint.0* %R_temp), !dbg !5217 ; [#uses=0 type=%struct.ap_uint.0*] [debug line = 125:7]
  %97 = call %struct.ap_uint.0* @_ZN7ap_uintILi4EEaSERKS0_(%struct.ap_uint.0* %B_temp, %struct.ap_uint.0* %R_temp), !dbg !5218 ; [#uses=0 type=%struct.ap_uint.0*] [debug line = 126:7]
  br label %98

; <label>:98                                      ; preds = %93, %89
  br label %103, !dbg !5219                       ; [debug line = 129:5]

; <label>:99                                      ; preds = %83
  call void @_ZN7ap_uintILi4EEC1Ei(%struct.ap_uint.0* %18, i32 15), !dbg !5220 ; [debug line = 133:6]
  %100 = call %struct.ap_uint.0* @_ZN7ap_uintILi4EEaSERKS0_(%struct.ap_uint.0* %R_temp, %struct.ap_uint.0* %18), !dbg !5220 ; [#uses=0 type=%struct.ap_uint.0*] [debug line = 133:6]
  call void @_ZN7ap_uintILi4EEC1Ei(%struct.ap_uint.0* %19, i32 0), !dbg !5222 ; [debug line = 134:6]
  %101 = call %struct.ap_uint.0* @_ZN7ap_uintILi4EEaSERKS0_(%struct.ap_uint.0* %G_temp, %struct.ap_uint.0* %19), !dbg !5222 ; [#uses=0 type=%struct.ap_uint.0*] [debug line = 134:6]
  call void @_ZN7ap_uintILi4EEC1Ei(%struct.ap_uint.0* %20, i32 0), !dbg !5223 ; [debug line = 135:6]
  %102 = call %struct.ap_uint.0* @_ZN7ap_uintILi4EEaSERKS0_(%struct.ap_uint.0* %B_temp, %struct.ap_uint.0* %20), !dbg !5223 ; [#uses=0 type=%struct.ap_uint.0*] [debug line = 135:6]
  br label %103

; <label>:103                                     ; preds = %99, %98
  br label %128, !dbg !5224                       ; [debug line = 137:4]

; <label>:104                                     ; preds = %79
  %105 = bitcast %struct.ap_uint.6* %21 to i8*, !dbg !5225 ; [#uses=0 type=i8*] [debug line = 141:5]
  %106 = bitcast %struct.ap_uint.6* %x_coordinate to i8*, !dbg !5225 ; [#uses=0 type=i8*] [debug line = 141:5]
  %107 = getelementptr inbounds %struct.ap_uint.6* %21, i32 0, i32 0, !dbg !5225 ; [#uses=1 type=%struct.ap_int_base.7*] [debug line = 141:5]
  %108 = getelementptr inbounds %struct.ap_uint.6* %x_coordinate, i32 0, i32 0, !dbg !5225 ; [#uses=1 type=%struct.ap_int_base.7*] [debug line = 141:5]
  %109 = getelementptr inbounds %struct.ap_int_base.7* %107, i32 0, i32 0, !dbg !5225 ; [#uses=1 type=%struct.ssdm_int.8*] [debug line = 141:5]
  %110 = getelementptr inbounds %struct.ap_int_base.7* %108, i32 0, i32 0, !dbg !5225 ; [#uses=1 type=%struct.ssdm_int.8*] [debug line = 141:5]
  %111 = getelementptr inbounds %struct.ssdm_int.8* %109, i32 0, i32 0, !dbg !5225 ; [#uses=1 type=i20*] [debug line = 141:5]
  %112 = getelementptr inbounds %struct.ssdm_int.8* %110, i32 0, i32 0, !dbg !5225 ; [#uses=1 type=i20*] [debug line = 141:5]
  %113 = load i20* %112, !dbg !5225               ; [#uses=1 type=i20] [debug line = 141:5]
  store i20 %113, i20* %111, !dbg !5225           ; [debug line = 141:5]
  %114 = bitcast %struct.ap_uint.6* %22 to i8*, !dbg !5225 ; [#uses=0 type=i8*] [debug line = 141:5]
  %115 = bitcast %struct.ap_uint.6* %y_coordinate to i8*, !dbg !5225 ; [#uses=0 type=i8*] [debug line = 141:5]
  %116 = getelementptr inbounds %struct.ap_uint.6* %22, i32 0, i32 0, !dbg !5225 ; [#uses=1 type=%struct.ap_int_base.7*] [debug line = 141:5]
  %117 = getelementptr inbounds %struct.ap_uint.6* %y_coordinate, i32 0, i32 0, !dbg !5225 ; [#uses=1 type=%struct.ap_int_base.7*] [debug line = 141:5]
  %118 = getelementptr inbounds %struct.ap_int_base.7* %116, i32 0, i32 0, !dbg !5225 ; [#uses=1 type=%struct.ssdm_int.8*] [debug line = 141:5]
  %119 = getelementptr inbounds %struct.ap_int_base.7* %117, i32 0, i32 0, !dbg !5225 ; [#uses=1 type=%struct.ssdm_int.8*] [debug line = 141:5]
  %120 = getelementptr inbounds %struct.ssdm_int.8* %118, i32 0, i32 0, !dbg !5225 ; [#uses=1 type=i20*] [debug line = 141:5]
  %121 = getelementptr inbounds %struct.ssdm_int.8* %119, i32 0, i32 0, !dbg !5225 ; [#uses=1 type=i20*] [debug line = 141:5]
  %122 = load i20* %121, !dbg !5225               ; [#uses=1 type=i20] [debug line = 141:5]
  store i20 %122, i20* %120, !dbg !5225           ; [debug line = 141:5]
  %123 = bitcast %struct.ap_uint.0* %23 to i8*, !dbg !5225 ; [#uses=0 type=i8*] [debug line = 141:5]
  %124 = getelementptr inbounds %struct.ap_uint.0* %23, i32 0, i32 0, !dbg !5225 ; [#uses=1 type=%struct.ap_int_base.1*] [debug line = 141:5]
  %125 = getelementptr inbounds %struct.ap_int_base.1* %124, i32 0, i32 0, !dbg !5225 ; [#uses=1 type=%struct.ssdm_int.2*] [debug line = 141:5]
  %126 = getelementptr inbounds %struct.ssdm_int.2* %125, i32 0, i32 0, !dbg !5225 ; [#uses=1 type=i4*] [debug line = 141:5]
  %127 = load i4* getelementptr inbounds (%struct.ap_uint.0* @_ZZ25axi_stream_to_vga_red_255bRN3hls6streamI7ap_uintILi8EEEEPVS1_ILi4EES7_S7_PVS1_ILi1EESA_E14color_blinking, i32 0, i32 0, i32 0, i32 0), !dbg !5225 ; [#uses=1 type=i4] [debug line = 141:5]
  store i4 %127, i4* %126, !dbg !5225             ; [debug line = 141:5]
  call void @_Z22get_checkerboard_color7ap_uintILi20EES0_jjPS_ILi4EES2_S2_S1_(%struct.ap_uint.6* byval align 8 %21, %struct.ap_uint.6* byval align 8 %22, i32 5, i32 5, %struct.ap_uint.0* %R_temp, %struct.ap_uint.0* %G_temp, %struct.ap_uint.0* %B_temp, %struct.ap_uint.0* byval align 8 %23), !dbg !5225 ; [debug line = 141:5]
  br label %128

; <label>:128                                     ; preds = %104, %103
  %129 = load %struct.ap_uint.0** %3, align 8, !dbg !5227 ; [#uses=1 type=%struct.ap_uint.0*] [debug line = 146:4]
  call void @_ZNV7ap_uintILi4EEaSERKS0_(%struct.ap_uint.0* %129, %struct.ap_uint.0* %R_temp), !dbg !5227 ; [debug line = 146:4]
  %130 = load %struct.ap_uint.0** %4, align 8, !dbg !5228 ; [#uses=1 type=%struct.ap_uint.0*] [debug line = 147:4]
  call void @_ZNV7ap_uintILi4EEaSERKS0_(%struct.ap_uint.0* %130, %struct.ap_uint.0* %G_temp), !dbg !5228 ; [debug line = 147:4]
  %131 = load %struct.ap_uint.0** %5, align 8, !dbg !5229 ; [#uses=1 type=%struct.ap_uint.0*] [debug line = 148:4]
  call void @_ZNV7ap_uintILi4EEaSERKS0_(%struct.ap_uint.0* %131, %struct.ap_uint.0* %B_temp), !dbg !5229 ; [debug line = 148:4]
  %132 = load %struct.ap_uint.3** %6, align 8, !dbg !5230 ; [#uses=1 type=%struct.ap_uint.3*] [debug line = 149:4]
  call void @_ZNV7ap_uintILi1EEaSERKS0_(%struct.ap_uint.3* %132, %struct.ap_uint.3* %V_SYNC_temp), !dbg !5230 ; [debug line = 149:4]
  %133 = load %struct.ap_uint.3** %7, align 8, !dbg !5231 ; [#uses=1 type=%struct.ap_uint.3*] [debug line = 150:4]
  call void @_ZNV7ap_uintILi1EEaSERKS0_(%struct.ap_uint.3* %133, %struct.ap_uint.3* %H_SYNC_temp), !dbg !5231 ; [debug line = 150:4]
  br label %140, !dbg !5232                       ; [debug line = 151:3]

; <label>:134                                     ; preds = %76, %73, %70, %67
  %135 = load %struct.ap_uint.0** %3, align 8, !dbg !5233 ; [#uses=1 type=%struct.ap_uint.0*] [debug line = 154:4]
  call void @_ZN7ap_uintILi4EEC1Ei(%struct.ap_uint.0* %24, i32 0), !dbg !5233 ; [debug line = 154:4]
  call void @_ZNV7ap_uintILi4EEaSERKS0_(%struct.ap_uint.0* %135, %struct.ap_uint.0* %24), !dbg !5233 ; [debug line = 154:4]
  %136 = load %struct.ap_uint.0** %4, align 8, !dbg !5235 ; [#uses=1 type=%struct.ap_uint.0*] [debug line = 155:4]
  call void @_ZN7ap_uintILi4EEC1Ei(%struct.ap_uint.0* %25, i32 0), !dbg !5235 ; [debug line = 155:4]
  call void @_ZNV7ap_uintILi4EEaSERKS0_(%struct.ap_uint.0* %136, %struct.ap_uint.0* %25), !dbg !5235 ; [debug line = 155:4]
  %137 = load %struct.ap_uint.0** %5, align 8, !dbg !5236 ; [#uses=1 type=%struct.ap_uint.0*] [debug line = 156:4]
  call void @_ZN7ap_uintILi4EEC1Ei(%struct.ap_uint.0* %26, i32 0), !dbg !5236 ; [debug line = 156:4]
  call void @_ZNV7ap_uintILi4EEaSERKS0_(%struct.ap_uint.0* %137, %struct.ap_uint.0* %26), !dbg !5236 ; [debug line = 156:4]
  %138 = load %struct.ap_uint.3** %6, align 8, !dbg !5237 ; [#uses=1 type=%struct.ap_uint.3*] [debug line = 157:4]
  call void @_ZNV7ap_uintILi1EEaSERKS0_(%struct.ap_uint.3* %138, %struct.ap_uint.3* %V_SYNC_temp), !dbg !5237 ; [debug line = 157:4]
  %139 = load %struct.ap_uint.3** %7, align 8, !dbg !5238 ; [#uses=1 type=%struct.ap_uint.3*] [debug line = 158:4]
  call void @_ZNV7ap_uintILi1EEaSERKS0_(%struct.ap_uint.3* %139, %struct.ap_uint.3* %H_SYNC_temp), !dbg !5238 ; [debug line = 158:4]
  br label %140

; <label>:140                                     ; preds = %134, %128
  call void (...)* @_ssdm_RegionEnd(i8* getelementptr inbounds ([12 x i8]* @.str4, i32 0, i32 0)) nounwind, !dbg !5239 ; [debug line = 161:2]
  br label %141, !dbg !5239                       ; [debug line = 161:2]

; <label>:141                                     ; preds = %140
  %142 = load i32* %x, align 4, !dbg !5240        ; [#uses=1 type=i32] [debug line = 88:23]
  %143 = add i32 %142, 1, !dbg !5240              ; [#uses=1 type=i32] [debug line = 88:23]
  store i32 %143, i32* %x, align 4, !dbg !5240    ; [debug line = 88:23]
  br label %46, !dbg !5240                        ; [debug line = 88:23]

; <label>:144                                     ; preds = %46
  br label %145, !dbg !5241                       ; [debug line = 161:2]

; <label>:145                                     ; preds = %144
  %146 = load i32* %y, align 4, !dbg !5242        ; [#uses=1 type=i32] [debug line = 87:23]
  %147 = add i32 %146, 1, !dbg !5242              ; [#uses=1 type=i32] [debug line = 87:23]
  store i32 %147, i32* %y, align 4, !dbg !5242    ; [debug line = 87:23]
  br label %42, !dbg !5242                        ; [debug line = 87:23]

; <label>:148                                     ; preds = %42
  ret void, !dbg !5243                            ; [debug line = 163:2]
}

; [#uses=121]
declare void @llvm.dbg.declare(metadata, metadata) nounwind readnone

; [#uses=7]
declare void @_ssdm_op_SpecInterface(...) nounwind

; [#uses=6]
define internal void @_ZN7ap_uintILi1EEC1Ei(%struct.ap_uint.3* %this, i32 %val) unnamed_addr nounwind uwtable inlinehint alwaysinline align 2 {
  %1 = alloca %struct.ap_uint.3*, align 8         ; [#uses=2 type=%struct.ap_uint.3**]
  %2 = alloca i32, align 4                        ; [#uses=2 type=i32*]
  store %struct.ap_uint.3* %this, %struct.ap_uint.3** %1, align 8
  call void @llvm.dbg.declare(metadata !{%struct.ap_uint.3** %1}, metadata !5244), !dbg !5246 ; [debug line = 253:41] [debug variable = this]
  store i32 %val, i32* %2, align 4
  call void @llvm.dbg.declare(metadata !{i32* %2}, metadata !5247), !dbg !5248 ; [debug line = 253:53] [debug variable = val]
  %3 = load %struct.ap_uint.3** %1                ; [#uses=1 type=%struct.ap_uint.3*]
  %4 = load i32* %2, align 4, !dbg !5249          ; [#uses=1 type=i32] [debug line = 253:75]
  call void @_ZN7ap_uintILi1EEC2Ei(%struct.ap_uint.3* %3, i32 %4), !dbg !5249 ; [debug line = 253:75]
  ret void, !dbg !5249                            ; [debug line = 253:75]
}

; [#uses=18]
define internal void @_ZN7ap_uintILi4EEC1Ei(%struct.ap_uint.0* %this, i32 %val) unnamed_addr nounwind uwtable inlinehint alwaysinline align 2 {
  %1 = alloca %struct.ap_uint.0*, align 8         ; [#uses=2 type=%struct.ap_uint.0**]
  %2 = alloca i32, align 4                        ; [#uses=2 type=i32*]
  store %struct.ap_uint.0* %this, %struct.ap_uint.0** %1, align 8
  call void @llvm.dbg.declare(metadata !{%struct.ap_uint.0** %1}, metadata !5250), !dbg !5251 ; [debug line = 253:41] [debug variable = this]
  store i32 %val, i32* %2, align 4
  call void @llvm.dbg.declare(metadata !{i32* %2}, metadata !5252), !dbg !5253 ; [debug line = 253:53] [debug variable = val]
  %3 = load %struct.ap_uint.0** %1                ; [#uses=1 type=%struct.ap_uint.0*]
  %4 = load i32* %2, align 4, !dbg !5254          ; [#uses=1 type=i32] [debug line = 253:75]
  call void @_ZN7ap_uintILi4EEC2Ei(%struct.ap_uint.0* %3, i32 %4), !dbg !5254 ; [debug line = 253:75]
  ret void, !dbg !5254                            ; [debug line = 253:75]
}

; [#uses=1]
declare void @_ssdm_op_SpecReset(...) nounwind

; [#uses=1]
define internal void @_ZN11ap_int_baseILi4ELb0ELb1EEppEi(%struct.ap_int_base.1* noalias sret %agg.result, %struct.ap_int_base.1* %this, i32) nounwind uwtable inlinehint alwaysinline align 2 {
  %2 = alloca %struct.ap_int_base.1*, align 8     ; [#uses=2 type=%struct.ap_int_base.1**]
  %3 = alloca i32, align 4                        ; [#uses=1 type=i32*]
  %4 = alloca %struct.ap_int_base.4, align 1      ; [#uses=2 type=%struct.ap_int_base.4*]
  store %struct.ap_int_base.1* %this, %struct.ap_int_base.1** %2, align 8
  call void @llvm.dbg.declare(metadata !{%struct.ap_int_base.1** %2}, metadata !5255), !dbg !5257 ; [debug line = 1907:59] [debug variable = this]
  store i32 %0, i32* %3, align 4
  %5 = load %struct.ap_int_base.1** %2            ; [#uses=3 type=%struct.ap_int_base.1*]
  call void @llvm.dbg.declare(metadata !{%struct.ap_int_base.1* %agg.result}, metadata !5258), !dbg !5260 ; [debug line = 1908:17] [debug variable = t]
  %6 = bitcast %struct.ap_int_base.1* %agg.result to i8*, !dbg !5261 ; [#uses=0 type=i8*] [debug line = 1908:26]
  %7 = bitcast %struct.ap_int_base.1* %5 to i8*, !dbg !5261 ; [#uses=0 type=i8*] [debug line = 1908:26]
  %8 = getelementptr inbounds %struct.ap_int_base.1* %agg.result, i32 0, i32 0, !dbg !5261 ; [#uses=1 type=%struct.ssdm_int.2*] [debug line = 1908:26]
  %9 = getelementptr inbounds %struct.ap_int_base.1* %5, i32 0, i32 0, !dbg !5261 ; [#uses=1 type=%struct.ssdm_int.2*] [debug line = 1908:26]
  %10 = getelementptr inbounds %struct.ssdm_int.2* %8, i32 0, i32 0, !dbg !5261 ; [#uses=1 type=i4*] [debug line = 1908:26]
  %11 = getelementptr inbounds %struct.ssdm_int.2* %9, i32 0, i32 0, !dbg !5261 ; [#uses=1 type=i4*] [debug line = 1908:26]
  %12 = load i4* %11, !dbg !5261                  ; [#uses=1 type=i4] [debug line = 1908:26]
  store i4 %12, i4* %10, !dbg !5261               ; [debug line = 1908:26]
  call void @_ZN11ap_int_baseILi1ELb0ELb1EEC1Ei(%struct.ap_int_base.4* %4, i32 1), !dbg !5262 ; [debug line = 1909:5]
  %13 = call %struct.ap_int_base.1* @_ZN11ap_int_baseILi4ELb0ELb1EEpLILi1ELb0EEERS0_RKS_IXT_EXT0_EXleT_Li64EEE(%struct.ap_int_base.1* %5, %struct.ap_int_base.4* %4), !dbg !5262 ; [#uses=0 type=%struct.ap_int_base.1*] [debug line = 1909:5]
  ret void, !dbg !5263                            ; [debug line = 1910:5]
}

; [#uses=1]
define internal zeroext i1 @_ZNK3hls6streamI7ap_uintILi8EEE5emptyEv(%"class.hls::stream"* %this) nounwind uwtable inlinehint alwaysinline align 2 {
  %1 = alloca %"class.hls::stream"*, align 8      ; [#uses=2 type=%"class.hls::stream"**]
  %tmp = alloca i1, align 1                       ; [#uses=2 type=i1*]
  store %"class.hls::stream"* %this, %"class.hls::stream"** %1, align 8
  call void @llvm.dbg.declare(metadata !{%"class.hls::stream"** %1}, metadata !5264), !dbg !5266 ; [debug line = 112:48] [debug variable = this]
  %2 = load %"class.hls::stream"** %1             ; [#uses=1 type=%"class.hls::stream"*]
  call void @llvm.dbg.declare(metadata !{i1* %tmp}, metadata !5267), !dbg !5269 ; [debug line = 113:14] [debug variable = tmp]
  %3 = getelementptr inbounds %"class.hls::stream"* %2, i32 0, i32 0, !dbg !5270 ; [#uses=1 type=%struct.ap_uint*] [debug line = 113:20]
  %4 = call zeroext i1 (...)* @_ssdm_StreamCanRead(%struct.ap_uint* %3) nounwind, !dbg !5270 ; [#uses=1 type=i1] [debug line = 113:20]
  %5 = icmp ne i1 %4, false, !dbg !5270           ; [#uses=1 type=i1] [debug line = 113:20]
  store i1 %5, i1* %tmp, align 1, !dbg !5270      ; [debug line = 113:20]
  %6 = load i1* %tmp, align 1, !dbg !5271         ; [#uses=1 type=i1] [debug line = 114:9]
  %7 = xor i1 %6, true, !dbg !5271                ; [#uses=1 type=i1] [debug line = 114:9]
  ret i1 %7, !dbg !5271                           ; [debug line = 114:9]
}

; [#uses=1]
declare void @_ssdm_RegionBegin(...) nounwind

; [#uses=1]
declare void @_ssdm_op_SpecPipeline(...) nounwind

; [#uses=2]
define internal void @_ZN7ap_uintILi20EEC1Ej(%struct.ap_uint.6* %this, i32 %val) unnamed_addr nounwind uwtable inlinehint alwaysinline align 2 {
  %1 = alloca %struct.ap_uint.6*, align 8         ; [#uses=2 type=%struct.ap_uint.6**]
  %2 = alloca i32, align 4                        ; [#uses=2 type=i32*]
  store %struct.ap_uint.6* %this, %struct.ap_uint.6** %1, align 8
  call void @llvm.dbg.declare(metadata !{%struct.ap_uint.6** %1}, metadata !5272), !dbg !5274 ; [debug line = 254:41] [debug variable = this]
  store i32 %val, i32* %2, align 4
  call void @llvm.dbg.declare(metadata !{i32* %2}, metadata !5275), !dbg !5276 ; [debug line = 254:62] [debug variable = val]
  %3 = load %struct.ap_uint.6** %1                ; [#uses=1 type=%struct.ap_uint.6*]
  %4 = load i32* %2, align 4, !dbg !5277          ; [#uses=1 type=i32] [debug line = 254:84]
  call void @_ZN7ap_uintILi20EEC2Ej(%struct.ap_uint.6* %3, i32 %4), !dbg !5277 ; [debug line = 254:84]
  ret void, !dbg !5277                            ; [debug line = 254:84]
}

; [#uses=4]
define internal %struct.ap_uint.3* @_ZN7ap_uintILi1EEaSERKS0_(%struct.ap_uint.3* %this, %struct.ap_uint.3* %op2) nounwind uwtable inlinehint alwaysinline align 2 {
  %1 = alloca %struct.ap_uint.3*, align 8         ; [#uses=2 type=%struct.ap_uint.3**]
  %2 = alloca %struct.ap_uint.3*, align 8         ; [#uses=2 type=%struct.ap_uint.3**]
  store %struct.ap_uint.3* %this, %struct.ap_uint.3** %1, align 8
  call void @llvm.dbg.declare(metadata !{%struct.ap_uint.3** %1}, metadata !5278), !dbg !5279 ; [debug line = 280:50] [debug variable = this]
  store %struct.ap_uint.3* %op2, %struct.ap_uint.3** %2, align 8
  call void @llvm.dbg.declare(metadata !{%struct.ap_uint.3** %2}, metadata !5280), !dbg !5281 ; [debug line = 280:84] [debug variable = op2]
  %3 = load %struct.ap_uint.3** %1                ; [#uses=2 type=%struct.ap_uint.3*]
  %4 = load %struct.ap_uint.3** %2, align 8, !dbg !5282 ; [#uses=1 type=%struct.ap_uint.3*] [debug line = 281:5]
  %5 = bitcast %struct.ap_uint.3* %4 to %struct.ssdm_int.5*, !dbg !5282 ; [#uses=1 type=%struct.ssdm_int.5*] [debug line = 281:5]
  %6 = getelementptr inbounds %struct.ssdm_int.5* %5, i32 0, i32 0, !dbg !5282 ; [#uses=1 type=i1*] [debug line = 281:5]
  %7 = load i1* %6, align 1, !dbg !5282           ; [#uses=1 type=i1] [debug line = 281:5]
  %8 = bitcast %struct.ap_uint.3* %3 to %struct.ap_int_base.4*, !dbg !5282 ; [#uses=1 type=%struct.ap_int_base.4*] [debug line = 281:5]
  %9 = bitcast %struct.ap_int_base.4* %8 to %struct.ssdm_int.5*, !dbg !5282 ; [#uses=1 type=%struct.ssdm_int.5*] [debug line = 281:5]
  %10 = getelementptr inbounds %struct.ssdm_int.5* %9, i32 0, i32 0, !dbg !5282 ; [#uses=1 type=i1*] [debug line = 281:5]
  store i1 %7, i1* %10, align 1, !dbg !5282       ; [debug line = 281:5]
  ret %struct.ap_uint.3* %3, !dbg !5284           ; [debug line = 282:5]
}

; [#uses=3]
define internal void @_ZN7ap_uintILi4EEC1Ev(%struct.ap_uint.0* %this) unnamed_addr nounwind uwtable inlinehint alwaysinline align 2 {
  %1 = alloca %struct.ap_uint.0*, align 8         ; [#uses=2 type=%struct.ap_uint.0**]
  store %struct.ap_uint.0* %this, %struct.ap_uint.0** %1, align 8
  call void @llvm.dbg.declare(metadata !{%struct.ap_uint.0** %1}, metadata !5285), !dbg !5286 ; [debug line = 186:41] [debug variable = this]
  %2 = load %struct.ap_uint.0** %1                ; [#uses=1 type=%struct.ap_uint.0*]
  call void @_ZN7ap_uintILi4EEC2Ev(%struct.ap_uint.0* %2), !dbg !5287 ; [debug line = 186:60]
  ret void, !dbg !5287                            ; [debug line = 186:60]
}

; [#uses=1]
define internal void @_ZN3hls6streamI7ap_uintILi8EEE4readEv(%struct.ap_uint* noalias sret %agg.result, %"class.hls::stream"* %this) nounwind uwtable inlinehint alwaysinline align 2 {
  %1 = alloca %"class.hls::stream"*, align 8      ; [#uses=2 type=%"class.hls::stream"**]
  store %"class.hls::stream"* %this, %"class.hls::stream"** %1, align 8
  call void @llvm.dbg.declare(metadata !{%"class.hls::stream"** %1}, metadata !5288), !dbg !5290 ; [debug line = 129:56] [debug variable = this]
  %2 = load %"class.hls::stream"** %1             ; [#uses=1 type=%"class.hls::stream"*]
  call void @llvm.dbg.declare(metadata !{%struct.ap_uint* %agg.result}, metadata !5291), !dbg !5293 ; [debug line = 130:22] [debug variable = tmp]
  call void @_ZN7ap_uintILi8EEC1Ev(%struct.ap_uint* %agg.result), !dbg !5294 ; [debug line = 130:25]
  %3 = getelementptr inbounds %"class.hls::stream"* %2, i32 0, i32 0, !dbg !5295 ; [#uses=1 type=%struct.ap_uint*] [debug line = 131:9]
  call void (...)* @_ssdm_StreamRead(%struct.ap_uint* %3, %struct.ap_uint* %agg.result) nounwind, !dbg !5295 ; [debug line = 131:9]
  ret void, !dbg !5296                            ; [debug line = 132:9]
}

; [#uses=1]
define internal zeroext i1 @_ZeqILi8ELb0EEbRK11ap_int_baseIXT_EXT0_EXleT_Li64EEEi(%struct.ap_int_base* %op, i32 %op2) nounwind uwtable inlinehint alwaysinline {
  %1 = alloca %struct.ap_int_base*, align 8       ; [#uses=2 type=%struct.ap_int_base**]
  %2 = alloca i32, align 4                        ; [#uses=2 type=i32*]
  %3 = alloca %struct.ap_int_base.20, align 4     ; [#uses=2 type=%struct.ap_int_base.20*]
  store %struct.ap_int_base* %op, %struct.ap_int_base** %1, align 8
  call void @llvm.dbg.declare(metadata !{%struct.ap_int_base** %1}, metadata !5297), !dbg !5298 ; [debug line = 3559:0] [debug variable = op]
  store i32 %op2, i32* %2, align 4
  call void @llvm.dbg.declare(metadata !{i32* %2}, metadata !5299), !dbg !5298 ; [debug line = 3559:0] [debug variable = op2]
  %4 = load %struct.ap_int_base** %1, align 8, !dbg !5300 ; [#uses=1 type=%struct.ap_int_base*] [debug line = 3559:0]
  %5 = load i32* %2, align 4, !dbg !5300          ; [#uses=1 type=i32] [debug line = 3559:0]
  call void @_ZN11ap_int_baseILi32ELb1ELb1EEC1Ei(%struct.ap_int_base.20* %3, i32 %5), !dbg !5300 ; [debug line = 3559:0]
  %6 = call zeroext i1 @_ZNK11ap_int_baseILi8ELb0ELb1EEeqILi32ELb1EEEbRKS_IXT_EXT0_EXleT_Li64EEE(%struct.ap_int_base* %4, %struct.ap_int_base.20* %3), !dbg !5300 ; [#uses=1 type=i1] [debug line = 3559:0]
  ret i1 %6, !dbg !5300                           ; [debug line = 3559:0]
}

; [#uses=21]
define internal %struct.ap_uint.0* @_ZN7ap_uintILi4EEaSERKS0_(%struct.ap_uint.0* %this, %struct.ap_uint.0* %op2) nounwind uwtable inlinehint alwaysinline align 2 {
  %1 = alloca %struct.ap_uint.0*, align 8         ; [#uses=2 type=%struct.ap_uint.0**]
  %2 = alloca %struct.ap_uint.0*, align 8         ; [#uses=2 type=%struct.ap_uint.0**]
  store %struct.ap_uint.0* %this, %struct.ap_uint.0** %1, align 8
  call void @llvm.dbg.declare(metadata !{%struct.ap_uint.0** %1}, metadata !5302), !dbg !5303 ; [debug line = 280:50] [debug variable = this]
  store %struct.ap_uint.0* %op2, %struct.ap_uint.0** %2, align 8
  call void @llvm.dbg.declare(metadata !{%struct.ap_uint.0** %2}, metadata !5304), !dbg !5305 ; [debug line = 280:84] [debug variable = op2]
  %3 = load %struct.ap_uint.0** %1                ; [#uses=2 type=%struct.ap_uint.0*]
  %4 = load %struct.ap_uint.0** %2, align 8, !dbg !5306 ; [#uses=1 type=%struct.ap_uint.0*] [debug line = 281:5]
  %5 = bitcast %struct.ap_uint.0* %4 to %struct.ssdm_int.2*, !dbg !5306 ; [#uses=1 type=%struct.ssdm_int.2*] [debug line = 281:5]
  %6 = getelementptr inbounds %struct.ssdm_int.2* %5, i32 0, i32 0, !dbg !5306 ; [#uses=1 type=i4*] [debug line = 281:5]
  %7 = load i4* %6, align 1, !dbg !5306           ; [#uses=1 type=i4] [debug line = 281:5]
  %8 = bitcast %struct.ap_uint.0* %3 to %struct.ap_int_base.1*, !dbg !5306 ; [#uses=1 type=%struct.ap_int_base.1*] [debug line = 281:5]
  %9 = bitcast %struct.ap_int_base.1* %8 to %struct.ssdm_int.2*, !dbg !5306 ; [#uses=1 type=%struct.ssdm_int.2*] [debug line = 281:5]
  %10 = getelementptr inbounds %struct.ssdm_int.2* %9, i32 0, i32 0, !dbg !5306 ; [#uses=1 type=i4*] [debug line = 281:5]
  store i4 %7, i4* %10, align 1, !dbg !5306       ; [debug line = 281:5]
  ret %struct.ap_uint.0* %3, !dbg !5308           ; [debug line = 282:5]
}

; [#uses=1]
define internal void @_ZN7ap_uintILi4EEC1ILi9ELb1EEERK11ap_int_baseIXT_EXT0_EXleT_Li64EEE(%struct.ap_uint.0* %this, %struct.ap_int_base.9* %op) unnamed_addr nounwind uwtable inlinehint alwaysinline align 2 {
  %1 = alloca %struct.ap_uint.0*, align 8         ; [#uses=2 type=%struct.ap_uint.0**]
  %2 = alloca %struct.ap_int_base.9*, align 8     ; [#uses=2 type=%struct.ap_int_base.9**]
  store %struct.ap_uint.0* %this, %struct.ap_uint.0** %1, align 8
  call void @llvm.dbg.declare(metadata !{%struct.ap_uint.0** %1}, metadata !5309), !dbg !5310 ; [debug line = 229:41] [debug variable = this]
  store %struct.ap_int_base.9* %op, %struct.ap_int_base.9** %2, align 8
  call void @llvm.dbg.declare(metadata !{%struct.ap_int_base.9** %2}, metadata !5311), !dbg !5312 ; [debug line = 229:84] [debug variable = op]
  %3 = load %struct.ap_uint.0** %1                ; [#uses=1 type=%struct.ap_uint.0*]
  %4 = load %struct.ap_int_base.9** %2, !dbg !5313 ; [#uses=1 type=%struct.ap_int_base.9*] [debug line = 229:104]
  call void @_ZN7ap_uintILi4EEC2ILi9ELb1EEERK11ap_int_baseIXT_EXT0_EXleT_Li64EEE(%struct.ap_uint.0* %3, %struct.ap_int_base.9* %4), !dbg !5313 ; [debug line = 229:104]
  ret void, !dbg !5313                            ; [debug line = 229:104]
}

; [#uses=1]
define internal void @_ZdvILi8ELb0EEN11ap_int_baseIXT_EXT0_EXleT_Li64EEE5RTypeIXLi32EEXLb1EEE3divERKS1_i(%struct.ap_int_base.9* noalias sret %agg.result, %struct.ap_int_base* %op, i32 %i_op) nounwind uwtable inlinehint alwaysinline {
  %1 = alloca %struct.ap_int_base*, align 8       ; [#uses=2 type=%struct.ap_int_base**]
  %2 = alloca i32, align 4                        ; [#uses=2 type=i32*]
  %3 = alloca %struct.ap_int_base.20, align 4     ; [#uses=2 type=%struct.ap_int_base.20*]
  store %struct.ap_int_base* %op, %struct.ap_int_base** %1, align 8
  call void @llvm.dbg.declare(metadata !{%struct.ap_int_base** %1}, metadata !5314), !dbg !5315 ; [debug line = 3523:0] [debug variable = op]
  store i32 %i_op, i32* %2, align 4
  call void @llvm.dbg.declare(metadata !{i32* %2}, metadata !5316), !dbg !5315 ; [debug line = 3523:0] [debug variable = i_op]
  %4 = load %struct.ap_int_base** %1, align 8, !dbg !5317 ; [#uses=1 type=%struct.ap_int_base*] [debug line = 3523:0]
  %5 = load i32* %2, align 4, !dbg !5317          ; [#uses=1 type=i32] [debug line = 3523:0]
  call void @_ZN11ap_int_baseILi32ELb1ELb1EEC1Ei(%struct.ap_int_base.20* %3, i32 %5), !dbg !5317 ; [debug line = 3523:0]
  call void @_ZdvILi8ELb0ELi32ELb1EEN11ap_int_baseIXT_EXT0_EXleT_Li64EEE5RTypeIXT1_EXT2_EE3divERKS1_RKS0_IXT1_EXT2_EXleT1_Li64EEE(%struct.ap_int_base.9* sret %agg.result, %struct.ap_int_base* %4, %struct.ap_int_base.20* %3), !dbg !5317 ; [debug line = 3523:0]
  ret void, !dbg !5317                            ; [debug line = 3523:0]
}

; [#uses=1]
define internal void @_Z22get_checkerboard_color7ap_uintILi20EES0_jjPS_ILi4EES2_S2_S1_(%struct.ap_uint.6* byval align 8 %x_coord, %struct.ap_uint.6* byval align 8 %y_coord, i32 %size_x, i32 %size_y, %struct.ap_uint.0* %R_temp, %struct.ap_uint.0* %G_temp, %struct.ap_uint.0* %B_temp, %struct.ap_uint.0* byval align 8 %color_blinking) nounwind uwtable inlinehint {
  %1 = alloca i32, align 4                        ; [#uses=1 type=i32*]
  %2 = alloca i32, align 4                        ; [#uses=1 type=i32*]
  %3 = alloca %struct.ap_uint.0*, align 8         ; [#uses=5 type=%struct.ap_uint.0**]
  %4 = alloca %struct.ap_uint.0*, align 8         ; [#uses=5 type=%struct.ap_uint.0**]
  %5 = alloca %struct.ap_uint.0*, align 8         ; [#uses=5 type=%struct.ap_uint.0**]
  %6 = alloca %struct.ap_uint.0, align 1          ; [#uses=2 type=%struct.ap_uint.0*]
  %7 = alloca %struct.ap_uint.0, align 1          ; [#uses=2 type=%struct.ap_uint.0*]
  %8 = alloca %struct.ap_uint.0, align 1          ; [#uses=2 type=%struct.ap_uint.0*]
  %9 = alloca %struct.ap_uint.0, align 1          ; [#uses=2 type=%struct.ap_uint.0*]
  %10 = alloca %struct.ap_uint.0, align 1         ; [#uses=2 type=%struct.ap_uint.0*]
  %11 = alloca %struct.ap_int_base.22, align 8    ; [#uses=2 type=%struct.ap_int_base.22*]
  %12 = alloca %struct.ap_uint.0, align 1         ; [#uses=2 type=%struct.ap_uint.0*]
  %13 = alloca %struct.ap_uint.0, align 1         ; [#uses=2 type=%struct.ap_uint.0*]
  %14 = alloca %struct.ap_uint.0, align 1         ; [#uses=2 type=%struct.ap_uint.0*]
  %15 = alloca %struct.ap_int_base.22, align 8    ; [#uses=2 type=%struct.ap_int_base.22*]
  %16 = alloca %struct.ap_uint.0, align 1         ; [#uses=2 type=%struct.ap_uint.0*]
  %17 = alloca %struct.ap_uint.0, align 1         ; [#uses=2 type=%struct.ap_uint.0*]
  call void @llvm.dbg.declare(metadata !{%struct.ap_uint.6* %x_coord}, metadata !5319), !dbg !5320 ; [debug line = 4:48] [debug variable = x_coord]
  call void @llvm.dbg.declare(metadata !{%struct.ap_uint.6* %y_coord}, metadata !5321), !dbg !5322 ; [debug line = 4:69] [debug variable = y_coord]
  store i32 %size_x, i32* %1, align 4
  call void @llvm.dbg.declare(metadata !{i32* %1}, metadata !5323), !dbg !5324 ; [debug line = 4:91] [debug variable = size_x]
  store i32 %size_y, i32* %2, align 4
  call void @llvm.dbg.declare(metadata !{i32* %2}, metadata !5325), !dbg !5326 ; [debug line = 4:112] [debug variable = size_y]
  store %struct.ap_uint.0* %R_temp, %struct.ap_uint.0** %3, align 8
  call void @llvm.dbg.declare(metadata !{%struct.ap_uint.0** %3}, metadata !5327), !dbg !5328 ; [debug line = 4:132] [debug variable = R_temp]
  store %struct.ap_uint.0* %G_temp, %struct.ap_uint.0** %4, align 8
  call void @llvm.dbg.declare(metadata !{%struct.ap_uint.0** %4}, metadata !5329), !dbg !5330 ; [debug line = 4:152] [debug variable = G_temp]
  store %struct.ap_uint.0* %B_temp, %struct.ap_uint.0** %5, align 8
  call void @llvm.dbg.declare(metadata !{%struct.ap_uint.0** %5}, metadata !5331), !dbg !5332 ; [debug line = 4:172] [debug variable = B_temp]
  call void @llvm.dbg.declare(metadata !{%struct.ap_uint.0* %color_blinking}, metadata !5333), !dbg !5334 ; [debug line = 4:191] [debug variable = color_blinking]
  %18 = bitcast %struct.ap_uint.6* %x_coord to %struct.ap_int_base.7*, !dbg !5335 ; [#uses=1 type=%struct.ap_int_base.7*] [debug line = 6:9]
  %19 = call zeroext i1 @_ZNK11ap_int_baseILi20ELb0ELb1EE7get_bitEi(%struct.ap_int_base.7* %18, i32 5), !dbg !5335 ; [#uses=1 type=i1] [debug line = 6:9]
  %20 = zext i1 %19 to i32, !dbg !5335            ; [#uses=1 type=i32] [debug line = 6:9]
  %21 = mul nsw i32 %20, 2, !dbg !5335            ; [#uses=1 type=i32] [debug line = 6:9]
  %22 = bitcast %struct.ap_uint.6* %y_coord to %struct.ap_int_base.7*, !dbg !5337 ; [#uses=1 type=%struct.ap_int_base.7*] [debug line = 6:32]
  %23 = call zeroext i1 @_ZNK11ap_int_baseILi20ELb0ELb1EE7get_bitEi(%struct.ap_int_base.7* %22, i32 5), !dbg !5337 ; [#uses=1 type=i1] [debug line = 6:32]
  %24 = zext i1 %23 to i32, !dbg !5337            ; [#uses=1 type=i32] [debug line = 6:32]
  %25 = add nsw i32 %21, %24, !dbg !5337          ; [#uses=1 type=i32] [debug line = 6:32]
  switch i32 %25, label %56 [
    i32 0, label %26
    i32 1, label %33
    i32 2, label %41
    i32 3, label %49
  ], !dbg !5337                                   ; [debug line = 6:32]

; <label>:26                                      ; preds = %0
  %27 = load %struct.ap_uint.0** %3, align 8, !dbg !5338 ; [#uses=1 type=%struct.ap_uint.0*] [debug line = 9:10]
  %28 = call %struct.ap_uint.0* @_ZN7ap_uintILi4EEaSERKS0_(%struct.ap_uint.0* %27, %struct.ap_uint.0* %color_blinking), !dbg !5338 ; [#uses=0 type=%struct.ap_uint.0*] [debug line = 9:10]
  %29 = load %struct.ap_uint.0** %4, align 8, !dbg !5340 ; [#uses=1 type=%struct.ap_uint.0*] [debug line = 10:10]
  call void @_ZN7ap_uintILi4EEC1Ei(%struct.ap_uint.0* %6, i32 0), !dbg !5340 ; [debug line = 10:10]
  %30 = call %struct.ap_uint.0* @_ZN7ap_uintILi4EEaSERKS0_(%struct.ap_uint.0* %29, %struct.ap_uint.0* %6), !dbg !5340 ; [#uses=0 type=%struct.ap_uint.0*] [debug line = 10:10]
  %31 = load %struct.ap_uint.0** %5, align 8, !dbg !5341 ; [#uses=1 type=%struct.ap_uint.0*] [debug line = 11:10]
  call void @_ZN7ap_uintILi4EEC1Ei(%struct.ap_uint.0* %7, i32 0), !dbg !5341 ; [debug line = 11:10]
  %32 = call %struct.ap_uint.0* @_ZN7ap_uintILi4EEaSERKS0_(%struct.ap_uint.0* %31, %struct.ap_uint.0* %7), !dbg !5341 ; [#uses=0 type=%struct.ap_uint.0*] [debug line = 11:10]
  br label %56, !dbg !5342                        ; [debug line = 12:13]

; <label>:33                                      ; preds = %0
  %34 = load %struct.ap_uint.0** %3, align 8, !dbg !5343 ; [#uses=1 type=%struct.ap_uint.0*] [debug line = 15:13]
  call void @_ZN7ap_uintILi4EEC1Ei(%struct.ap_uint.0* %8, i32 0), !dbg !5343 ; [debug line = 15:13]
  %35 = call %struct.ap_uint.0* @_ZN7ap_uintILi4EEaSERKS0_(%struct.ap_uint.0* %34, %struct.ap_uint.0* %8), !dbg !5343 ; [#uses=0 type=%struct.ap_uint.0*] [debug line = 15:13]
  %36 = load %struct.ap_uint.0** %4, align 8, !dbg !5344 ; [#uses=1 type=%struct.ap_uint.0*] [debug line = 16:13]
  call void @_ZN7ap_uintILi4EEC1Ei(%struct.ap_uint.0* %9, i32 0), !dbg !5344 ; [debug line = 16:13]
  %37 = call %struct.ap_uint.0* @_ZN7ap_uintILi4EEaSERKS0_(%struct.ap_uint.0* %36, %struct.ap_uint.0* %9), !dbg !5344 ; [#uses=0 type=%struct.ap_uint.0*] [debug line = 16:13]
  %38 = load %struct.ap_uint.0** %5, align 8, !dbg !5345 ; [#uses=1 type=%struct.ap_uint.0*] [debug line = 17:13]
  %39 = bitcast %struct.ap_uint.0* %color_blinking to %struct.ap_int_base.1*, !dbg !5346 ; [#uses=1 type=%struct.ap_int_base.1*] [debug line = 17:23]
  call void @_ZmiILi4ELb0EEN11ap_int_baseIXT_EXT0_EXleT_Li64EEE5RTypeIXLi32EEXLb1EEE5minusEiRKS1_(%struct.ap_int_base.22* sret %11, i32 15, %struct.ap_int_base.1* %39), !dbg !5346 ; [debug line = 17:23]
  call void @_ZN7ap_uintILi4EEC1ILi33ELb1EEERK11ap_int_baseIXT_EXT0_EXleT_Li64EEE(%struct.ap_uint.0* %10, %struct.ap_int_base.22* %11), !dbg !5346 ; [debug line = 17:23]
  %40 = call %struct.ap_uint.0* @_ZN7ap_uintILi4EEaSERKS0_(%struct.ap_uint.0* %38, %struct.ap_uint.0* %10), !dbg !5346 ; [#uses=0 type=%struct.ap_uint.0*] [debug line = 17:23]
  br label %56, !dbg !5347                        ; [debug line = 18:16]

; <label>:41                                      ; preds = %0
  %42 = load %struct.ap_uint.0** %3, align 8, !dbg !5348 ; [#uses=1 type=%struct.ap_uint.0*] [debug line = 21:10]
  call void @_ZN7ap_uintILi4EEC1Ei(%struct.ap_uint.0* %12, i32 0), !dbg !5348 ; [debug line = 21:10]
  %43 = call %struct.ap_uint.0* @_ZN7ap_uintILi4EEaSERKS0_(%struct.ap_uint.0* %42, %struct.ap_uint.0* %12), !dbg !5348 ; [#uses=0 type=%struct.ap_uint.0*] [debug line = 21:10]
  %44 = load %struct.ap_uint.0** %4, align 8, !dbg !5349 ; [#uses=1 type=%struct.ap_uint.0*] [debug line = 22:10]
  call void @_ZN7ap_uintILi4EEC1Ei(%struct.ap_uint.0* %13, i32 0), !dbg !5349 ; [debug line = 22:10]
  %45 = call %struct.ap_uint.0* @_ZN7ap_uintILi4EEaSERKS0_(%struct.ap_uint.0* %44, %struct.ap_uint.0* %13), !dbg !5349 ; [#uses=0 type=%struct.ap_uint.0*] [debug line = 22:10]
  %46 = load %struct.ap_uint.0** %5, align 8, !dbg !5350 ; [#uses=1 type=%struct.ap_uint.0*] [debug line = 23:10]
  %47 = bitcast %struct.ap_uint.0* %color_blinking to %struct.ap_int_base.1*, !dbg !5351 ; [#uses=1 type=%struct.ap_int_base.1*] [debug line = 23:20]
  call void @_ZmiILi4ELb0EEN11ap_int_baseIXT_EXT0_EXleT_Li64EEE5RTypeIXLi32EEXLb1EEE5minusEiRKS1_(%struct.ap_int_base.22* sret %15, i32 15, %struct.ap_int_base.1* %47), !dbg !5351 ; [debug line = 23:20]
  call void @_ZN7ap_uintILi4EEC1ILi33ELb1EEERK11ap_int_baseIXT_EXT0_EXleT_Li64EEE(%struct.ap_uint.0* %14, %struct.ap_int_base.22* %15), !dbg !5351 ; [debug line = 23:20]
  %48 = call %struct.ap_uint.0* @_ZN7ap_uintILi4EEaSERKS0_(%struct.ap_uint.0* %46, %struct.ap_uint.0* %14), !dbg !5351 ; [#uses=0 type=%struct.ap_uint.0*] [debug line = 23:20]
  br label %56, !dbg !5352                        ; [debug line = 24:13]

; <label>:49                                      ; preds = %0
  %50 = load %struct.ap_uint.0** %3, align 8, !dbg !5353 ; [#uses=1 type=%struct.ap_uint.0*] [debug line = 27:13]
  %51 = call %struct.ap_uint.0* @_ZN7ap_uintILi4EEaSERKS0_(%struct.ap_uint.0* %50, %struct.ap_uint.0* %color_blinking), !dbg !5353 ; [#uses=0 type=%struct.ap_uint.0*] [debug line = 27:13]
  %52 = load %struct.ap_uint.0** %4, align 8, !dbg !5354 ; [#uses=1 type=%struct.ap_uint.0*] [debug line = 28:13]
  call void @_ZN7ap_uintILi4EEC1Ei(%struct.ap_uint.0* %16, i32 0), !dbg !5354 ; [debug line = 28:13]
  %53 = call %struct.ap_uint.0* @_ZN7ap_uintILi4EEaSERKS0_(%struct.ap_uint.0* %52, %struct.ap_uint.0* %16), !dbg !5354 ; [#uses=0 type=%struct.ap_uint.0*] [debug line = 28:13]
  %54 = load %struct.ap_uint.0** %5, align 8, !dbg !5355 ; [#uses=1 type=%struct.ap_uint.0*] [debug line = 29:13]
  call void @_ZN7ap_uintILi4EEC1Ei(%struct.ap_uint.0* %17, i32 0), !dbg !5355 ; [debug line = 29:13]
  %55 = call %struct.ap_uint.0* @_ZN7ap_uintILi4EEaSERKS0_(%struct.ap_uint.0* %54, %struct.ap_uint.0* %17), !dbg !5355 ; [#uses=0 type=%struct.ap_uint.0*] [debug line = 29:13]
  br label %56, !dbg !5356                        ; [debug line = 30:16]

; <label>:56                                      ; preds = %49, %41, %33, %26, %0
  ret void, !dbg !5357                            ; [debug line = 37:2]
}

; [#uses=6]
define internal void @_ZNV7ap_uintILi4EEaSERKS0_(%struct.ap_uint.0* %this, %struct.ap_uint.0* %op2) nounwind uwtable inlinehint alwaysinline align 2 {
  %1 = alloca %struct.ap_uint.0*, align 8         ; [#uses=2 type=%struct.ap_uint.0**]
  %2 = alloca %struct.ap_uint.0*, align 8         ; [#uses=2 type=%struct.ap_uint.0**]
  store %struct.ap_uint.0* %this, %struct.ap_uint.0** %1, align 8
  call void @llvm.dbg.declare(metadata !{%struct.ap_uint.0** %1}, metadata !5358), !dbg !5359 ; [debug line = 267:46] [debug variable = this]
  store %struct.ap_uint.0* %op2, %struct.ap_uint.0** %2, align 8
  call void @llvm.dbg.declare(metadata !{%struct.ap_uint.0** %2}, metadata !5360), !dbg !5361 ; [debug line = 267:80] [debug variable = op2]
  %3 = load %struct.ap_uint.0** %1                ; [#uses=1 type=%struct.ap_uint.0*]
  %4 = load %struct.ap_uint.0** %2, align 8, !dbg !5362 ; [#uses=1 type=%struct.ap_uint.0*] [debug line = 268:5]
  %5 = bitcast %struct.ap_uint.0* %4 to %struct.ssdm_int.2*, !dbg !5362 ; [#uses=1 type=%struct.ssdm_int.2*] [debug line = 268:5]
  %6 = getelementptr inbounds %struct.ssdm_int.2* %5, i32 0, i32 0, !dbg !5362 ; [#uses=1 type=i4*] [debug line = 268:5]
  %7 = load i4* %6, align 1, !dbg !5362           ; [#uses=1 type=i4] [debug line = 268:5]
  %8 = bitcast %struct.ap_uint.0* %3 to %struct.ap_int_base.1*, !dbg !5362 ; [#uses=1 type=%struct.ap_int_base.1*] [debug line = 268:5]
  %9 = bitcast %struct.ap_int_base.1* %8 to %struct.ssdm_int.2*, !dbg !5362 ; [#uses=1 type=%struct.ssdm_int.2*] [debug line = 268:5]
  %10 = getelementptr inbounds %struct.ssdm_int.2* %9, i32 0, i32 0, !dbg !5362 ; [#uses=1 type=i4*] [debug line = 268:5]
  store volatile i4 %7, i4* %10, align 1, !dbg !5362 ; [debug line = 268:5]
  ret void, !dbg !5364                            ; [debug line = 269:3]
}

; [#uses=4]
define internal void @_ZNV7ap_uintILi1EEaSERKS0_(%struct.ap_uint.3* %this, %struct.ap_uint.3* %op2) nounwind uwtable inlinehint alwaysinline align 2 {
  %1 = alloca %struct.ap_uint.3*, align 8         ; [#uses=2 type=%struct.ap_uint.3**]
  %2 = alloca %struct.ap_uint.3*, align 8         ; [#uses=2 type=%struct.ap_uint.3**]
  store %struct.ap_uint.3* %this, %struct.ap_uint.3** %1, align 8
  call void @llvm.dbg.declare(metadata !{%struct.ap_uint.3** %1}, metadata !5365), !dbg !5366 ; [debug line = 267:46] [debug variable = this]
  store %struct.ap_uint.3* %op2, %struct.ap_uint.3** %2, align 8
  call void @llvm.dbg.declare(metadata !{%struct.ap_uint.3** %2}, metadata !5367), !dbg !5368 ; [debug line = 267:80] [debug variable = op2]
  %3 = load %struct.ap_uint.3** %1                ; [#uses=1 type=%struct.ap_uint.3*]
  %4 = load %struct.ap_uint.3** %2, align 8, !dbg !5369 ; [#uses=1 type=%struct.ap_uint.3*] [debug line = 268:5]
  %5 = bitcast %struct.ap_uint.3* %4 to %struct.ssdm_int.5*, !dbg !5369 ; [#uses=1 type=%struct.ssdm_int.5*] [debug line = 268:5]
  %6 = getelementptr inbounds %struct.ssdm_int.5* %5, i32 0, i32 0, !dbg !5369 ; [#uses=1 type=i1*] [debug line = 268:5]
  %7 = load i1* %6, align 1, !dbg !5369           ; [#uses=1 type=i1] [debug line = 268:5]
  %8 = bitcast %struct.ap_uint.3* %3 to %struct.ap_int_base.4*, !dbg !5369 ; [#uses=1 type=%struct.ap_int_base.4*] [debug line = 268:5]
  %9 = bitcast %struct.ap_int_base.4* %8 to %struct.ssdm_int.5*, !dbg !5369 ; [#uses=1 type=%struct.ssdm_int.5*] [debug line = 268:5]
  %10 = getelementptr inbounds %struct.ssdm_int.5* %9, i32 0, i32 0, !dbg !5369 ; [#uses=1 type=i1*] [debug line = 268:5]
  store volatile i1 %7, i1* %10, align 1, !dbg !5369 ; [debug line = 268:5]
  ret void, !dbg !5371                            ; [debug line = 269:3]
}

; [#uses=1]
declare void @_ssdm_RegionEnd(...) nounwind

; [#uses=1]
define internal void @_ZN7ap_uintILi4EEC2ILi9ELb1EEERK11ap_int_baseIXT_EXT0_EXleT_Li64EEE(%struct.ap_uint.0* %this, %struct.ap_int_base.9* %op) unnamed_addr nounwind uwtable inlinehint alwaysinline align 2 {
  %1 = alloca %struct.ap_uint.0*, align 8         ; [#uses=2 type=%struct.ap_uint.0**]
  %2 = alloca %struct.ap_int_base.9*, align 8     ; [#uses=2 type=%struct.ap_int_base.9**]
  store %struct.ap_uint.0* %this, %struct.ap_uint.0** %1, align 8
  call void @llvm.dbg.declare(metadata !{%struct.ap_uint.0** %1}, metadata !5372), !dbg !5373 ; [debug line = 229:41] [debug variable = this]
  store %struct.ap_int_base.9* %op, %struct.ap_int_base.9** %2, align 8
  call void @llvm.dbg.declare(metadata !{%struct.ap_int_base.9** %2}, metadata !5374), !dbg !5375 ; [debug line = 229:84] [debug variable = op]
  %3 = load %struct.ap_uint.0** %1                ; [#uses=2 type=%struct.ap_uint.0*]
  %4 = bitcast %struct.ap_uint.0* %3 to %struct.ap_int_base.1*, !dbg !5376 ; [#uses=1 type=%struct.ap_int_base.1*] [debug line = 229:87]
  call void @_ZN11ap_int_baseILi4ELb0ELb1EEC2Ev(%struct.ap_int_base.1* %4), !dbg !5376 ; [debug line = 229:87]
  %5 = load %struct.ap_int_base.9** %2, align 8, !dbg !5377 ; [#uses=1 type=%struct.ap_int_base.9*] [debug line = 229:89]
  %6 = bitcast %struct.ap_int_base.9* %5 to %struct.ssdm_int.10*, !dbg !5377 ; [#uses=1 type=%struct.ssdm_int.10*] [debug line = 229:89]
  %7 = getelementptr inbounds %struct.ssdm_int.10* %6, i32 0, i32 0, !dbg !5377 ; [#uses=1 type=i9*] [debug line = 229:89]
  %8 = load i9* %7, align 2, !dbg !5377           ; [#uses=1 type=i9] [debug line = 229:89]
  %9 = trunc i9 %8 to i4, !dbg !5377              ; [#uses=1 type=i4] [debug line = 229:89]
  %10 = bitcast %struct.ap_uint.0* %3 to %struct.ap_int_base.1*, !dbg !5377 ; [#uses=1 type=%struct.ap_int_base.1*] [debug line = 229:89]
  %11 = bitcast %struct.ap_int_base.1* %10 to %struct.ssdm_int.2*, !dbg !5377 ; [#uses=1 type=%struct.ssdm_int.2*] [debug line = 229:89]
  %12 = getelementptr inbounds %struct.ssdm_int.2* %11, i32 0, i32 0, !dbg !5377 ; [#uses=1 type=i4*] [debug line = 229:89]
  store i4 %9, i4* %12, align 1, !dbg !5377       ; [debug line = 229:89]
  ret void, !dbg !5379                            ; [debug line = 229:104]
}

; [#uses=4]
define internal void @_ZN11ap_int_baseILi4ELb0ELb1EEC2Ev(%struct.ap_int_base.1* %this) unnamed_addr nounwind uwtable inlinehint alwaysinline align 2 {
  %1 = alloca %struct.ap_int_base.1*, align 8     ; [#uses=2 type=%struct.ap_int_base.1**]
  store %struct.ap_int_base.1* %this, %struct.ap_int_base.1** %1, align 8
  call void @llvm.dbg.declare(metadata !{%struct.ap_int_base.1** %1}, metadata !5380), !dbg !5381 ; [debug line = 1494:41] [debug variable = this]
  %2 = load %struct.ap_int_base.1** %1            ; [#uses=1 type=%struct.ap_int_base.1*]
  %3 = bitcast %struct.ap_int_base.1* %2 to %struct.ssdm_int.2*, !dbg !5382 ; [#uses=1 type=%struct.ssdm_int.2*] [debug line = 1494:55]
  call void @_ZN8ssdm_intILi4ELb0EEC2Ev(%struct.ssdm_int.2* %3), !dbg !5382 ; [debug line = 1494:55]
  ret void, !dbg !5383                            ; [debug line = 1500:3]
}

; [#uses=1]
define internal void @_ZN8ssdm_intILi4ELb0EEC2Ev(%struct.ssdm_int.2* %this) unnamed_addr nounwind uwtable inlinehint alwaysinline align 2 {
  %1 = alloca %struct.ssdm_int.2*, align 8        ; [#uses=2 type=%struct.ssdm_int.2**]
  store %struct.ssdm_int.2* %this, %struct.ssdm_int.2** %1, align 8
  call void @llvm.dbg.declare(metadata !{%struct.ssdm_int.2** %1}, metadata !5385), !dbg !5387 ; [debug line = 6:0] [debug variable = this]
  %2 = load %struct.ssdm_int.2** %1               ; [#uses=0 type=%struct.ssdm_int.2*]
  ret void, !dbg !5388                            ; [debug line = 6:0]
}

; [#uses=1]
define internal void @_ZdvILi8ELb0ELi32ELb1EEN11ap_int_baseIXT_EXT0_EXleT_Li64EEE5RTypeIXT1_EXT2_EE3divERKS1_RKS0_IXT1_EXT2_EXleT1_Li64EEE(%struct.ap_int_base.9* noalias sret %agg.result, %struct.ap_int_base* %op, %struct.ap_int_base.20* %op2) nounwind uwtable inlinehint alwaysinline {
  %1 = alloca %struct.ap_int_base*, align 8       ; [#uses=2 type=%struct.ap_int_base**]
  %2 = alloca %struct.ap_int_base.20*, align 8    ; [#uses=2 type=%struct.ap_int_base.20**]
  store %struct.ap_int_base* %op, %struct.ap_int_base** %1, align 8
  call void @llvm.dbg.declare(metadata !{%struct.ap_int_base** %1}, metadata !5390), !dbg !5391 ; [debug line = 3426:212] [debug variable = op]
  store %struct.ap_int_base.20* %op2, %struct.ap_int_base.20** %2, align 8
  call void @llvm.dbg.declare(metadata !{%struct.ap_int_base.20** %2}, metadata !5392), !dbg !5393 ; [debug line = 3426:250] [debug variable = op2]
  call void @llvm.dbg.declare(metadata !{%struct.ap_int_base.9* %agg.result}, metadata !5394), !dbg !5397 ; [debug line = 3426:0] [debug variable = r]
  call void @_ZN11ap_int_baseILi9ELb1ELb1EEC1Ev(%struct.ap_int_base.9* %agg.result), !dbg !5397 ; [debug line = 3426:0]
  %3 = load %struct.ap_int_base** %1, align 8, !dbg !5397 ; [#uses=1 type=%struct.ap_int_base*] [debug line = 3426:0]
  %4 = bitcast %struct.ap_int_base* %3 to %struct.ssdm_int*, !dbg !5397 ; [#uses=1 type=%struct.ssdm_int*] [debug line = 3426:0]
  %5 = getelementptr inbounds %struct.ssdm_int* %4, i32 0, i32 0, !dbg !5397 ; [#uses=1 type=i8*] [debug line = 3426:0]
  %6 = load i8* %5, align 1, !dbg !5397           ; [#uses=1 type=i8] [debug line = 3426:0]
  %7 = zext i8 %6 to i32, !dbg !5397              ; [#uses=1 type=i32] [debug line = 3426:0]
  %8 = load %struct.ap_int_base.20** %2, align 8, !dbg !5397 ; [#uses=1 type=%struct.ap_int_base.20*] [debug line = 3426:0]
  %9 = bitcast %struct.ap_int_base.20* %8 to %struct.ssdm_int.21*, !dbg !5397 ; [#uses=1 type=%struct.ssdm_int.21*] [debug line = 3426:0]
  %10 = getelementptr inbounds %struct.ssdm_int.21* %9, i32 0, i32 0, !dbg !5397 ; [#uses=1 type=i32*] [debug line = 3426:0]
  %11 = load i32* %10, align 4, !dbg !5397        ; [#uses=1 type=i32] [debug line = 3426:0]
  %12 = sdiv i32 %7, %11, !dbg !5397              ; [#uses=1 type=i32] [debug line = 3426:0]
  %13 = trunc i32 %12 to i9, !dbg !5397           ; [#uses=1 type=i9] [debug line = 3426:0]
  %14 = bitcast %struct.ap_int_base.9* %agg.result to %struct.ssdm_int.10*, !dbg !5397 ; [#uses=1 type=%struct.ssdm_int.10*] [debug line = 3426:0]
  %15 = getelementptr inbounds %struct.ssdm_int.10* %14, i32 0, i32 0, !dbg !5397 ; [#uses=1 type=i9*] [debug line = 3426:0]
  store i9 %13, i9* %15, align 2, !dbg !5397      ; [debug line = 3426:0]
  ret void, !dbg !5397                            ; [debug line = 3426:0]
}

; [#uses=3]
define internal void @_ZN11ap_int_baseILi32ELb1ELb1EEC1Ei(%struct.ap_int_base.20* %this, i32 %op) unnamed_addr nounwind uwtable inlinehint alwaysinline align 2 {
  %1 = alloca %struct.ap_int_base.20*, align 8    ; [#uses=2 type=%struct.ap_int_base.20**]
  %2 = alloca i32, align 4                        ; [#uses=2 type=i32*]
  store %struct.ap_int_base.20* %this, %struct.ap_int_base.20** %1, align 8
  call void @llvm.dbg.declare(metadata !{%struct.ap_int_base.20** %1}, metadata !5398), !dbg !5400 ; [debug line = 1521:50] [debug variable = this]
  store i32 %op, i32* %2, align 4
  call void @llvm.dbg.declare(metadata !{i32* %2}, metadata !5401), !dbg !5402 ; [debug line = 1521:66] [debug variable = op]
  %3 = load %struct.ap_int_base.20** %1           ; [#uses=1 type=%struct.ap_int_base.20*]
  %4 = load i32* %2, align 4, !dbg !5403          ; [#uses=1 type=i32] [debug line = 1521:86]
  call void @_ZN11ap_int_baseILi32ELb1ELb1EEC2Ei(%struct.ap_int_base.20* %3, i32 %4), !dbg !5403 ; [debug line = 1521:86]
  ret void, !dbg !5403                            ; [debug line = 1521:86]
}

; [#uses=1]
define internal void @_ZN11ap_int_baseILi32ELb1ELb1EEC2Ei(%struct.ap_int_base.20* %this, i32 %op) unnamed_addr nounwind uwtable inlinehint alwaysinline align 2 {
  %1 = alloca %struct.ap_int_base.20*, align 8    ; [#uses=2 type=%struct.ap_int_base.20**]
  %2 = alloca i32, align 4                        ; [#uses=2 type=i32*]
  store %struct.ap_int_base.20* %this, %struct.ap_int_base.20** %1, align 8
  call void @llvm.dbg.declare(metadata !{%struct.ap_int_base.20** %1}, metadata !5404), !dbg !5405 ; [debug line = 1521:50] [debug variable = this]
  store i32 %op, i32* %2, align 4
  call void @llvm.dbg.declare(metadata !{i32* %2}, metadata !5406), !dbg !5407 ; [debug line = 1521:66] [debug variable = op]
  %3 = load %struct.ap_int_base.20** %1           ; [#uses=2 type=%struct.ap_int_base.20*]
  %4 = bitcast %struct.ap_int_base.20* %3 to %struct.ssdm_int.21*, !dbg !5408 ; [#uses=1 type=%struct.ssdm_int.21*] [debug line = 1521:70]
  call void @_ZN8ssdm_intILi32ELb1EEC2Ev(%struct.ssdm_int.21* %4), !dbg !5408 ; [debug line = 1521:70]
  %5 = load i32* %2, align 4, !dbg !5409          ; [#uses=1 type=i32] [debug line = 1521:72]
  %6 = bitcast %struct.ap_int_base.20* %3 to %struct.ssdm_int.21*, !dbg !5409 ; [#uses=1 type=%struct.ssdm_int.21*] [debug line = 1521:72]
  %7 = getelementptr inbounds %struct.ssdm_int.21* %6, i32 0, i32 0, !dbg !5409 ; [#uses=1 type=i32*] [debug line = 1521:72]
  store i32 %5, i32* %7, align 4, !dbg !5409      ; [debug line = 1521:72]
  ret void, !dbg !5411                            ; [debug line = 1521:86]
}

; [#uses=1]
define internal void @_ZN8ssdm_intILi32ELb1EEC2Ev(%struct.ssdm_int.21* %this) unnamed_addr nounwind uwtable inlinehint alwaysinline align 2 {
  %1 = alloca %struct.ssdm_int.21*, align 8       ; [#uses=2 type=%struct.ssdm_int.21**]
  store %struct.ssdm_int.21* %this, %struct.ssdm_int.21** %1, align 8
  call void @llvm.dbg.declare(metadata !{%struct.ssdm_int.21** %1}, metadata !5412), !dbg !5414 ; [debug line = 34:137] [debug variable = this]
  %2 = load %struct.ssdm_int.21** %1              ; [#uses=0 type=%struct.ssdm_int.21*]
  ret void, !dbg !5415                            ; [debug line = 34:171]
}

; [#uses=1]
define internal void @_ZN11ap_int_baseILi9ELb1ELb1EEC1Ev(%struct.ap_int_base.9* %this) unnamed_addr nounwind uwtable inlinehint alwaysinline align 2 {
  %1 = alloca %struct.ap_int_base.9*, align 8     ; [#uses=2 type=%struct.ap_int_base.9**]
  store %struct.ap_int_base.9* %this, %struct.ap_int_base.9** %1, align 8
  call void @llvm.dbg.declare(metadata !{%struct.ap_int_base.9** %1}, metadata !5417), !dbg !5418 ; [debug line = 1494:41] [debug variable = this]
  %2 = load %struct.ap_int_base.9** %1            ; [#uses=1 type=%struct.ap_int_base.9*]
  call void @_ZN11ap_int_baseILi9ELb1ELb1EEC2Ev(%struct.ap_int_base.9* %2), !dbg !5419 ; [debug line = 1500:3]
  ret void, !dbg !5419                            ; [debug line = 1500:3]
}

; [#uses=1]
define internal void @_ZN11ap_int_baseILi9ELb1ELb1EEC2Ev(%struct.ap_int_base.9* %this) unnamed_addr nounwind uwtable inlinehint alwaysinline align 2 {
  %1 = alloca %struct.ap_int_base.9*, align 8     ; [#uses=2 type=%struct.ap_int_base.9**]
  store %struct.ap_int_base.9* %this, %struct.ap_int_base.9** %1, align 8
  call void @llvm.dbg.declare(metadata !{%struct.ap_int_base.9** %1}, metadata !5420), !dbg !5421 ; [debug line = 1494:41] [debug variable = this]
  %2 = load %struct.ap_int_base.9** %1            ; [#uses=1 type=%struct.ap_int_base.9*]
  %3 = bitcast %struct.ap_int_base.9* %2 to %struct.ssdm_int.10*, !dbg !5422 ; [#uses=1 type=%struct.ssdm_int.10*] [debug line = 1494:55]
  call void @_ZN8ssdm_intILi9ELb1EEC2Ev(%struct.ssdm_int.10* %3), !dbg !5422 ; [debug line = 1494:55]
  ret void, !dbg !5423                            ; [debug line = 1500:3]
}

; [#uses=1]
define internal void @_ZN8ssdm_intILi9ELb1EEC2Ev(%struct.ssdm_int.10* %this) unnamed_addr nounwind uwtable inlinehint alwaysinline align 2 {
  %1 = alloca %struct.ssdm_int.10*, align 8       ; [#uses=2 type=%struct.ssdm_int.10**]
  store %struct.ssdm_int.10* %this, %struct.ssdm_int.10** %1, align 8
  call void @llvm.dbg.declare(metadata !{%struct.ssdm_int.10** %1}, metadata !5425), !dbg !5427 ; [debug line = 11:135] [debug variable = this]
  %2 = load %struct.ssdm_int.10** %1              ; [#uses=0 type=%struct.ssdm_int.10*]
  ret void, !dbg !5428                            ; [debug line = 11:168]
}

; [#uses=1]
define internal zeroext i1 @_ZNK11ap_int_baseILi8ELb0ELb1EEeqILi32ELb1EEEbRKS_IXT_EXT0_EXleT_Li64EEE(%struct.ap_int_base* %this, %struct.ap_int_base.20* %op2) nounwind uwtable inlinehint alwaysinline align 2 {
  %1 = alloca %struct.ap_int_base*, align 8       ; [#uses=2 type=%struct.ap_int_base**]
  %2 = alloca %struct.ap_int_base.20*, align 8    ; [#uses=2 type=%struct.ap_int_base.20**]
  store %struct.ap_int_base* %this, %struct.ap_int_base** %1, align 8
  call void @llvm.dbg.declare(metadata !{%struct.ap_int_base** %1}, metadata !5430), !dbg !5432 ; [debug line = 2033:46] [debug variable = this]
  store %struct.ap_int_base.20* %op2, %struct.ap_int_base.20** %2, align 8
  call void @llvm.dbg.declare(metadata !{%struct.ap_int_base.20** %2}, metadata !5433), !dbg !5434 ; [debug line = 2033:94] [debug variable = op2]
  %3 = load %struct.ap_int_base** %1              ; [#uses=1 type=%struct.ap_int_base*]
  %4 = bitcast %struct.ap_int_base* %3 to %struct.ssdm_int*, !dbg !5435 ; [#uses=1 type=%struct.ssdm_int*] [debug line = 2034:5]
  %5 = getelementptr inbounds %struct.ssdm_int* %4, i32 0, i32 0, !dbg !5435 ; [#uses=1 type=i8*] [debug line = 2034:5]
  %6 = load i8* %5, align 1, !dbg !5435           ; [#uses=1 type=i8] [debug line = 2034:5]
  %7 = zext i8 %6 to i32, !dbg !5435              ; [#uses=1 type=i32] [debug line = 2034:5]
  %8 = load %struct.ap_int_base.20** %2, align 8, !dbg !5435 ; [#uses=1 type=%struct.ap_int_base.20*] [debug line = 2034:5]
  %9 = bitcast %struct.ap_int_base.20* %8 to %struct.ssdm_int.21*, !dbg !5435 ; [#uses=1 type=%struct.ssdm_int.21*] [debug line = 2034:5]
  %10 = getelementptr inbounds %struct.ssdm_int.21* %9, i32 0, i32 0, !dbg !5435 ; [#uses=1 type=i32*] [debug line = 2034:5]
  %11 = load i32* %10, align 4, !dbg !5435        ; [#uses=1 type=i32] [debug line = 2034:5]
  %12 = icmp eq i32 %7, %11, !dbg !5435           ; [#uses=1 type=i1] [debug line = 2034:5]
  ret i1 %12, !dbg !5435                          ; [debug line = 2034:5]
}

; [#uses=1]
define internal void @_ZN7ap_uintILi8EEC1Ev(%struct.ap_uint* %this) unnamed_addr nounwind uwtable inlinehint alwaysinline align 2 {
  %1 = alloca %struct.ap_uint*, align 8           ; [#uses=2 type=%struct.ap_uint**]
  store %struct.ap_uint* %this, %struct.ap_uint** %1, align 8
  call void @llvm.dbg.declare(metadata !{%struct.ap_uint** %1}, metadata !5437), !dbg !5439 ; [debug line = 186:41] [debug variable = this]
  %2 = load %struct.ap_uint** %1                  ; [#uses=1 type=%struct.ap_uint*]
  call void @_ZN7ap_uintILi8EEC2Ev(%struct.ap_uint* %2), !dbg !5440 ; [debug line = 186:60]
  ret void, !dbg !5440                            ; [debug line = 186:60]
}

; [#uses=1]
declare void @_ssdm_StreamRead(...) nounwind

; [#uses=1]
define internal void @_ZN7ap_uintILi8EEC2Ev(%struct.ap_uint* %this) unnamed_addr nounwind uwtable inlinehint alwaysinline align 2 {
  %1 = alloca %struct.ap_uint*, align 8           ; [#uses=2 type=%struct.ap_uint**]
  store %struct.ap_uint* %this, %struct.ap_uint** %1, align 8
  call void @llvm.dbg.declare(metadata !{%struct.ap_uint** %1}, metadata !5441), !dbg !5442 ; [debug line = 186:41] [debug variable = this]
  %2 = load %struct.ap_uint** %1                  ; [#uses=1 type=%struct.ap_uint*]
  %3 = bitcast %struct.ap_uint* %2 to %struct.ap_int_base*, !dbg !5443 ; [#uses=1 type=%struct.ap_int_base*] [debug line = 186:59]
  call void @_ZN11ap_int_baseILi8ELb0ELb1EEC2Ev(%struct.ap_int_base* %3), !dbg !5443 ; [debug line = 186:59]
  ret void, !dbg !5444                            ; [debug line = 186:60]
}

; [#uses=1]
define internal void @_ZN11ap_int_baseILi8ELb0ELb1EEC2Ev(%struct.ap_int_base* %this) unnamed_addr nounwind uwtable inlinehint alwaysinline align 2 {
  %1 = alloca %struct.ap_int_base*, align 8       ; [#uses=2 type=%struct.ap_int_base**]
  store %struct.ap_int_base* %this, %struct.ap_int_base** %1, align 8
  call void @llvm.dbg.declare(metadata !{%struct.ap_int_base** %1}, metadata !5446), !dbg !5448 ; [debug line = 1494:41] [debug variable = this]
  %2 = load %struct.ap_int_base** %1              ; [#uses=1 type=%struct.ap_int_base*]
  %3 = bitcast %struct.ap_int_base* %2 to %struct.ssdm_int*, !dbg !5449 ; [#uses=1 type=%struct.ssdm_int*] [debug line = 1494:55]
  call void @_ZN8ssdm_intILi8ELb0EEC2Ev(%struct.ssdm_int* %3), !dbg !5449 ; [debug line = 1494:55]
  ret void, !dbg !5450                            ; [debug line = 1500:3]
}

; [#uses=1]
define internal void @_ZN8ssdm_intILi8ELb0EEC2Ev(%struct.ssdm_int* %this) unnamed_addr nounwind uwtable inlinehint alwaysinline align 2 {
  %1 = alloca %struct.ssdm_int*, align 8          ; [#uses=2 type=%struct.ssdm_int**]
  store %struct.ssdm_int* %this, %struct.ssdm_int** %1, align 8
  call void @llvm.dbg.declare(metadata !{%struct.ssdm_int** %1}, metadata !5452), !dbg !5454 ; [debug line = 10:0] [debug variable = this]
  %2 = load %struct.ssdm_int** %1                 ; [#uses=0 type=%struct.ssdm_int*]
  ret void, !dbg !5455                            ; [debug line = 10:0]
}

; [#uses=1]
define internal void @_ZN7ap_uintILi4EEC2Ev(%struct.ap_uint.0* %this) unnamed_addr nounwind uwtable inlinehint alwaysinline align 2 {
  %1 = alloca %struct.ap_uint.0*, align 8         ; [#uses=2 type=%struct.ap_uint.0**]
  store %struct.ap_uint.0* %this, %struct.ap_uint.0** %1, align 8
  call void @llvm.dbg.declare(metadata !{%struct.ap_uint.0** %1}, metadata !5457), !dbg !5458 ; [debug line = 186:41] [debug variable = this]
  %2 = load %struct.ap_uint.0** %1                ; [#uses=1 type=%struct.ap_uint.0*]
  %3 = bitcast %struct.ap_uint.0* %2 to %struct.ap_int_base.1*, !dbg !5459 ; [#uses=1 type=%struct.ap_int_base.1*] [debug line = 186:59]
  call void @_ZN11ap_int_baseILi4ELb0ELb1EEC2Ev(%struct.ap_int_base.1* %3), !dbg !5459 ; [debug line = 186:59]
  ret void, !dbg !5460                            ; [debug line = 186:60]
}

; [#uses=1]
define internal void @_ZN7ap_uintILi20EEC2Ej(%struct.ap_uint.6* %this, i32 %val) unnamed_addr nounwind uwtable inlinehint alwaysinline align 2 {
  %1 = alloca %struct.ap_uint.6*, align 8         ; [#uses=2 type=%struct.ap_uint.6**]
  %2 = alloca i32, align 4                        ; [#uses=2 type=i32*]
  store %struct.ap_uint.6* %this, %struct.ap_uint.6** %1, align 8
  call void @llvm.dbg.declare(metadata !{%struct.ap_uint.6** %1}, metadata !5462), !dbg !5463 ; [debug line = 254:41] [debug variable = this]
  store i32 %val, i32* %2, align 4
  call void @llvm.dbg.declare(metadata !{i32* %2}, metadata !5464), !dbg !5465 ; [debug line = 254:62] [debug variable = val]
  %3 = load %struct.ap_uint.6** %1                ; [#uses=2 type=%struct.ap_uint.6*]
  %4 = bitcast %struct.ap_uint.6* %3 to %struct.ap_int_base.7*, !dbg !5466 ; [#uses=1 type=%struct.ap_int_base.7*] [debug line = 254:67]
  call void @_ZN11ap_int_baseILi20ELb0ELb1EEC2Ev(%struct.ap_int_base.7* %4), !dbg !5466 ; [debug line = 254:67]
  %5 = load i32* %2, align 4, !dbg !5467          ; [#uses=1 type=i32] [debug line = 254:69]
  %6 = trunc i32 %5 to i20, !dbg !5467            ; [#uses=1 type=i20] [debug line = 254:69]
  %7 = bitcast %struct.ap_uint.6* %3 to %struct.ap_int_base.7*, !dbg !5467 ; [#uses=1 type=%struct.ap_int_base.7*] [debug line = 254:69]
  %8 = bitcast %struct.ap_int_base.7* %7 to %struct.ssdm_int.8*, !dbg !5467 ; [#uses=1 type=%struct.ssdm_int.8*] [debug line = 254:69]
  %9 = getelementptr inbounds %struct.ssdm_int.8* %8, i32 0, i32 0, !dbg !5467 ; [#uses=1 type=i20*] [debug line = 254:69]
  store i20 %6, i20* %9, align 4, !dbg !5467      ; [debug line = 254:69]
  ret void, !dbg !5469                            ; [debug line = 254:84]
}

; [#uses=1]
define internal void @_ZN11ap_int_baseILi20ELb0ELb1EEC2Ev(%struct.ap_int_base.7* %this) unnamed_addr nounwind uwtable inlinehint alwaysinline align 2 {
  %1 = alloca %struct.ap_int_base.7*, align 8     ; [#uses=2 type=%struct.ap_int_base.7**]
  store %struct.ap_int_base.7* %this, %struct.ap_int_base.7** %1, align 8
  call void @llvm.dbg.declare(metadata !{%struct.ap_int_base.7** %1}, metadata !5470), !dbg !5472 ; [debug line = 1494:41] [debug variable = this]
  %2 = load %struct.ap_int_base.7** %1            ; [#uses=1 type=%struct.ap_int_base.7*]
  %3 = bitcast %struct.ap_int_base.7* %2 to %struct.ssdm_int.8*, !dbg !5473 ; [#uses=1 type=%struct.ssdm_int.8*] [debug line = 1494:55]
  call void @_ZN8ssdm_intILi20ELb0EEC2Ev(%struct.ssdm_int.8* %3), !dbg !5473 ; [debug line = 1494:55]
  ret void, !dbg !5474                            ; [debug line = 1500:3]
}

; [#uses=1]
define internal void @_ZN8ssdm_intILi20ELb0EEC2Ev(%struct.ssdm_int.8* %this) unnamed_addr nounwind uwtable inlinehint alwaysinline align 2 {
  %1 = alloca %struct.ssdm_int.8*, align 8        ; [#uses=2 type=%struct.ssdm_int.8**]
  store %struct.ssdm_int.8* %this, %struct.ssdm_int.8** %1, align 8
  call void @llvm.dbg.declare(metadata !{%struct.ssdm_int.8** %1}, metadata !5476), !dbg !5478 ; [debug line = 22:0] [debug variable = this]
  %2 = load %struct.ssdm_int.8** %1               ; [#uses=0 type=%struct.ssdm_int.8*]
  ret void, !dbg !5479                            ; [debug line = 22:0]
}

; [#uses=1]
declare zeroext i1 @_ssdm_StreamCanRead(...) nounwind

; [#uses=1]
define internal %struct.ap_int_base.1* @_ZN11ap_int_baseILi4ELb0ELb1EEpLILi1ELb0EEERS0_RKS_IXT_EXT0_EXleT_Li64EEE(%struct.ap_int_base.1* %this, %struct.ap_int_base.4* %op2) nounwind uwtable inlinehint alwaysinline align 2 {
  %1 = alloca %struct.ap_int_base.1*, align 8     ; [#uses=2 type=%struct.ap_int_base.1**]
  %2 = alloca %struct.ap_int_base.4*, align 8     ; [#uses=2 type=%struct.ap_int_base.4**]
  store %struct.ap_int_base.1* %this, %struct.ap_int_base.1** %1, align 8
  call void @llvm.dbg.declare(metadata !{%struct.ap_int_base.1** %1}, metadata !5481), !dbg !5482 ; [debug line = 1879:88] [debug variable = this]
  store %struct.ap_int_base.4* %op2, %struct.ap_int_base.4** %2, align 8
  call void @llvm.dbg.declare(metadata !{%struct.ap_int_base.4** %2}, metadata !5483), !dbg !5484 ; [debug line = 1879:136] [debug variable = op2]
  %3 = load %struct.ap_int_base.1** %1            ; [#uses=2 type=%struct.ap_int_base.1*]
  %4 = load %struct.ap_int_base.4** %2, align 8, !dbg !5485 ; [#uses=1 type=%struct.ap_int_base.4*] [debug line = 1879:145]
  %5 = bitcast %struct.ap_int_base.4* %4 to %struct.ssdm_int.5*, !dbg !5485 ; [#uses=1 type=%struct.ssdm_int.5*] [debug line = 1879:145]
  %6 = getelementptr inbounds %struct.ssdm_int.5* %5, i32 0, i32 0, !dbg !5485 ; [#uses=1 type=i1*] [debug line = 1879:145]
  %7 = load i1* %6, align 1, !dbg !5485           ; [#uses=1 type=i1] [debug line = 1879:145]
  %8 = zext i1 %7 to i32, !dbg !5485              ; [#uses=1 type=i32] [debug line = 1879:145]
  %9 = bitcast %struct.ap_int_base.1* %3 to %struct.ssdm_int.2*, !dbg !5485 ; [#uses=1 type=%struct.ssdm_int.2*] [debug line = 1879:145]
  %10 = getelementptr inbounds %struct.ssdm_int.2* %9, i32 0, i32 0, !dbg !5485 ; [#uses=2 type=i4*] [debug line = 1879:145]
  %11 = load i4* %10, align 1, !dbg !5485         ; [#uses=1 type=i4] [debug line = 1879:145]
  %12 = zext i4 %11 to i32, !dbg !5485            ; [#uses=1 type=i32] [debug line = 1879:145]
  %13 = add nsw i32 %12, %8, !dbg !5485           ; [#uses=1 type=i32] [debug line = 1879:145]
  %14 = trunc i32 %13 to i4, !dbg !5485           ; [#uses=1 type=i4] [debug line = 1879:145]
  store i4 %14, i4* %10, align 1, !dbg !5485      ; [debug line = 1879:145]
  ret %struct.ap_int_base.1* %3, !dbg !5487       ; [debug line = 1879:163]
}

; [#uses=1]
define internal void @_ZN11ap_int_baseILi1ELb0ELb1EEC1Ei(%struct.ap_int_base.4* %this, i32 %op) unnamed_addr nounwind uwtable inlinehint alwaysinline align 2 {
  %1 = alloca %struct.ap_int_base.4*, align 8     ; [#uses=2 type=%struct.ap_int_base.4**]
  %2 = alloca i32, align 4                        ; [#uses=2 type=i32*]
  store %struct.ap_int_base.4* %this, %struct.ap_int_base.4** %1, align 8
  call void @llvm.dbg.declare(metadata !{%struct.ap_int_base.4** %1}, metadata !5488), !dbg !5490 ; [debug line = 1521:50] [debug variable = this]
  store i32 %op, i32* %2, align 4
  call void @llvm.dbg.declare(metadata !{i32* %2}, metadata !5491), !dbg !5492 ; [debug line = 1521:66] [debug variable = op]
  %3 = load %struct.ap_int_base.4** %1            ; [#uses=1 type=%struct.ap_int_base.4*]
  %4 = load i32* %2, align 4, !dbg !5493          ; [#uses=1 type=i32] [debug line = 1521:86]
  call void @_ZN11ap_int_baseILi1ELb0ELb1EEC2Ei(%struct.ap_int_base.4* %3, i32 %4), !dbg !5493 ; [debug line = 1521:86]
  ret void, !dbg !5493                            ; [debug line = 1521:86]
}

; [#uses=1]
define internal void @_ZN11ap_int_baseILi1ELb0ELb1EEC2Ei(%struct.ap_int_base.4* %this, i32 %op) unnamed_addr nounwind uwtable inlinehint alwaysinline align 2 {
  %1 = alloca %struct.ap_int_base.4*, align 8     ; [#uses=2 type=%struct.ap_int_base.4**]
  %2 = alloca i32, align 4                        ; [#uses=2 type=i32*]
  store %struct.ap_int_base.4* %this, %struct.ap_int_base.4** %1, align 8
  call void @llvm.dbg.declare(metadata !{%struct.ap_int_base.4** %1}, metadata !5494), !dbg !5495 ; [debug line = 1521:50] [debug variable = this]
  store i32 %op, i32* %2, align 4
  call void @llvm.dbg.declare(metadata !{i32* %2}, metadata !5496), !dbg !5497 ; [debug line = 1521:66] [debug variable = op]
  %3 = load %struct.ap_int_base.4** %1            ; [#uses=2 type=%struct.ap_int_base.4*]
  %4 = bitcast %struct.ap_int_base.4* %3 to %struct.ssdm_int.5*, !dbg !5498 ; [#uses=1 type=%struct.ssdm_int.5*] [debug line = 1521:70]
  call void @_ZN8ssdm_intILi1ELb0EEC2Ev(%struct.ssdm_int.5* %4), !dbg !5498 ; [debug line = 1521:70]
  %5 = load i32* %2, align 4, !dbg !5499          ; [#uses=1 type=i32] [debug line = 1521:72]
  %6 = trunc i32 %5 to i1, !dbg !5499             ; [#uses=1 type=i1] [debug line = 1521:72]
  %7 = bitcast %struct.ap_int_base.4* %3 to %struct.ssdm_int.5*, !dbg !5499 ; [#uses=1 type=%struct.ssdm_int.5*] [debug line = 1521:72]
  %8 = getelementptr inbounds %struct.ssdm_int.5* %7, i32 0, i32 0, !dbg !5499 ; [#uses=1 type=i1*] [debug line = 1521:72]
  store i1 %6, i1* %8, align 1, !dbg !5499        ; [debug line = 1521:72]
  ret void, !dbg !5501                            ; [debug line = 1521:86]
}

; [#uses=2]
define internal void @_ZN8ssdm_intILi1ELb0EEC2Ev(%struct.ssdm_int.5* %this) unnamed_addr nounwind uwtable inlinehint alwaysinline align 2 {
  %1 = alloca %struct.ssdm_int.5*, align 8        ; [#uses=2 type=%struct.ssdm_int.5**]
  store %struct.ssdm_int.5* %this, %struct.ssdm_int.5** %1, align 8
  call void @llvm.dbg.declare(metadata !{%struct.ssdm_int.5** %1}, metadata !5502), !dbg !5504 ; [debug line = 3:0] [debug variable = this]
  %2 = load %struct.ssdm_int.5** %1               ; [#uses=0 type=%struct.ssdm_int.5*]
  ret void, !dbg !5505                            ; [debug line = 3:0]
}

; [#uses=1]
define internal void @_ZN7ap_uintILi1EEC2Ei(%struct.ap_uint.3* %this, i32 %val) unnamed_addr nounwind uwtable inlinehint alwaysinline align 2 {
  %1 = alloca %struct.ap_uint.3*, align 8         ; [#uses=2 type=%struct.ap_uint.3**]
  %2 = alloca i32, align 4                        ; [#uses=2 type=i32*]
  store %struct.ap_uint.3* %this, %struct.ap_uint.3** %1, align 8
  call void @llvm.dbg.declare(metadata !{%struct.ap_uint.3** %1}, metadata !5507), !dbg !5508 ; [debug line = 253:41] [debug variable = this]
  store i32 %val, i32* %2, align 4
  call void @llvm.dbg.declare(metadata !{i32* %2}, metadata !5509), !dbg !5510 ; [debug line = 253:53] [debug variable = val]
  %3 = load %struct.ap_uint.3** %1                ; [#uses=2 type=%struct.ap_uint.3*]
  %4 = bitcast %struct.ap_uint.3* %3 to %struct.ap_int_base.4*, !dbg !5511 ; [#uses=1 type=%struct.ap_int_base.4*] [debug line = 253:58]
  call void @_ZN11ap_int_baseILi1ELb0ELb1EEC2Ev(%struct.ap_int_base.4* %4), !dbg !5511 ; [debug line = 253:58]
  %5 = load i32* %2, align 4, !dbg !5512          ; [#uses=1 type=i32] [debug line = 253:60]
  %6 = trunc i32 %5 to i1, !dbg !5512             ; [#uses=1 type=i1] [debug line = 253:60]
  %7 = bitcast %struct.ap_uint.3* %3 to %struct.ap_int_base.4*, !dbg !5512 ; [#uses=1 type=%struct.ap_int_base.4*] [debug line = 253:60]
  %8 = bitcast %struct.ap_int_base.4* %7 to %struct.ssdm_int.5*, !dbg !5512 ; [#uses=1 type=%struct.ssdm_int.5*] [debug line = 253:60]
  %9 = getelementptr inbounds %struct.ssdm_int.5* %8, i32 0, i32 0, !dbg !5512 ; [#uses=1 type=i1*] [debug line = 253:60]
  store i1 %6, i1* %9, align 1, !dbg !5512        ; [debug line = 253:60]
  ret void, !dbg !5514                            ; [debug line = 253:75]
}

; [#uses=1]
define internal void @_ZN11ap_int_baseILi1ELb0ELb1EEC2Ev(%struct.ap_int_base.4* %this) unnamed_addr nounwind uwtable inlinehint alwaysinline align 2 {
  %1 = alloca %struct.ap_int_base.4*, align 8     ; [#uses=2 type=%struct.ap_int_base.4**]
  store %struct.ap_int_base.4* %this, %struct.ap_int_base.4** %1, align 8
  call void @llvm.dbg.declare(metadata !{%struct.ap_int_base.4** %1}, metadata !5515), !dbg !5516 ; [debug line = 1494:41] [debug variable = this]
  %2 = load %struct.ap_int_base.4** %1            ; [#uses=1 type=%struct.ap_int_base.4*]
  %3 = bitcast %struct.ap_int_base.4* %2 to %struct.ssdm_int.5*, !dbg !5517 ; [#uses=1 type=%struct.ssdm_int.5*] [debug line = 1494:55]
  call void @_ZN8ssdm_intILi1ELb0EEC2Ev(%struct.ssdm_int.5* %3), !dbg !5517 ; [debug line = 1494:55]
  ret void, !dbg !5518                            ; [debug line = 1500:3]
}

; [#uses=1]
define internal void @_ZN7ap_uintILi4EEC2Ei(%struct.ap_uint.0* %this, i32 %val) unnamed_addr nounwind uwtable inlinehint alwaysinline align 2 {
  %1 = alloca %struct.ap_uint.0*, align 8         ; [#uses=2 type=%struct.ap_uint.0**]
  %2 = alloca i32, align 4                        ; [#uses=2 type=i32*]
  store %struct.ap_uint.0* %this, %struct.ap_uint.0** %1, align 8
  call void @llvm.dbg.declare(metadata !{%struct.ap_uint.0** %1}, metadata !5520), !dbg !5521 ; [debug line = 253:41] [debug variable = this]
  store i32 %val, i32* %2, align 4
  call void @llvm.dbg.declare(metadata !{i32* %2}, metadata !5522), !dbg !5523 ; [debug line = 253:53] [debug variable = val]
  %3 = load %struct.ap_uint.0** %1                ; [#uses=2 type=%struct.ap_uint.0*]
  %4 = bitcast %struct.ap_uint.0* %3 to %struct.ap_int_base.1*, !dbg !5524 ; [#uses=1 type=%struct.ap_int_base.1*] [debug line = 253:58]
  call void @_ZN11ap_int_baseILi4ELb0ELb1EEC2Ev(%struct.ap_int_base.1* %4), !dbg !5524 ; [debug line = 253:58]
  %5 = load i32* %2, align 4, !dbg !5525          ; [#uses=1 type=i32] [debug line = 253:60]
  %6 = trunc i32 %5 to i4, !dbg !5525             ; [#uses=1 type=i4] [debug line = 253:60]
  %7 = bitcast %struct.ap_uint.0* %3 to %struct.ap_int_base.1*, !dbg !5525 ; [#uses=1 type=%struct.ap_int_base.1*] [debug line = 253:60]
  %8 = bitcast %struct.ap_int_base.1* %7 to %struct.ssdm_int.2*, !dbg !5525 ; [#uses=1 type=%struct.ssdm_int.2*] [debug line = 253:60]
  %9 = getelementptr inbounds %struct.ssdm_int.2* %8, i32 0, i32 0, !dbg !5525 ; [#uses=1 type=i4*] [debug line = 253:60]
  store i4 %6, i4* %9, align 1, !dbg !5525        ; [debug line = 253:60]
  ret void, !dbg !5527                            ; [debug line = 253:75]
}

; [#uses=2]
define internal zeroext i1 @_ZNK11ap_int_baseILi20ELb0ELb1EE7get_bitEi(%struct.ap_int_base.7* %this, i32 %i) nounwind uwtable inlinehint alwaysinline align 2 {
  %1 = alloca %struct.ap_int_base.7*, align 8     ; [#uses=2 type=%struct.ap_int_base.7**]
  %2 = alloca i32, align 4                        ; [#uses=3 type=i32*]
  %__Result__ = alloca i20, align 4               ; [#uses=4 type=i20*]
  %__Val2__ = alloca i20, align 4                 ; [#uses=3 type=i20*]
  store %struct.ap_int_base.7* %this, %struct.ap_int_base.7** %1, align 8
  call void @llvm.dbg.declare(metadata !{%struct.ap_int_base.7** %1}, metadata !5528), !dbg !5530 ; [debug line = 1826:46] [debug variable = this]
  store i32 %i, i32* %2, align 4
  call void @llvm.dbg.declare(metadata !{i32* %2}, metadata !5531), !dbg !5532 ; [debug line = 1826:59] [debug variable = i]
  %3 = load %struct.ap_int_base.7** %1            ; [#uses=1 type=%struct.ap_int_base.7*]
  call void @llvm.dbg.declare(metadata !{i20* %__Result__}, metadata !5533), !dbg !5536 ; [debug line = 1827:63] [debug variable = __Result__]
  store i20 0, i20* %__Result__, align 4, !dbg !5537 ; [debug line = 1827:77]
  call void @llvm.dbg.declare(metadata !{i20* %__Val2__}, metadata !5538), !dbg !5539 ; [debug line = 1827:121] [debug variable = __Val2__]
  %4 = bitcast %struct.ap_int_base.7* %3 to %struct.ssdm_int.8*, !dbg !5540 ; [#uses=1 type=%struct.ssdm_int.8*] [debug line = 1827:165]
  %5 = getelementptr inbounds %struct.ssdm_int.8* %4, i32 0, i32 0, !dbg !5540 ; [#uses=1 type=i20*] [debug line = 1827:165]
  %6 = load i20* %5, align 4, !dbg !5540          ; [#uses=1 type=i20] [debug line = 1827:165]
  store i20 %6, i20* %__Val2__, align 4, !dbg !5540 ; [debug line = 1827:165]
  %7 = bitcast i20* %__Result__ to i8*, !dbg !5541 ; [#uses=0 type=i8*] [debug line = 1827:167]
  %8 = bitcast i20* %__Val2__ to i8*, !dbg !5541  ; [#uses=0 type=i8*] [debug line = 1827:167]
  %9 = load i32* %2, align 4, !dbg !5541          ; [#uses=1 type=i32] [debug line = 1827:167]
  %10 = load i32* %2, align 4, !dbg !5541         ; [#uses=1 type=i32] [debug line = 1827:167]
  %11 = load i20* %__Val2__, !dbg !5541           ; [#uses=1 type=i20] [debug line = 1827:167]
  %12 = call i20 @llvm.part.select.i20(i20 %11, i32 %9, i32 %10), !dbg !5541 ; [#uses=1 type=i20] [debug line = 1827:167]
  store i20 %12, i20* %__Result__, !dbg !5541     ; [debug line = 1827:167]
  %13 = load i20* %__Result__, align 4, !dbg !5541 ; [#uses=1 type=i20] [debug line = 1827:167]
  %14 = zext i20 %13 to i32, !dbg !5541           ; [#uses=1 type=i32] [debug line = 1827:167]
  %15 = and i32 %14, 1, !dbg !5541                ; [#uses=1 type=i32] [debug line = 1827:167]
  %16 = icmp ne i32 %15, 0, !dbg !5541            ; [#uses=1 type=i1] [debug line = 1827:167]
  ret i1 %16, !dbg !5542                          ; [debug line = 1827:0]
}

; [#uses=2]
define internal void @_ZN7ap_uintILi4EEC1ILi33ELb1EEERK11ap_int_baseIXT_EXT0_EXleT_Li64EEE(%struct.ap_uint.0* %this, %struct.ap_int_base.22* %op) unnamed_addr nounwind uwtable inlinehint alwaysinline align 2 {
  %1 = alloca %struct.ap_uint.0*, align 8         ; [#uses=2 type=%struct.ap_uint.0**]
  %2 = alloca %struct.ap_int_base.22*, align 8    ; [#uses=2 type=%struct.ap_int_base.22**]
  store %struct.ap_uint.0* %this, %struct.ap_uint.0** %1, align 8
  call void @llvm.dbg.declare(metadata !{%struct.ap_uint.0** %1}, metadata !5543), !dbg !5544 ; [debug line = 229:41] [debug variable = this]
  store %struct.ap_int_base.22* %op, %struct.ap_int_base.22** %2, align 8
  call void @llvm.dbg.declare(metadata !{%struct.ap_int_base.22** %2}, metadata !5545), !dbg !5546 ; [debug line = 229:84] [debug variable = op]
  %3 = load %struct.ap_uint.0** %1                ; [#uses=1 type=%struct.ap_uint.0*]
  %4 = load %struct.ap_int_base.22** %2, !dbg !5547 ; [#uses=1 type=%struct.ap_int_base.22*] [debug line = 229:104]
  call void @_ZN7ap_uintILi4EEC2ILi33ELb1EEERK11ap_int_baseIXT_EXT0_EXleT_Li64EEE(%struct.ap_uint.0* %3, %struct.ap_int_base.22* %4), !dbg !5547 ; [debug line = 229:104]
  ret void, !dbg !5547                            ; [debug line = 229:104]
}

; [#uses=2]
define internal void @_ZmiILi4ELb0EEN11ap_int_baseIXT_EXT0_EXleT_Li64EEE5RTypeIXLi32EEXLb1EEE5minusEiRKS1_(%struct.ap_int_base.22* noalias sret %agg.result, i32 %i_op, %struct.ap_int_base.1* %op) nounwind uwtable inlinehint alwaysinline {
  %1 = alloca i32, align 4                        ; [#uses=2 type=i32*]
  %2 = alloca %struct.ap_int_base.1*, align 8     ; [#uses=2 type=%struct.ap_int_base.1**]
  %3 = alloca %struct.ap_int_base.20, align 4     ; [#uses=2 type=%struct.ap_int_base.20*]
  store i32 %i_op, i32* %1, align 4
  call void @llvm.dbg.declare(metadata !{i32* %1}, metadata !5548), !dbg !5549 ; [debug line = 3523:0] [debug variable = i_op]
  store %struct.ap_int_base.1* %op, %struct.ap_int_base.1** %2, align 8
  call void @llvm.dbg.declare(metadata !{%struct.ap_int_base.1** %2}, metadata !5550), !dbg !5549 ; [debug line = 3523:0] [debug variable = op]
  %4 = load i32* %1, align 4, !dbg !5551          ; [#uses=1 type=i32] [debug line = 3523:0]
  call void @_ZN11ap_int_baseILi32ELb1ELb1EEC1Ei(%struct.ap_int_base.20* %3, i32 %4), !dbg !5551 ; [debug line = 3523:0]
  %5 = load %struct.ap_int_base.1** %2, align 8, !dbg !5551 ; [#uses=1 type=%struct.ap_int_base.1*] [debug line = 3523:0]
  call void @_ZmiILi32ELb1ELi4ELb0EEN11ap_int_baseIXT_EXT0_EXleT_Li64EEE5RTypeIXT1_EXT2_EE5minusERKS1_RKS0_IXT1_EXT2_EXleT1_Li64EEE(%struct.ap_int_base.22* sret %agg.result, %struct.ap_int_base.20* %3, %struct.ap_int_base.1* %5), !dbg !5551 ; [debug line = 3523:0]
  ret void, !dbg !5551                            ; [debug line = 3523:0]
}

; [#uses=1]
define internal void @_ZmiILi32ELb1ELi4ELb0EEN11ap_int_baseIXT_EXT0_EXleT_Li64EEE5RTypeIXT1_EXT2_EE5minusERKS1_RKS0_IXT1_EXT2_EXleT1_Li64EEE(%struct.ap_int_base.22* noalias sret %agg.result, %struct.ap_int_base.20* %op, %struct.ap_int_base.1* %op2) nounwind uwtable inlinehint alwaysinline {
  %1 = alloca %struct.ap_int_base.20*, align 8    ; [#uses=2 type=%struct.ap_int_base.20**]
  %2 = alloca %struct.ap_int_base.1*, align 8     ; [#uses=2 type=%struct.ap_int_base.1**]
  %lhs = alloca %struct.ap_int_base.22, align 8   ; [#uses=2 type=%struct.ap_int_base.22*]
  %rhs = alloca %struct.ap_int_base.22, align 8   ; [#uses=2 type=%struct.ap_int_base.22*]
  store %struct.ap_int_base.20* %op, %struct.ap_int_base.20** %1, align 8
  call void @llvm.dbg.declare(metadata !{%struct.ap_int_base.20** %1}, metadata !5553), !dbg !5554 ; [debug line = 3425:213] [debug variable = op]
  store %struct.ap_int_base.1* %op2, %struct.ap_int_base.1** %2, align 8
  call void @llvm.dbg.declare(metadata !{%struct.ap_int_base.1** %2}, metadata !5555), !dbg !5556 ; [debug line = 3425:251] [debug variable = op2]
  call void @llvm.dbg.declare(metadata !{%struct.ap_int_base.22* %lhs}, metadata !5557), !dbg !5559 ; [debug line = 3425:0] [debug variable = lhs]
  %3 = load %struct.ap_int_base.20** %1, align 8, !dbg !5559 ; [#uses=1 type=%struct.ap_int_base.20*] [debug line = 3425:0]
  call void @_ZN11ap_int_baseILi33ELb1ELb1EEC1ILi32ELb1EEERKS_IXT_EXT0_EXleT_Li64EEE(%struct.ap_int_base.22* %lhs, %struct.ap_int_base.20* %3), !dbg !5559 ; [debug line = 3425:0]
  call void @llvm.dbg.declare(metadata !{%struct.ap_int_base.22* %rhs}, metadata !5560), !dbg !5559 ; [debug line = 3425:0] [debug variable = rhs]
  %4 = load %struct.ap_int_base.1** %2, align 8, !dbg !5559 ; [#uses=1 type=%struct.ap_int_base.1*] [debug line = 3425:0]
  call void @_ZN11ap_int_baseILi33ELb1ELb1EEC1ILi4ELb0EEERKS_IXT_EXT0_EXleT_Li64EEE(%struct.ap_int_base.22* %rhs, %struct.ap_int_base.1* %4), !dbg !5559 ; [debug line = 3425:0]
  call void @llvm.dbg.declare(metadata !{%struct.ap_int_base.22* %agg.result}, metadata !5561), !dbg !5559 ; [debug line = 3425:0] [debug variable = r]
  call void @_ZN11ap_int_baseILi33ELb1ELb1EEC1Ev(%struct.ap_int_base.22* %agg.result), !dbg !5559 ; [debug line = 3425:0]
  %5 = bitcast %struct.ap_int_base.22* %lhs to %struct.ssdm_int.23*, !dbg !5559 ; [#uses=1 type=%struct.ssdm_int.23*] [debug line = 3425:0]
  %6 = getelementptr inbounds %struct.ssdm_int.23* %5, i32 0, i32 0, !dbg !5559 ; [#uses=1 type=i33*] [debug line = 3425:0]
  %7 = load i33* %6, align 8, !dbg !5559          ; [#uses=1 type=i33] [debug line = 3425:0]
  %8 = bitcast %struct.ap_int_base.22* %rhs to %struct.ssdm_int.23*, !dbg !5559 ; [#uses=1 type=%struct.ssdm_int.23*] [debug line = 3425:0]
  %9 = getelementptr inbounds %struct.ssdm_int.23* %8, i32 0, i32 0, !dbg !5559 ; [#uses=1 type=i33*] [debug line = 3425:0]
  %10 = load i33* %9, align 8, !dbg !5559         ; [#uses=1 type=i33] [debug line = 3425:0]
  %11 = sub nsw i33 %7, %10, !dbg !5559           ; [#uses=1 type=i33] [debug line = 3425:0]
  %12 = bitcast %struct.ap_int_base.22* %agg.result to %struct.ssdm_int.23*, !dbg !5559 ; [#uses=1 type=%struct.ssdm_int.23*] [debug line = 3425:0]
  %13 = getelementptr inbounds %struct.ssdm_int.23* %12, i32 0, i32 0, !dbg !5559 ; [#uses=1 type=i33*] [debug line = 3425:0]
  store i33 %11, i33* %13, align 8, !dbg !5559    ; [debug line = 3425:0]
  ret void, !dbg !5559                            ; [debug line = 3425:0]
}

; [#uses=1]
define internal void @_ZN11ap_int_baseILi33ELb1ELb1EEC1ILi32ELb1EEERKS_IXT_EXT0_EXleT_Li64EEE(%struct.ap_int_base.22* %this, %struct.ap_int_base.20* %op) unnamed_addr nounwind uwtable inlinehint alwaysinline align 2 {
  %1 = alloca %struct.ap_int_base.22*, align 8    ; [#uses=2 type=%struct.ap_int_base.22**]
  %2 = alloca %struct.ap_int_base.20*, align 8    ; [#uses=2 type=%struct.ap_int_base.20**]
  store %struct.ap_int_base.22* %this, %struct.ap_int_base.22** %1, align 8
  call void @llvm.dbg.declare(metadata !{%struct.ap_int_base.22** %1}, metadata !5563), !dbg !5564 ; [debug line = 1506:41] [debug variable = this]
  store %struct.ap_int_base.20* %op, %struct.ap_int_base.20** %2, align 8
  call void @llvm.dbg.declare(metadata !{%struct.ap_int_base.20** %2}, metadata !5565), !dbg !5566 ; [debug line = 1506:87] [debug variable = op]
  %3 = load %struct.ap_int_base.22** %1           ; [#uses=1 type=%struct.ap_int_base.22*]
  %4 = load %struct.ap_int_base.20** %2, !dbg !5567 ; [#uses=1 type=%struct.ap_int_base.20*] [debug line = 1506:109]
  call void @_ZN11ap_int_baseILi33ELb1ELb1EEC2ILi32ELb1EEERKS_IXT_EXT0_EXleT_Li64EEE(%struct.ap_int_base.22* %3, %struct.ap_int_base.20* %4), !dbg !5567 ; [debug line = 1506:109]
  ret void, !dbg !5567                            ; [debug line = 1506:109]
}

; [#uses=1]
define internal void @_ZN11ap_int_baseILi33ELb1ELb1EEC1ILi4ELb0EEERKS_IXT_EXT0_EXleT_Li64EEE(%struct.ap_int_base.22* %this, %struct.ap_int_base.1* %op) unnamed_addr nounwind uwtable inlinehint alwaysinline align 2 {
  %1 = alloca %struct.ap_int_base.22*, align 8    ; [#uses=2 type=%struct.ap_int_base.22**]
  %2 = alloca %struct.ap_int_base.1*, align 8     ; [#uses=2 type=%struct.ap_int_base.1**]
  store %struct.ap_int_base.22* %this, %struct.ap_int_base.22** %1, align 8
  call void @llvm.dbg.declare(metadata !{%struct.ap_int_base.22** %1}, metadata !5568), !dbg !5569 ; [debug line = 1506:41] [debug variable = this]
  store %struct.ap_int_base.1* %op, %struct.ap_int_base.1** %2, align 8
  call void @llvm.dbg.declare(metadata !{%struct.ap_int_base.1** %2}, metadata !5570), !dbg !5571 ; [debug line = 1506:87] [debug variable = op]
  %3 = load %struct.ap_int_base.22** %1           ; [#uses=1 type=%struct.ap_int_base.22*]
  %4 = load %struct.ap_int_base.1** %2, !dbg !5572 ; [#uses=1 type=%struct.ap_int_base.1*] [debug line = 1506:109]
  call void @_ZN11ap_int_baseILi33ELb1ELb1EEC2ILi4ELb0EEERKS_IXT_EXT0_EXleT_Li64EEE(%struct.ap_int_base.22* %3, %struct.ap_int_base.1* %4), !dbg !5572 ; [debug line = 1506:109]
  ret void, !dbg !5572                            ; [debug line = 1506:109]
}

; [#uses=1]
define internal void @_ZN11ap_int_baseILi33ELb1ELb1EEC1Ev(%struct.ap_int_base.22* %this) unnamed_addr nounwind uwtable inlinehint alwaysinline align 2 {
  %1 = alloca %struct.ap_int_base.22*, align 8    ; [#uses=2 type=%struct.ap_int_base.22**]
  store %struct.ap_int_base.22* %this, %struct.ap_int_base.22** %1, align 8
  call void @llvm.dbg.declare(metadata !{%struct.ap_int_base.22** %1}, metadata !5573), !dbg !5574 ; [debug line = 1494:41] [debug variable = this]
  %2 = load %struct.ap_int_base.22** %1           ; [#uses=1 type=%struct.ap_int_base.22*]
  call void @_ZN11ap_int_baseILi33ELb1ELb1EEC2Ev(%struct.ap_int_base.22* %2), !dbg !5575 ; [debug line = 1500:3]
  ret void, !dbg !5575                            ; [debug line = 1500:3]
}

; [#uses=1]
define internal void @_ZN11ap_int_baseILi33ELb1ELb1EEC2Ev(%struct.ap_int_base.22* %this) unnamed_addr nounwind uwtable inlinehint alwaysinline align 2 {
  %1 = alloca %struct.ap_int_base.22*, align 8    ; [#uses=2 type=%struct.ap_int_base.22**]
  store %struct.ap_int_base.22* %this, %struct.ap_int_base.22** %1, align 8
  call void @llvm.dbg.declare(metadata !{%struct.ap_int_base.22** %1}, metadata !5576), !dbg !5577 ; [debug line = 1494:41] [debug variable = this]
  %2 = load %struct.ap_int_base.22** %1           ; [#uses=1 type=%struct.ap_int_base.22*]
  %3 = bitcast %struct.ap_int_base.22* %2 to %struct.ssdm_int.23*, !dbg !5578 ; [#uses=1 type=%struct.ssdm_int.23*] [debug line = 1494:55]
  call void @_ZN8ssdm_intILi33ELb1EEC2Ev(%struct.ssdm_int.23* %3), !dbg !5578 ; [debug line = 1494:55]
  ret void, !dbg !5579                            ; [debug line = 1500:3]
}

; [#uses=3]
define internal void @_ZN8ssdm_intILi33ELb1EEC2Ev(%struct.ssdm_int.23* %this) unnamed_addr nounwind uwtable inlinehint alwaysinline align 2 {
  %1 = alloca %struct.ssdm_int.23*, align 8       ; [#uses=2 type=%struct.ssdm_int.23**]
  store %struct.ssdm_int.23* %this, %struct.ssdm_int.23** %1, align 8
  call void @llvm.dbg.declare(metadata !{%struct.ssdm_int.23** %1}, metadata !5581), !dbg !5583 ; [debug line = 35:137] [debug variable = this]
  %2 = load %struct.ssdm_int.23** %1              ; [#uses=0 type=%struct.ssdm_int.23*]
  ret void, !dbg !5584                            ; [debug line = 35:171]
}

; [#uses=1]
define internal void @_ZN11ap_int_baseILi33ELb1ELb1EEC2ILi4ELb0EEERKS_IXT_EXT0_EXleT_Li64EEE(%struct.ap_int_base.22* %this, %struct.ap_int_base.1* %op) unnamed_addr nounwind uwtable inlinehint alwaysinline align 2 {
  %1 = alloca %struct.ap_int_base.22*, align 8    ; [#uses=2 type=%struct.ap_int_base.22**]
  %2 = alloca %struct.ap_int_base.1*, align 8     ; [#uses=2 type=%struct.ap_int_base.1**]
  store %struct.ap_int_base.22* %this, %struct.ap_int_base.22** %1, align 8
  call void @llvm.dbg.declare(metadata !{%struct.ap_int_base.22** %1}, metadata !5586), !dbg !5587 ; [debug line = 1506:41] [debug variable = this]
  store %struct.ap_int_base.1* %op, %struct.ap_int_base.1** %2, align 8
  call void @llvm.dbg.declare(metadata !{%struct.ap_int_base.1** %2}, metadata !5588), !dbg !5589 ; [debug line = 1506:87] [debug variable = op]
  %3 = load %struct.ap_int_base.22** %1           ; [#uses=2 type=%struct.ap_int_base.22*]
  %4 = bitcast %struct.ap_int_base.22* %3 to %struct.ssdm_int.23*, !dbg !5590 ; [#uses=1 type=%struct.ssdm_int.23*] [debug line = 1506:91]
  call void @_ZN8ssdm_intILi33ELb1EEC2Ev(%struct.ssdm_int.23* %4), !dbg !5590 ; [debug line = 1506:91]
  %5 = load %struct.ap_int_base.1** %2, align 8, !dbg !5591 ; [#uses=1 type=%struct.ap_int_base.1*] [debug line = 1506:93]
  %6 = bitcast %struct.ap_int_base.1* %5 to %struct.ssdm_int.2*, !dbg !5591 ; [#uses=1 type=%struct.ssdm_int.2*] [debug line = 1506:93]
  %7 = getelementptr inbounds %struct.ssdm_int.2* %6, i32 0, i32 0, !dbg !5591 ; [#uses=1 type=i4*] [debug line = 1506:93]
  %8 = load i4* %7, align 1, !dbg !5591           ; [#uses=1 type=i4] [debug line = 1506:93]
  %9 = zext i4 %8 to i33, !dbg !5591              ; [#uses=1 type=i33] [debug line = 1506:93]
  %10 = bitcast %struct.ap_int_base.22* %3 to %struct.ssdm_int.23*, !dbg !5591 ; [#uses=1 type=%struct.ssdm_int.23*] [debug line = 1506:93]
  %11 = getelementptr inbounds %struct.ssdm_int.23* %10, i32 0, i32 0, !dbg !5591 ; [#uses=1 type=i33*] [debug line = 1506:93]
  store i33 %9, i33* %11, align 8, !dbg !5591     ; [debug line = 1506:93]
  ret void, !dbg !5593                            ; [debug line = 1506:109]
}

; [#uses=1]
define internal void @_ZN11ap_int_baseILi33ELb1ELb1EEC2ILi32ELb1EEERKS_IXT_EXT0_EXleT_Li64EEE(%struct.ap_int_base.22* %this, %struct.ap_int_base.20* %op) unnamed_addr nounwind uwtable inlinehint alwaysinline align 2 {
  %1 = alloca %struct.ap_int_base.22*, align 8    ; [#uses=2 type=%struct.ap_int_base.22**]
  %2 = alloca %struct.ap_int_base.20*, align 8    ; [#uses=2 type=%struct.ap_int_base.20**]
  store %struct.ap_int_base.22* %this, %struct.ap_int_base.22** %1, align 8
  call void @llvm.dbg.declare(metadata !{%struct.ap_int_base.22** %1}, metadata !5594), !dbg !5595 ; [debug line = 1506:41] [debug variable = this]
  store %struct.ap_int_base.20* %op, %struct.ap_int_base.20** %2, align 8
  call void @llvm.dbg.declare(metadata !{%struct.ap_int_base.20** %2}, metadata !5596), !dbg !5597 ; [debug line = 1506:87] [debug variable = op]
  %3 = load %struct.ap_int_base.22** %1           ; [#uses=2 type=%struct.ap_int_base.22*]
  %4 = bitcast %struct.ap_int_base.22* %3 to %struct.ssdm_int.23*, !dbg !5598 ; [#uses=1 type=%struct.ssdm_int.23*] [debug line = 1506:91]
  call void @_ZN8ssdm_intILi33ELb1EEC2Ev(%struct.ssdm_int.23* %4), !dbg !5598 ; [debug line = 1506:91]
  %5 = load %struct.ap_int_base.20** %2, align 8, !dbg !5599 ; [#uses=1 type=%struct.ap_int_base.20*] [debug line = 1506:93]
  %6 = bitcast %struct.ap_int_base.20* %5 to %struct.ssdm_int.21*, !dbg !5599 ; [#uses=1 type=%struct.ssdm_int.21*] [debug line = 1506:93]
  %7 = getelementptr inbounds %struct.ssdm_int.21* %6, i32 0, i32 0, !dbg !5599 ; [#uses=1 type=i32*] [debug line = 1506:93]
  %8 = load i32* %7, align 4, !dbg !5599          ; [#uses=1 type=i32] [debug line = 1506:93]
  %9 = sext i32 %8 to i33, !dbg !5599             ; [#uses=1 type=i33] [debug line = 1506:93]
  %10 = bitcast %struct.ap_int_base.22* %3 to %struct.ssdm_int.23*, !dbg !5599 ; [#uses=1 type=%struct.ssdm_int.23*] [debug line = 1506:93]
  %11 = getelementptr inbounds %struct.ssdm_int.23* %10, i32 0, i32 0, !dbg !5599 ; [#uses=1 type=i33*] [debug line = 1506:93]
  store i33 %9, i33* %11, align 8, !dbg !5599     ; [debug line = 1506:93]
  ret void, !dbg !5601                            ; [debug line = 1506:109]
}

; [#uses=1]
define internal void @_ZN7ap_uintILi4EEC2ILi33ELb1EEERK11ap_int_baseIXT_EXT0_EXleT_Li64EEE(%struct.ap_uint.0* %this, %struct.ap_int_base.22* %op) unnamed_addr nounwind uwtable inlinehint alwaysinline align 2 {
  %1 = alloca %struct.ap_uint.0*, align 8         ; [#uses=2 type=%struct.ap_uint.0**]
  %2 = alloca %struct.ap_int_base.22*, align 8    ; [#uses=2 type=%struct.ap_int_base.22**]
  store %struct.ap_uint.0* %this, %struct.ap_uint.0** %1, align 8
  call void @llvm.dbg.declare(metadata !{%struct.ap_uint.0** %1}, metadata !5602), !dbg !5603 ; [debug line = 229:41] [debug variable = this]
  store %struct.ap_int_base.22* %op, %struct.ap_int_base.22** %2, align 8
  call void @llvm.dbg.declare(metadata !{%struct.ap_int_base.22** %2}, metadata !5604), !dbg !5605 ; [debug line = 229:84] [debug variable = op]
  %3 = load %struct.ap_uint.0** %1                ; [#uses=2 type=%struct.ap_uint.0*]
  %4 = bitcast %struct.ap_uint.0* %3 to %struct.ap_int_base.1*, !dbg !5606 ; [#uses=1 type=%struct.ap_int_base.1*] [debug line = 229:87]
  call void @_ZN11ap_int_baseILi4ELb0ELb1EEC2Ev(%struct.ap_int_base.1* %4), !dbg !5606 ; [debug line = 229:87]
  %5 = load %struct.ap_int_base.22** %2, align 8, !dbg !5607 ; [#uses=1 type=%struct.ap_int_base.22*] [debug line = 229:89]
  %6 = bitcast %struct.ap_int_base.22* %5 to %struct.ssdm_int.23*, !dbg !5607 ; [#uses=1 type=%struct.ssdm_int.23*] [debug line = 229:89]
  %7 = getelementptr inbounds %struct.ssdm_int.23* %6, i32 0, i32 0, !dbg !5607 ; [#uses=1 type=i33*] [debug line = 229:89]
  %8 = load i33* %7, align 8, !dbg !5607          ; [#uses=1 type=i33] [debug line = 229:89]
  %9 = trunc i33 %8 to i4, !dbg !5607             ; [#uses=1 type=i4] [debug line = 229:89]
  %10 = bitcast %struct.ap_uint.0* %3 to %struct.ap_int_base.1*, !dbg !5607 ; [#uses=1 type=%struct.ap_int_base.1*] [debug line = 229:89]
  %11 = bitcast %struct.ap_int_base.1* %10 to %struct.ssdm_int.2*, !dbg !5607 ; [#uses=1 type=%struct.ssdm_int.2*] [debug line = 229:89]
  %12 = getelementptr inbounds %struct.ssdm_int.2* %11, i32 0, i32 0, !dbg !5607 ; [#uses=1 type=i4*] [debug line = 229:89]
  store i4 %9, i4* %12, align 1, !dbg !5607       ; [debug line = 229:89]
  ret void, !dbg !5609                            ; [debug line = 229:104]
}

; [#uses=1]
declare i20 @llvm.part.select.i20(i20, i32, i32) nounwind readnone

!llvm.dbg.cu = !{!0}
!opencl.kernels = !{!5024, !5031, !5037, !5039, !5042, !5043, !5049, !5050, !5056, !5058, !5059, !5060, !5063, !5064, !5065, !5066, !5067, !5069, !5070, !5071, !5072, !5073, !5074, !5075, !5076, !5077, !5080, !5081, !5082, !5083, !5084, !5086, !5087, !5088, !5089, !5091, !5092, !5093, !5094, !5095, !5096, !5097, !5103, !5106, !5108, !5109, !5110, !5111, !5113, !5114, !5115, !5116, !5118, !5119}
!hls.encrypted.func = !{}

!0 = metadata !{i32 786449, i32 0, i32 4, metadata !"/home/andrea/Documenti/vision/Ultrascale/hls/VGA/AXI_STREAM_TO_VGA_RED_255/AXI_STREAM_TO_VGA_RED_255_prj/solution1/.autopilot/db/vga.pragma.2.cpp", metadata !"/home/andrea/Documenti/vision/Ultrascale/hls/VGA/AXI_STREAM_TO_VGA_RED_255", metadata !"clang version 3.1 ", i1 true, i1 false, metadata !"", i32 0, metadata !1, metadata !906, metadata !908, metadata !3295} ; [ DW_TAG_compile_unit ]
!1 = metadata !{metadata !2}
!2 = metadata !{metadata !3, metadata !26, metadata !33, metadata !42, metadata !48, metadata !899}
!3 = metadata !{i32 786436, metadata !4, metadata !"_Ios_Fmtflags", metadata !5, i32 52, i64 17, i64 32, i32 0, i32 0, null, metadata !6, i32 0, i32 0} ; [ DW_TAG_enumeration_type ]
!4 = metadata !{i32 786489, null, metadata !"std", metadata !5, i32 44} ; [ DW_TAG_namespace ]
!5 = metadata !{i32 786473, metadata !"/opt/Xilinx/Vivado/2018.1/lnx64/tools/gcc/lib/gcc/x86_64-unknown-linux-gnu/4.6.3/../../../../include/c++/4.6.3/bits/ios_base.h", metadata !"/home/andrea/Documenti/vision/Ultrascale/hls/VGA/AXI_STREAM_TO_VGA_RED_255", null} ; [ DW_TAG_file_type ]
!6 = metadata !{metadata !7, metadata !8, metadata !9, metadata !10, metadata !11, metadata !12, metadata !13, metadata !14, metadata !15, metadata !16, metadata !17, metadata !18, metadata !19, metadata !20, metadata !21, metadata !22, metadata !23, metadata !24, metadata !25}
!7 = metadata !{i32 786472, metadata !"_S_boolalpha", i64 1} ; [ DW_TAG_enumerator ]
!8 = metadata !{i32 786472, metadata !"_S_dec", i64 2} ; [ DW_TAG_enumerator ]
!9 = metadata !{i32 786472, metadata !"_S_fixed", i64 4} ; [ DW_TAG_enumerator ]
!10 = metadata !{i32 786472, metadata !"_S_hex", i64 8} ; [ DW_TAG_enumerator ]
!11 = metadata !{i32 786472, metadata !"_S_internal", i64 16} ; [ DW_TAG_enumerator ]
!12 = metadata !{i32 786472, metadata !"_S_left", i64 32} ; [ DW_TAG_enumerator ]
!13 = metadata !{i32 786472, metadata !"_S_oct", i64 64} ; [ DW_TAG_enumerator ]
!14 = metadata !{i32 786472, metadata !"_S_right", i64 128} ; [ DW_TAG_enumerator ]
!15 = metadata !{i32 786472, metadata !"_S_scientific", i64 256} ; [ DW_TAG_enumerator ]
!16 = metadata !{i32 786472, metadata !"_S_showbase", i64 512} ; [ DW_TAG_enumerator ]
!17 = metadata !{i32 786472, metadata !"_S_showpoint", i64 1024} ; [ DW_TAG_enumerator ]
!18 = metadata !{i32 786472, metadata !"_S_showpos", i64 2048} ; [ DW_TAG_enumerator ]
!19 = metadata !{i32 786472, metadata !"_S_skipws", i64 4096} ; [ DW_TAG_enumerator ]
!20 = metadata !{i32 786472, metadata !"_S_unitbuf", i64 8192} ; [ DW_TAG_enumerator ]
!21 = metadata !{i32 786472, metadata !"_S_uppercase", i64 16384} ; [ DW_TAG_enumerator ]
!22 = metadata !{i32 786472, metadata !"_S_adjustfield", i64 176} ; [ DW_TAG_enumerator ]
!23 = metadata !{i32 786472, metadata !"_S_basefield", i64 74} ; [ DW_TAG_enumerator ]
!24 = metadata !{i32 786472, metadata !"_S_floatfield", i64 260} ; [ DW_TAG_enumerator ]
!25 = metadata !{i32 786472, metadata !"_S_ios_fmtflags_end", i64 65536} ; [ DW_TAG_enumerator ]
!26 = metadata !{i32 786436, metadata !4, metadata !"_Ios_Iostate", metadata !5, i32 144, i64 17, i64 32, i32 0, i32 0, null, metadata !27, i32 0, i32 0} ; [ DW_TAG_enumeration_type ]
!27 = metadata !{metadata !28, metadata !29, metadata !30, metadata !31, metadata !32}
!28 = metadata !{i32 786472, metadata !"_S_goodbit", i64 0} ; [ DW_TAG_enumerator ]
!29 = metadata !{i32 786472, metadata !"_S_badbit", i64 1} ; [ DW_TAG_enumerator ]
!30 = metadata !{i32 786472, metadata !"_S_eofbit", i64 2} ; [ DW_TAG_enumerator ]
!31 = metadata !{i32 786472, metadata !"_S_failbit", i64 4} ; [ DW_TAG_enumerator ]
!32 = metadata !{i32 786472, metadata !"_S_ios_iostate_end", i64 65536} ; [ DW_TAG_enumerator ]
!33 = metadata !{i32 786436, metadata !4, metadata !"_Ios_Openmode", metadata !5, i32 104, i64 17, i64 32, i32 0, i32 0, null, metadata !34, i32 0, i32 0} ; [ DW_TAG_enumeration_type ]
!34 = metadata !{metadata !35, metadata !36, metadata !37, metadata !38, metadata !39, metadata !40, metadata !41}
!35 = metadata !{i32 786472, metadata !"_S_app", i64 1} ; [ DW_TAG_enumerator ]
!36 = metadata !{i32 786472, metadata !"_S_ate", i64 2} ; [ DW_TAG_enumerator ]
!37 = metadata !{i32 786472, metadata !"_S_bin", i64 4} ; [ DW_TAG_enumerator ]
!38 = metadata !{i32 786472, metadata !"_S_in", i64 8} ; [ DW_TAG_enumerator ]
!39 = metadata !{i32 786472, metadata !"_S_out", i64 16} ; [ DW_TAG_enumerator ]
!40 = metadata !{i32 786472, metadata !"_S_trunc", i64 32} ; [ DW_TAG_enumerator ]
!41 = metadata !{i32 786472, metadata !"_S_ios_openmode_end", i64 65536} ; [ DW_TAG_enumerator ]
!42 = metadata !{i32 786436, metadata !4, metadata !"_Ios_Seekdir", metadata !5, i32 182, i64 17, i64 32, i32 0, i32 0, null, metadata !43, i32 0, i32 0} ; [ DW_TAG_enumeration_type ]
!43 = metadata !{metadata !44, metadata !45, metadata !46, metadata !47}
!44 = metadata !{i32 786472, metadata !"_S_beg", i64 0} ; [ DW_TAG_enumerator ]
!45 = metadata !{i32 786472, metadata !"_S_cur", i64 1} ; [ DW_TAG_enumerator ]
!46 = metadata !{i32 786472, metadata !"_S_end", i64 2} ; [ DW_TAG_enumerator ]
!47 = metadata !{i32 786472, metadata !"_S_ios_seekdir_end", i64 65536} ; [ DW_TAG_enumerator ]
!48 = metadata !{i32 786436, metadata !49, metadata !"event", metadata !5, i32 420, i64 2, i64 2, i32 0, i32 0, null, metadata !895, i32 0, i32 0} ; [ DW_TAG_enumeration_type ]
!49 = metadata !{i32 786434, metadata !4, metadata !"ios_base", metadata !5, i32 200, i64 1728, i64 64, i32 0, i32 0, null, metadata !50, i32 0, metadata !49, null} ; [ DW_TAG_class_type ]
!50 = metadata !{metadata !51, metadata !57, metadata !65, metadata !66, metadata !68, metadata !70, metadata !71, metadata !97, metadata !107, metadata !111, metadata !112, metadata !114, metadata !827, metadata !831, metadata !834, metadata !837, metadata !841, metadata !842, metadata !847, metadata !850, metadata !851, metadata !854, metadata !857, metadata !860, metadata !863, metadata !864, metadata !865, metadata !868, metadata !871, metadata !874, metadata !877, metadata !878, metadata !882, metadata !886, metadata !887, metadata !888, metadata !892}
!51 = metadata !{i32 786445, metadata !5, metadata !"_vptr$ios_base", metadata !5, i32 0, i64 64, i64 0, i64 0, i32 0, metadata !52} ; [ DW_TAG_member ]
!52 = metadata !{i32 786447, null, metadata !"", null, i32 0, i64 64, i64 0, i64 0, i32 0, metadata !53} ; [ DW_TAG_pointer_type ]
!53 = metadata !{i32 786447, null, metadata !"__vtbl_ptr_type", null, i32 0, i64 64, i64 0, i64 0, i32 0, metadata !54} ; [ DW_TAG_pointer_type ]
!54 = metadata !{i32 786453, i32 0, metadata !"", i32 0, i32 0, i64 0, i64 0, i64 0, i32 0, null, metadata !55, i32 0, i32 0} ; [ DW_TAG_subroutine_type ]
!55 = metadata !{metadata !56}
!56 = metadata !{i32 786468, null, metadata !"int", null, i32 0, i64 32, i64 32, i64 0, i32 0, i32 5} ; [ DW_TAG_base_type ]
!57 = metadata !{i32 786445, metadata !49, metadata !"_M_precision", metadata !5, i32 453, i64 64, i64 64, i64 64, i32 2, metadata !58} ; [ DW_TAG_member ]
!58 = metadata !{i32 786454, metadata !59, metadata !"streamsize", metadata !5, i32 99, i64 0, i64 0, i64 0, i32 0, metadata !61} ; [ DW_TAG_typedef ]
!59 = metadata !{i32 786489, null, metadata !"std", metadata !60, i32 69} ; [ DW_TAG_namespace ]
!60 = metadata !{i32 786473, metadata !"/opt/Xilinx/Vivado/2018.1/lnx64/tools/gcc/lib/gcc/x86_64-unknown-linux-gnu/4.6.3/../../../../include/c++/4.6.3/bits/postypes.h", metadata !"/home/andrea/Documenti/vision/Ultrascale/hls/VGA/AXI_STREAM_TO_VGA_RED_255", null} ; [ DW_TAG_file_type ]
!61 = metadata !{i32 786454, metadata !62, metadata !"ptrdiff_t", metadata !5, i32 156, i64 0, i64 0, i64 0, i32 0, metadata !64} ; [ DW_TAG_typedef ]
!62 = metadata !{i32 786489, null, metadata !"std", metadata !63, i32 153} ; [ DW_TAG_namespace ]
!63 = metadata !{i32 786473, metadata !"/opt/Xilinx/Vivado/2018.1/lnx64/tools/gcc/lib/gcc/x86_64-unknown-linux-gnu/4.6.3/../../../../include/c++/4.6.3/x86_64-unknown-linux-gnu/bits/c++config.h", metadata !"/home/andrea/Documenti/vision/Ultrascale/hls/VGA/AXI_STREAM_TO_VGA_RED_255", null} ; [ DW_TAG_file_type ]
!64 = metadata !{i32 786468, null, metadata !"long int", null, i32 0, i64 64, i64 64, i64 0, i32 0, i32 5} ; [ DW_TAG_base_type ]
!65 = metadata !{i32 786445, metadata !49, metadata !"_M_width", metadata !5, i32 454, i64 64, i64 64, i64 128, i32 2, metadata !58} ; [ DW_TAG_member ]
!66 = metadata !{i32 786445, metadata !49, metadata !"_M_flags", metadata !5, i32 455, i64 17, i64 32, i64 192, i32 2, metadata !67} ; [ DW_TAG_member ]
!67 = metadata !{i32 786454, metadata !49, metadata !"fmtflags", metadata !5, i32 256, i64 0, i64 0, i64 0, i32 0, metadata !3} ; [ DW_TAG_typedef ]
!68 = metadata !{i32 786445, metadata !49, metadata !"_M_exception", metadata !5, i32 456, i64 17, i64 32, i64 224, i32 2, metadata !69} ; [ DW_TAG_member ]
!69 = metadata !{i32 786454, metadata !49, metadata !"iostate", metadata !5, i32 331, i64 0, i64 0, i64 0, i32 0, metadata !26} ; [ DW_TAG_typedef ]
!70 = metadata !{i32 786445, metadata !49, metadata !"_M_streambuf_state", metadata !5, i32 457, i64 17, i64 32, i64 256, i32 2, metadata !69} ; [ DW_TAG_member ]
!71 = metadata !{i32 786445, metadata !49, metadata !"_M_callbacks", metadata !5, i32 491, i64 64, i64 64, i64 320, i32 2, metadata !72} ; [ DW_TAG_member ]
!72 = metadata !{i32 786447, null, metadata !"", null, i32 0, i64 64, i64 64, i64 0, i32 0, metadata !73} ; [ DW_TAG_pointer_type ]
!73 = metadata !{i32 786434, metadata !49, metadata !"_Callback_list", metadata !5, i32 461, i64 192, i64 64, i32 0, i32 0, null, metadata !74, i32 0, null, null} ; [ DW_TAG_class_type ]
!74 = metadata !{metadata !75, metadata !76, metadata !82, metadata !83, metadata !85, metadata !91, metadata !94}
!75 = metadata !{i32 786445, metadata !73, metadata !"_M_next", metadata !5, i32 464, i64 64, i64 64, i64 0, i32 0, metadata !72} ; [ DW_TAG_member ]
!76 = metadata !{i32 786445, metadata !73, metadata !"_M_fn", metadata !5, i32 465, i64 64, i64 64, i64 64, i32 0, metadata !77} ; [ DW_TAG_member ]
!77 = metadata !{i32 786454, metadata !49, metadata !"event_callback", metadata !5, i32 437, i64 0, i64 0, i64 0, i32 0, metadata !78} ; [ DW_TAG_typedef ]
!78 = metadata !{i32 786447, null, metadata !"", null, i32 0, i64 64, i64 64, i64 0, i32 0, metadata !79} ; [ DW_TAG_pointer_type ]
!79 = metadata !{i32 786453, i32 0, metadata !"", i32 0, i32 0, i64 0, i64 0, i64 0, i32 0, null, metadata !80, i32 0, i32 0} ; [ DW_TAG_subroutine_type ]
!80 = metadata !{null, metadata !48, metadata !81, metadata !56}
!81 = metadata !{i32 786448, null, null, null, i32 0, i64 0, i64 0, i64 0, i32 0, metadata !49} ; [ DW_TAG_reference_type ]
!82 = metadata !{i32 786445, metadata !73, metadata !"_M_index", metadata !5, i32 466, i64 32, i64 32, i64 128, i32 0, metadata !56} ; [ DW_TAG_member ]
!83 = metadata !{i32 786445, metadata !73, metadata !"_M_refcount", metadata !5, i32 467, i64 32, i64 32, i64 160, i32 0, metadata !84} ; [ DW_TAG_member ]
!84 = metadata !{i32 786454, null, metadata !"_Atomic_word", metadata !5, i32 32, i64 0, i64 0, i64 0, i32 0, metadata !56} ; [ DW_TAG_typedef ]
!85 = metadata !{i32 786478, i32 0, metadata !73, metadata !"_Callback_list", metadata !"_Callback_list", metadata !"", metadata !5, i32 469, metadata !86, i1 false, i1 false, i32 0, i32 0, null, i32 256, i1 false, null, null, i32 0, metadata !89, i32 469} ; [ DW_TAG_subprogram ]
!86 = metadata !{i32 786453, i32 0, metadata !"", i32 0, i32 0, i64 0, i64 0, i64 0, i32 0, null, metadata !87, i32 0, i32 0} ; [ DW_TAG_subroutine_type ]
!87 = metadata !{null, metadata !88, metadata !77, metadata !56, metadata !72}
!88 = metadata !{i32 786447, i32 0, metadata !"", i32 0, i32 0, i64 64, i64 64, i64 0, i32 64, metadata !73} ; [ DW_TAG_pointer_type ]
!89 = metadata !{metadata !90}
!90 = metadata !{i32 786468}                      ; [ DW_TAG_base_type ]
!91 = metadata !{i32 786478, i32 0, metadata !73, metadata !"_M_add_reference", metadata !"_M_add_reference", metadata !"_ZNSt8ios_base14_Callback_list16_M_add_referenceEv", metadata !5, i32 474, metadata !92, i1 false, i1 false, i32 0, i32 0, null, i32 256, i1 false, null, null, i32 0, metadata !89, i32 474} ; [ DW_TAG_subprogram ]
!92 = metadata !{i32 786453, i32 0, metadata !"", i32 0, i32 0, i64 0, i64 0, i64 0, i32 0, null, metadata !93, i32 0, i32 0} ; [ DW_TAG_subroutine_type ]
!93 = metadata !{null, metadata !88}
!94 = metadata !{i32 786478, i32 0, metadata !73, metadata !"_M_remove_reference", metadata !"_M_remove_reference", metadata !"_ZNSt8ios_base14_Callback_list19_M_remove_referenceEv", metadata !5, i32 478, metadata !95, i1 false, i1 false, i32 0, i32 0, null, i32 256, i1 false, null, null, i32 0, metadata !89, i32 478} ; [ DW_TAG_subprogram ]
!95 = metadata !{i32 786453, i32 0, metadata !"", i32 0, i32 0, i64 0, i64 0, i64 0, i32 0, null, metadata !96, i32 0, i32 0} ; [ DW_TAG_subroutine_type ]
!96 = metadata !{metadata !56, metadata !88}
!97 = metadata !{i32 786445, metadata !49, metadata !"_M_word_zero", metadata !5, i32 508, i64 128, i64 64, i64 384, i32 2, metadata !98} ; [ DW_TAG_member ]
!98 = metadata !{i32 786434, metadata !49, metadata !"_Words", metadata !5, i32 500, i64 128, i64 64, i32 0, i32 0, null, metadata !99, i32 0, null, null} ; [ DW_TAG_class_type ]
!99 = metadata !{metadata !100, metadata !102, metadata !103}
!100 = metadata !{i32 786445, metadata !98, metadata !"_M_pword", metadata !5, i32 502, i64 64, i64 64, i64 0, i32 0, metadata !101} ; [ DW_TAG_member ]
!101 = metadata !{i32 786447, null, metadata !"", null, i32 0, i64 64, i64 64, i64 0, i32 0, null} ; [ DW_TAG_pointer_type ]
!102 = metadata !{i32 786445, metadata !98, metadata !"_M_iword", metadata !5, i32 503, i64 64, i64 64, i64 64, i32 0, metadata !64} ; [ DW_TAG_member ]
!103 = metadata !{i32 786478, i32 0, metadata !98, metadata !"_Words", metadata !"_Words", metadata !"", metadata !5, i32 504, metadata !104, i1 false, i1 false, i32 0, i32 0, null, i32 256, i1 false, null, null, i32 0, metadata !89, i32 504} ; [ DW_TAG_subprogram ]
!104 = metadata !{i32 786453, i32 0, metadata !"", i32 0, i32 0, i64 0, i64 0, i64 0, i32 0, null, metadata !105, i32 0, i32 0} ; [ DW_TAG_subroutine_type ]
!105 = metadata !{null, metadata !106}
!106 = metadata !{i32 786447, i32 0, metadata !"", i32 0, i32 0, i64 64, i64 64, i64 0, i32 64, metadata !98} ; [ DW_TAG_pointer_type ]
!107 = metadata !{i32 786445, metadata !49, metadata !"_M_local_word", metadata !5, i32 513, i64 1024, i64 64, i64 512, i32 2, metadata !108} ; [ DW_TAG_member ]
!108 = metadata !{i32 786433, null, metadata !"", null, i32 0, i64 1024, i64 64, i32 0, i32 0, metadata !98, metadata !109, i32 0, i32 0} ; [ DW_TAG_array_type ]
!109 = metadata !{metadata !110}
!110 = metadata !{i32 786465, i64 0, i64 7}       ; [ DW_TAG_subrange_type ]
!111 = metadata !{i32 786445, metadata !49, metadata !"_M_word_size", metadata !5, i32 516, i64 32, i64 32, i64 1536, i32 2, metadata !56} ; [ DW_TAG_member ]
!112 = metadata !{i32 786445, metadata !49, metadata !"_M_word", metadata !5, i32 517, i64 64, i64 64, i64 1600, i32 2, metadata !113} ; [ DW_TAG_member ]
!113 = metadata !{i32 786447, null, metadata !"", null, i32 0, i64 64, i64 64, i64 0, i32 0, metadata !98} ; [ DW_TAG_pointer_type ]
!114 = metadata !{i32 786445, metadata !49, metadata !"_M_ios_locale", metadata !5, i32 523, i64 64, i64 64, i64 1664, i32 2, metadata !115} ; [ DW_TAG_member ]
!115 = metadata !{i32 786434, metadata !116, metadata !"locale", metadata !117, i32 63, i64 64, i64 64, i32 0, i32 0, null, metadata !118, i32 0, null, null} ; [ DW_TAG_class_type ]
!116 = metadata !{i32 786489, null, metadata !"std", metadata !117, i32 44} ; [ DW_TAG_namespace ]
!117 = metadata !{i32 786473, metadata !"/opt/Xilinx/Vivado/2018.1/lnx64/tools/gcc/lib/gcc/x86_64-unknown-linux-gnu/4.6.3/../../../../include/c++/4.6.3/bits/locale_classes.h", metadata !"/home/andrea/Documenti/vision/Ultrascale/hls/VGA/AXI_STREAM_TO_VGA_RED_255", null} ; [ DW_TAG_file_type ]
!118 = metadata !{metadata !119, metadata !280, metadata !284, metadata !289, metadata !292, metadata !295, metadata !298, metadata !299, metadata !302, metadata !806, metadata !809, metadata !810, metadata !813, metadata !816, metadata !819, metadata !820, metadata !821, metadata !824, metadata !825, metadata !826}
!119 = metadata !{i32 786445, metadata !115, metadata !"_M_impl", metadata !117, i32 280, i64 64, i64 64, i64 0, i32 1, metadata !120} ; [ DW_TAG_member ]
!120 = metadata !{i32 786447, null, metadata !"", null, i32 0, i64 64, i64 64, i64 0, i32 0, metadata !121} ; [ DW_TAG_pointer_type ]
!121 = metadata !{i32 786434, metadata !115, metadata !"_Impl", metadata !117, i32 475, i64 320, i64 64, i32 0, i32 0, null, metadata !122, i32 0, null, null} ; [ DW_TAG_class_type ]
!122 = metadata !{metadata !123, metadata !124, metadata !209, metadata !210, metadata !211, metadata !214, metadata !218, metadata !219, metadata !224, metadata !227, metadata !230, metadata !231, metadata !234, metadata !235, metadata !239, metadata !244, metadata !269, metadata !272, metadata !275, metadata !278, metadata !279}
!123 = metadata !{i32 786445, metadata !121, metadata !"_M_refcount", metadata !117, i32 495, i64 32, i64 32, i64 0, i32 1, metadata !84} ; [ DW_TAG_member ]
!124 = metadata !{i32 786445, metadata !121, metadata !"_M_facets", metadata !117, i32 496, i64 64, i64 64, i64 64, i32 1, metadata !125} ; [ DW_TAG_member ]
!125 = metadata !{i32 786447, null, metadata !"", null, i32 0, i64 64, i64 64, i64 0, i32 0, metadata !126} ; [ DW_TAG_pointer_type ]
!126 = metadata !{i32 786447, null, metadata !"", null, i32 0, i64 64, i64 64, i64 0, i32 0, metadata !127} ; [ DW_TAG_pointer_type ]
!127 = metadata !{i32 786470, null, metadata !"", null, i32 0, i64 0, i64 0, i64 0, i32 0, metadata !128} ; [ DW_TAG_const_type ]
!128 = metadata !{i32 786434, metadata !115, metadata !"facet", metadata !117, i32 338, i64 128, i64 64, i32 0, i32 0, null, metadata !129, i32 0, metadata !128, null} ; [ DW_TAG_class_type ]
!129 = metadata !{metadata !130, metadata !131, metadata !132, metadata !135, metadata !141, metadata !144, metadata !179, metadata !182, metadata !185, metadata !188, metadata !191, metadata !194, metadata !198, metadata !199, metadata !203, metadata !207, metadata !208}
!130 = metadata !{i32 786445, metadata !117, metadata !"_vptr$facet", metadata !117, i32 0, i64 64, i64 0, i64 0, i32 0, metadata !52} ; [ DW_TAG_member ]
!131 = metadata !{i32 786445, metadata !128, metadata !"_M_refcount", metadata !117, i32 344, i64 32, i64 32, i64 64, i32 1, metadata !84} ; [ DW_TAG_member ]
!132 = metadata !{i32 786478, i32 0, metadata !128, metadata !"_S_initialize_once", metadata !"_S_initialize_once", metadata !"_ZNSt6locale5facet18_S_initialize_onceEv", metadata !117, i32 357, metadata !133, i1 false, i1 false, i32 0, i32 0, null, i32 257, i1 false, null, null, i32 0, metadata !89, i32 357} ; [ DW_TAG_subprogram ]
!133 = metadata !{i32 786453, i32 0, metadata !"", i32 0, i32 0, i64 0, i64 0, i64 0, i32 0, null, metadata !134, i32 0, i32 0} ; [ DW_TAG_subroutine_type ]
!134 = metadata !{null}
!135 = metadata !{i32 786478, i32 0, metadata !128, metadata !"facet", metadata !"facet", metadata !"", metadata !117, i32 370, metadata !136, i1 false, i1 false, i32 0, i32 0, null, i32 386, i1 false, null, null, i32 0, metadata !89, i32 370} ; [ DW_TAG_subprogram ]
!136 = metadata !{i32 786453, i32 0, metadata !"", i32 0, i32 0, i64 0, i64 0, i64 0, i32 0, null, metadata !137, i32 0, i32 0} ; [ DW_TAG_subroutine_type ]
!137 = metadata !{null, metadata !138, metadata !139}
!138 = metadata !{i32 786447, i32 0, metadata !"", i32 0, i32 0, i64 64, i64 64, i64 0, i32 64, metadata !128} ; [ DW_TAG_pointer_type ]
!139 = metadata !{i32 786454, metadata !62, metadata !"size_t", metadata !117, i32 155, i64 0, i64 0, i64 0, i32 0, metadata !140} ; [ DW_TAG_typedef ]
!140 = metadata !{i32 786468, null, metadata !"long unsigned int", null, i32 0, i64 64, i64 64, i64 0, i32 0, i32 7} ; [ DW_TAG_base_type ]
!141 = metadata !{i32 786478, i32 0, metadata !128, metadata !"~facet", metadata !"~facet", metadata !"", metadata !117, i32 375, metadata !142, i1 false, i1 false, i32 1, i32 0, metadata !128, i32 258, i1 false, null, null, i32 0, metadata !89, i32 375} ; [ DW_TAG_subprogram ]
!142 = metadata !{i32 786453, i32 0, metadata !"", i32 0, i32 0, i64 0, i64 0, i64 0, i32 0, null, metadata !143, i32 0, i32 0} ; [ DW_TAG_subroutine_type ]
!143 = metadata !{null, metadata !138}
!144 = metadata !{i32 786478, i32 0, metadata !128, metadata !"_S_create_c_locale", metadata !"_S_create_c_locale", metadata !"_ZNSt6locale5facet18_S_create_c_localeERP15__locale_structPKcS2_", metadata !117, i32 378, metadata !145, i1 false, i1 false, i32 0, i32 0, null, i32 258, i1 false, null, null, i32 0, metadata !89, i32 378} ; [ DW_TAG_subprogram ]
!145 = metadata !{i32 786453, i32 0, metadata !"", i32 0, i32 0, i64 0, i64 0, i64 0, i32 0, null, metadata !146, i32 0, i32 0} ; [ DW_TAG_subroutine_type ]
!146 = metadata !{null, metadata !147, metadata !172, metadata !148}
!147 = metadata !{i32 786448, null, null, null, i32 0, i64 0, i64 0, i64 0, i32 0, metadata !148} ; [ DW_TAG_reference_type ]
!148 = metadata !{i32 786454, metadata !149, metadata !"__c_locale", metadata !117, i32 62, i64 0, i64 0, i64 0, i32 0, metadata !151} ; [ DW_TAG_typedef ]
!149 = metadata !{i32 786489, null, metadata !"std", metadata !150, i32 58} ; [ DW_TAG_namespace ]
!150 = metadata !{i32 786473, metadata !"/opt/Xilinx/Vivado/2018.1/lnx64/tools/gcc/lib/gcc/x86_64-unknown-linux-gnu/4.6.3/../../../../include/c++/4.6.3/x86_64-unknown-linux-gnu/bits/c++locale.h", metadata !"/home/andrea/Documenti/vision/Ultrascale/hls/VGA/AXI_STREAM_TO_VGA_RED_255", null} ; [ DW_TAG_file_type ]
!151 = metadata !{i32 786454, null, metadata !"__locale_t", metadata !117, i32 39, i64 0, i64 0, i64 0, i32 0, metadata !152} ; [ DW_TAG_typedef ]
!152 = metadata !{i32 786447, null, metadata !"", null, i32 0, i64 64, i64 64, i64 0, i32 0, metadata !153} ; [ DW_TAG_pointer_type ]
!153 = metadata !{i32 786434, null, metadata !"__locale_struct", metadata !154, i32 27, i64 1856, i64 64, i32 0, i32 0, null, metadata !155, i32 0, null, null} ; [ DW_TAG_class_type ]
!154 = metadata !{i32 786473, metadata !"/usr/include/xlocale.h", metadata !"/home/andrea/Documenti/vision/Ultrascale/hls/VGA/AXI_STREAM_TO_VGA_RED_255", null} ; [ DW_TAG_file_type ]
!155 = metadata !{metadata !156, metadata !162, metadata !166, metadata !169, metadata !170, metadata !175}
!156 = metadata !{i32 786445, metadata !153, metadata !"__locales", metadata !154, i32 30, i64 832, i64 64, i64 0, i32 0, metadata !157} ; [ DW_TAG_member ]
!157 = metadata !{i32 786433, null, metadata !"", null, i32 0, i64 832, i64 64, i32 0, i32 0, metadata !158, metadata !160, i32 0, i32 0} ; [ DW_TAG_array_type ]
!158 = metadata !{i32 786447, null, metadata !"", null, i32 0, i64 64, i64 64, i64 0, i32 0, metadata !159} ; [ DW_TAG_pointer_type ]
!159 = metadata !{i32 786434, null, metadata !"__locale_data", metadata !154, i32 30, i32 0, i32 0, i32 0, i32 4, null, null, i32 0} ; [ DW_TAG_class_type ]
!160 = metadata !{metadata !161}
!161 = metadata !{i32 786465, i64 0, i64 12}      ; [ DW_TAG_subrange_type ]
!162 = metadata !{i32 786445, metadata !153, metadata !"__ctype_b", metadata !154, i32 33, i64 64, i64 64, i64 832, i32 0, metadata !163} ; [ DW_TAG_member ]
!163 = metadata !{i32 786447, null, metadata !"", null, i32 0, i64 64, i64 64, i64 0, i32 0, metadata !164} ; [ DW_TAG_pointer_type ]
!164 = metadata !{i32 786470, null, metadata !"", null, i32 0, i64 0, i64 0, i64 0, i32 0, metadata !165} ; [ DW_TAG_const_type ]
!165 = metadata !{i32 786468, null, metadata !"unsigned short", null, i32 0, i64 16, i64 16, i64 0, i32 0, i32 7} ; [ DW_TAG_base_type ]
!166 = metadata !{i32 786445, metadata !153, metadata !"__ctype_tolower", metadata !154, i32 34, i64 64, i64 64, i64 896, i32 0, metadata !167} ; [ DW_TAG_member ]
!167 = metadata !{i32 786447, null, metadata !"", null, i32 0, i64 64, i64 64, i64 0, i32 0, metadata !168} ; [ DW_TAG_pointer_type ]
!168 = metadata !{i32 786470, null, metadata !"", null, i32 0, i64 0, i64 0, i64 0, i32 0, metadata !56} ; [ DW_TAG_const_type ]
!169 = metadata !{i32 786445, metadata !153, metadata !"__ctype_toupper", metadata !154, i32 35, i64 64, i64 64, i64 960, i32 0, metadata !167} ; [ DW_TAG_member ]
!170 = metadata !{i32 786445, metadata !153, metadata !"__names", metadata !154, i32 38, i64 832, i64 64, i64 1024, i32 0, metadata !171} ; [ DW_TAG_member ]
!171 = metadata !{i32 786433, null, metadata !"", null, i32 0, i64 832, i64 64, i32 0, i32 0, metadata !172, metadata !160, i32 0, i32 0} ; [ DW_TAG_array_type ]
!172 = metadata !{i32 786447, null, metadata !"", null, i32 0, i64 64, i64 64, i64 0, i32 0, metadata !173} ; [ DW_TAG_pointer_type ]
!173 = metadata !{i32 786470, null, metadata !"", null, i32 0, i64 0, i64 0, i64 0, i32 0, metadata !174} ; [ DW_TAG_const_type ]
!174 = metadata !{i32 786468, null, metadata !"char", null, i32 0, i64 8, i64 8, i64 0, i32 0, i32 6} ; [ DW_TAG_base_type ]
!175 = metadata !{i32 786478, i32 0, metadata !153, metadata !"__locale_struct", metadata !"__locale_struct", metadata !"", metadata !154, i32 41, metadata !176, i1 false, i1 false, i32 0, i32 0, null, i32 256, i1 false, null, null, i32 0, metadata !89, i32 41} ; [ DW_TAG_subprogram ]
!176 = metadata !{i32 786453, i32 0, metadata !"", i32 0, i32 0, i64 0, i64 0, i64 0, i32 0, null, metadata !177, i32 0, i32 0} ; [ DW_TAG_subroutine_type ]
!177 = metadata !{null, metadata !178}
!178 = metadata !{i32 786447, i32 0, metadata !"", i32 0, i32 0, i64 64, i64 64, i64 0, i32 64, metadata !153} ; [ DW_TAG_pointer_type ]
!179 = metadata !{i32 786478, i32 0, metadata !128, metadata !"_S_clone_c_locale", metadata !"_S_clone_c_locale", metadata !"_ZNSt6locale5facet17_S_clone_c_localeERP15__locale_struct", metadata !117, i32 382, metadata !180, i1 false, i1 false, i32 0, i32 0, null, i32 258, i1 false, null, null, i32 0, metadata !89, i32 382} ; [ DW_TAG_subprogram ]
!180 = metadata !{i32 786453, i32 0, metadata !"", i32 0, i32 0, i64 0, i64 0, i64 0, i32 0, null, metadata !181, i32 0, i32 0} ; [ DW_TAG_subroutine_type ]
!181 = metadata !{metadata !148, metadata !147}
!182 = metadata !{i32 786478, i32 0, metadata !128, metadata !"_S_destroy_c_locale", metadata !"_S_destroy_c_locale", metadata !"_ZNSt6locale5facet19_S_destroy_c_localeERP15__locale_struct", metadata !117, i32 385, metadata !183, i1 false, i1 false, i32 0, i32 0, null, i32 258, i1 false, null, null, i32 0, metadata !89, i32 385} ; [ DW_TAG_subprogram ]
!183 = metadata !{i32 786453, i32 0, metadata !"", i32 0, i32 0, i64 0, i64 0, i64 0, i32 0, null, metadata !184, i32 0, i32 0} ; [ DW_TAG_subroutine_type ]
!184 = metadata !{null, metadata !147}
!185 = metadata !{i32 786478, i32 0, metadata !128, metadata !"_S_lc_ctype_c_locale", metadata !"_S_lc_ctype_c_locale", metadata !"_ZNSt6locale5facet20_S_lc_ctype_c_localeEP15__locale_structPKc", metadata !117, i32 388, metadata !186, i1 false, i1 false, i32 0, i32 0, null, i32 258, i1 false, null, null, i32 0, metadata !89, i32 388} ; [ DW_TAG_subprogram ]
!186 = metadata !{i32 786453, i32 0, metadata !"", i32 0, i32 0, i64 0, i64 0, i64 0, i32 0, null, metadata !187, i32 0, i32 0} ; [ DW_TAG_subroutine_type ]
!187 = metadata !{metadata !148, metadata !148, metadata !172}
!188 = metadata !{i32 786478, i32 0, metadata !128, metadata !"_S_get_c_locale", metadata !"_S_get_c_locale", metadata !"_ZNSt6locale5facet15_S_get_c_localeEv", metadata !117, i32 393, metadata !189, i1 false, i1 false, i32 0, i32 0, null, i32 258, i1 false, null, null, i32 0, metadata !89, i32 393} ; [ DW_TAG_subprogram ]
!189 = metadata !{i32 786453, i32 0, metadata !"", i32 0, i32 0, i64 0, i64 0, i64 0, i32 0, null, metadata !190, i32 0, i32 0} ; [ DW_TAG_subroutine_type ]
!190 = metadata !{metadata !148}
!191 = metadata !{i32 786478, i32 0, metadata !128, metadata !"_S_get_c_name", metadata !"_S_get_c_name", metadata !"_ZNSt6locale5facet13_S_get_c_nameEv", metadata !117, i32 396, metadata !192, i1 false, i1 false, i32 0, i32 0, null, i32 258, i1 false, null, null, i32 0, metadata !89, i32 396} ; [ DW_TAG_subprogram ]
!192 = metadata !{i32 786453, i32 0, metadata !"", i32 0, i32 0, i64 0, i64 0, i64 0, i32 0, null, metadata !193, i32 0, i32 0} ; [ DW_TAG_subroutine_type ]
!193 = metadata !{metadata !172}
!194 = metadata !{i32 786478, i32 0, metadata !128, metadata !"_M_add_reference", metadata !"_M_add_reference", metadata !"_ZNKSt6locale5facet16_M_add_referenceEv", metadata !117, i32 400, metadata !195, i1 false, i1 false, i32 0, i32 0, null, i32 257, i1 false, null, null, i32 0, metadata !89, i32 400} ; [ DW_TAG_subprogram ]
!195 = metadata !{i32 786453, i32 0, metadata !"", i32 0, i32 0, i64 0, i64 0, i64 0, i32 0, null, metadata !196, i32 0, i32 0} ; [ DW_TAG_subroutine_type ]
!196 = metadata !{null, metadata !197}
!197 = metadata !{i32 786447, i32 0, metadata !"", i32 0, i32 0, i64 64, i64 64, i64 0, i32 64, metadata !127} ; [ DW_TAG_pointer_type ]
!198 = metadata !{i32 786478, i32 0, metadata !128, metadata !"_M_remove_reference", metadata !"_M_remove_reference", metadata !"_ZNKSt6locale5facet19_M_remove_referenceEv", metadata !117, i32 404, metadata !195, i1 false, i1 false, i32 0, i32 0, null, i32 257, i1 false, null, null, i32 0, metadata !89, i32 404} ; [ DW_TAG_subprogram ]
!199 = metadata !{i32 786478, i32 0, metadata !128, metadata !"facet", metadata !"facet", metadata !"", metadata !117, i32 418, metadata !200, i1 false, i1 false, i32 0, i32 0, null, i32 257, i1 false, null, null, i32 0, metadata !89, i32 418} ; [ DW_TAG_subprogram ]
!200 = metadata !{i32 786453, i32 0, metadata !"", i32 0, i32 0, i64 0, i64 0, i64 0, i32 0, null, metadata !201, i32 0, i32 0} ; [ DW_TAG_subroutine_type ]
!201 = metadata !{null, metadata !138, metadata !202}
!202 = metadata !{i32 786448, null, null, null, i32 0, i64 0, i64 0, i64 0, i32 0, metadata !127} ; [ DW_TAG_reference_type ]
!203 = metadata !{i32 786478, i32 0, metadata !128, metadata !"operator=", metadata !"operator=", metadata !"_ZNSt6locale5facetaSERKS0_", metadata !117, i32 421, metadata !204, i1 false, i1 false, i32 0, i32 0, null, i32 257, i1 false, null, null, i32 0, metadata !89, i32 421} ; [ DW_TAG_subprogram ]
!204 = metadata !{i32 786453, i32 0, metadata !"", i32 0, i32 0, i64 0, i64 0, i64 0, i32 0, null, metadata !205, i32 0, i32 0} ; [ DW_TAG_subroutine_type ]
!205 = metadata !{metadata !206, metadata !138, metadata !202}
!206 = metadata !{i32 786448, null, null, null, i32 0, i64 0, i64 0, i64 0, i32 0, metadata !128} ; [ DW_TAG_reference_type ]
!207 = metadata !{i32 786474, metadata !128, null, metadata !117, i32 0, i64 0, i64 0, i64 0, i32 0, metadata !121} ; [ DW_TAG_friend ]
!208 = metadata !{i32 786474, metadata !128, null, metadata !117, i32 0, i64 0, i64 0, i64 0, i32 0, metadata !115} ; [ DW_TAG_friend ]
!209 = metadata !{i32 786445, metadata !121, metadata !"_M_facets_size", metadata !117, i32 497, i64 64, i64 64, i64 128, i32 1, metadata !139} ; [ DW_TAG_member ]
!210 = metadata !{i32 786445, metadata !121, metadata !"_M_caches", metadata !117, i32 498, i64 64, i64 64, i64 192, i32 1, metadata !125} ; [ DW_TAG_member ]
!211 = metadata !{i32 786445, metadata !121, metadata !"_M_names", metadata !117, i32 499, i64 64, i64 64, i64 256, i32 1, metadata !212} ; [ DW_TAG_member ]
!212 = metadata !{i32 786447, null, metadata !"", null, i32 0, i64 64, i64 64, i64 0, i32 0, metadata !213} ; [ DW_TAG_pointer_type ]
!213 = metadata !{i32 786447, null, metadata !"", null, i32 0, i64 64, i64 64, i64 0, i32 0, metadata !174} ; [ DW_TAG_pointer_type ]
!214 = metadata !{i32 786478, i32 0, metadata !121, metadata !"_M_add_reference", metadata !"_M_add_reference", metadata !"_ZNSt6locale5_Impl16_M_add_referenceEv", metadata !117, i32 509, metadata !215, i1 false, i1 false, i32 0, i32 0, null, i32 257, i1 false, null, null, i32 0, metadata !89, i32 509} ; [ DW_TAG_subprogram ]
!215 = metadata !{i32 786453, i32 0, metadata !"", i32 0, i32 0, i64 0, i64 0, i64 0, i32 0, null, metadata !216, i32 0, i32 0} ; [ DW_TAG_subroutine_type ]
!216 = metadata !{null, metadata !217}
!217 = metadata !{i32 786447, i32 0, metadata !"", i32 0, i32 0, i64 64, i64 64, i64 0, i32 64, metadata !121} ; [ DW_TAG_pointer_type ]
!218 = metadata !{i32 786478, i32 0, metadata !121, metadata !"_M_remove_reference", metadata !"_M_remove_reference", metadata !"_ZNSt6locale5_Impl19_M_remove_referenceEv", metadata !117, i32 513, metadata !215, i1 false, i1 false, i32 0, i32 0, null, i32 257, i1 false, null, null, i32 0, metadata !89, i32 513} ; [ DW_TAG_subprogram ]
!219 = metadata !{i32 786478, i32 0, metadata !121, metadata !"_Impl", metadata !"_Impl", metadata !"", metadata !117, i32 527, metadata !220, i1 false, i1 false, i32 0, i32 0, null, i32 257, i1 false, null, null, i32 0, metadata !89, i32 527} ; [ DW_TAG_subprogram ]
!220 = metadata !{i32 786453, i32 0, metadata !"", i32 0, i32 0, i64 0, i64 0, i64 0, i32 0, null, metadata !221, i32 0, i32 0} ; [ DW_TAG_subroutine_type ]
!221 = metadata !{null, metadata !217, metadata !222, metadata !139}
!222 = metadata !{i32 786448, null, null, null, i32 0, i64 0, i64 0, i64 0, i32 0, metadata !223} ; [ DW_TAG_reference_type ]
!223 = metadata !{i32 786470, null, metadata !"", null, i32 0, i64 0, i64 0, i64 0, i32 0, metadata !121} ; [ DW_TAG_const_type ]
!224 = metadata !{i32 786478, i32 0, metadata !121, metadata !"_Impl", metadata !"_Impl", metadata !"", metadata !117, i32 528, metadata !225, i1 false, i1 false, i32 0, i32 0, null, i32 257, i1 false, null, null, i32 0, metadata !89, i32 528} ; [ DW_TAG_subprogram ]
!225 = metadata !{i32 786453, i32 0, metadata !"", i32 0, i32 0, i64 0, i64 0, i64 0, i32 0, null, metadata !226, i32 0, i32 0} ; [ DW_TAG_subroutine_type ]
!226 = metadata !{null, metadata !217, metadata !172, metadata !139}
!227 = metadata !{i32 786478, i32 0, metadata !121, metadata !"_Impl", metadata !"_Impl", metadata !"", metadata !117, i32 529, metadata !228, i1 false, i1 false, i32 0, i32 0, null, i32 257, i1 false, null, null, i32 0, metadata !89, i32 529} ; [ DW_TAG_subprogram ]
!228 = metadata !{i32 786453, i32 0, metadata !"", i32 0, i32 0, i64 0, i64 0, i64 0, i32 0, null, metadata !229, i32 0, i32 0} ; [ DW_TAG_subroutine_type ]
!229 = metadata !{null, metadata !217, metadata !139}
!230 = metadata !{i32 786478, i32 0, metadata !121, metadata !"~_Impl", metadata !"~_Impl", metadata !"", metadata !117, i32 531, metadata !215, i1 false, i1 false, i32 0, i32 0, null, i32 257, i1 false, null, null, i32 0, metadata !89, i32 531} ; [ DW_TAG_subprogram ]
!231 = metadata !{i32 786478, i32 0, metadata !121, metadata !"_Impl", metadata !"_Impl", metadata !"", metadata !117, i32 533, metadata !232, i1 false, i1 false, i32 0, i32 0, null, i32 257, i1 false, null, null, i32 0, metadata !89, i32 533} ; [ DW_TAG_subprogram ]
!232 = metadata !{i32 786453, i32 0, metadata !"", i32 0, i32 0, i64 0, i64 0, i64 0, i32 0, null, metadata !233, i32 0, i32 0} ; [ DW_TAG_subroutine_type ]
!233 = metadata !{null, metadata !217, metadata !222}
!234 = metadata !{i32 786478, i32 0, metadata !121, metadata !"operator=", metadata !"operator=", metadata !"_ZNSt6locale5_ImplaSERKS0_", metadata !117, i32 536, metadata !232, i1 false, i1 false, i32 0, i32 0, null, i32 257, i1 false, null, null, i32 0, metadata !89, i32 536} ; [ DW_TAG_subprogram ]
!235 = metadata !{i32 786478, i32 0, metadata !121, metadata !"_M_check_same_name", metadata !"_M_check_same_name", metadata !"_ZNSt6locale5_Impl18_M_check_same_nameEv", metadata !117, i32 539, metadata !236, i1 false, i1 false, i32 0, i32 0, null, i32 257, i1 false, null, null, i32 0, metadata !89, i32 539} ; [ DW_TAG_subprogram ]
!236 = metadata !{i32 786453, i32 0, metadata !"", i32 0, i32 0, i64 0, i64 0, i64 0, i32 0, null, metadata !237, i32 0, i32 0} ; [ DW_TAG_subroutine_type ]
!237 = metadata !{metadata !238, metadata !217}
!238 = metadata !{i32 786468, null, metadata !"bool", null, i32 0, i64 8, i64 8, i64 0, i32 0, i32 2} ; [ DW_TAG_base_type ]
!239 = metadata !{i32 786478, i32 0, metadata !121, metadata !"_M_replace_categories", metadata !"_M_replace_categories", metadata !"_ZNSt6locale5_Impl21_M_replace_categoriesEPKS0_i", metadata !117, i32 550, metadata !240, i1 false, i1 false, i32 0, i32 0, null, i32 257, i1 false, null, null, i32 0, metadata !89, i32 550} ; [ DW_TAG_subprogram ]
!240 = metadata !{i32 786453, i32 0, metadata !"", i32 0, i32 0, i64 0, i64 0, i64 0, i32 0, null, metadata !241, i32 0, i32 0} ; [ DW_TAG_subroutine_type ]
!241 = metadata !{null, metadata !217, metadata !242, metadata !243}
!242 = metadata !{i32 786447, null, metadata !"", null, i32 0, i64 64, i64 64, i64 0, i32 0, metadata !223} ; [ DW_TAG_pointer_type ]
!243 = metadata !{i32 786454, metadata !115, metadata !"category", metadata !117, i32 68, i64 0, i64 0, i64 0, i32 0, metadata !56} ; [ DW_TAG_typedef ]
!244 = metadata !{i32 786478, i32 0, metadata !121, metadata !"_M_replace_category", metadata !"_M_replace_category", metadata !"_ZNSt6locale5_Impl19_M_replace_categoryEPKS0_PKPKNS_2idE", metadata !117, i32 553, metadata !245, i1 false, i1 false, i32 0, i32 0, null, i32 257, i1 false, null, null, i32 0, metadata !89, i32 553} ; [ DW_TAG_subprogram ]
!245 = metadata !{i32 786453, i32 0, metadata !"", i32 0, i32 0, i64 0, i64 0, i64 0, i32 0, null, metadata !246, i32 0, i32 0} ; [ DW_TAG_subroutine_type ]
!246 = metadata !{null, metadata !217, metadata !242, metadata !247}
!247 = metadata !{i32 786447, null, metadata !"", null, i32 0, i64 64, i64 64, i64 0, i32 0, metadata !248} ; [ DW_TAG_pointer_type ]
!248 = metadata !{i32 786470, null, metadata !"", null, i32 0, i64 0, i64 0, i64 0, i32 0, metadata !249} ; [ DW_TAG_const_type ]
!249 = metadata !{i32 786447, null, metadata !"", null, i32 0, i64 64, i64 64, i64 0, i32 0, metadata !250} ; [ DW_TAG_pointer_type ]
!250 = metadata !{i32 786470, null, metadata !"", null, i32 0, i64 0, i64 0, i64 0, i32 0, metadata !251} ; [ DW_TAG_const_type ]
!251 = metadata !{i32 786434, metadata !115, metadata !"id", metadata !117, i32 436, i64 64, i64 64, i32 0, i32 0, null, metadata !252, i32 0, null, null} ; [ DW_TAG_class_type ]
!252 = metadata !{metadata !253, metadata !254, metadata !259, metadata !260, metadata !263, metadata !267, metadata !268}
!253 = metadata !{i32 786445, metadata !251, metadata !"_M_index", metadata !117, i32 453, i64 64, i64 64, i64 0, i32 1, metadata !139} ; [ DW_TAG_member ]
!254 = metadata !{i32 786478, i32 0, metadata !251, metadata !"operator=", metadata !"operator=", metadata !"_ZNSt6locale2idaSERKS0_", metadata !117, i32 459, metadata !255, i1 false, i1 false, i32 0, i32 0, null, i32 257, i1 false, null, null, i32 0, metadata !89, i32 459} ; [ DW_TAG_subprogram ]
!255 = metadata !{i32 786453, i32 0, metadata !"", i32 0, i32 0, i64 0, i64 0, i64 0, i32 0, null, metadata !256, i32 0, i32 0} ; [ DW_TAG_subroutine_type ]
!256 = metadata !{null, metadata !257, metadata !258}
!257 = metadata !{i32 786447, i32 0, metadata !"", i32 0, i32 0, i64 64, i64 64, i64 0, i32 64, metadata !251} ; [ DW_TAG_pointer_type ]
!258 = metadata !{i32 786448, null, null, null, i32 0, i64 0, i64 0, i64 0, i32 0, metadata !250} ; [ DW_TAG_reference_type ]
!259 = metadata !{i32 786478, i32 0, metadata !251, metadata !"id", metadata !"id", metadata !"", metadata !117, i32 461, metadata !255, i1 false, i1 false, i32 0, i32 0, null, i32 257, i1 false, null, null, i32 0, metadata !89, i32 461} ; [ DW_TAG_subprogram ]
!260 = metadata !{i32 786478, i32 0, metadata !251, metadata !"id", metadata !"id", metadata !"", metadata !117, i32 467, metadata !261, i1 false, i1 false, i32 0, i32 0, null, i32 256, i1 false, null, null, i32 0, metadata !89, i32 467} ; [ DW_TAG_subprogram ]
!261 = metadata !{i32 786453, i32 0, metadata !"", i32 0, i32 0, i64 0, i64 0, i64 0, i32 0, null, metadata !262, i32 0, i32 0} ; [ DW_TAG_subroutine_type ]
!262 = metadata !{null, metadata !257}
!263 = metadata !{i32 786478, i32 0, metadata !251, metadata !"_M_id", metadata !"_M_id", metadata !"_ZNKSt6locale2id5_M_idEv", metadata !117, i32 470, metadata !264, i1 false, i1 false, i32 0, i32 0, null, i32 256, i1 false, null, null, i32 0, metadata !89, i32 470} ; [ DW_TAG_subprogram ]
!264 = metadata !{i32 786453, i32 0, metadata !"", i32 0, i32 0, i64 0, i64 0, i64 0, i32 0, null, metadata !265, i32 0, i32 0} ; [ DW_TAG_subroutine_type ]
!265 = metadata !{metadata !139, metadata !266}
!266 = metadata !{i32 786447, i32 0, metadata !"", i32 0, i32 0, i64 64, i64 64, i64 0, i32 64, metadata !250} ; [ DW_TAG_pointer_type ]
!267 = metadata !{i32 786474, metadata !251, null, metadata !117, i32 0, i64 0, i64 0, i64 0, i32 0, metadata !121} ; [ DW_TAG_friend ]
!268 = metadata !{i32 786474, metadata !251, null, metadata !117, i32 0, i64 0, i64 0, i64 0, i32 0, metadata !115} ; [ DW_TAG_friend ]
!269 = metadata !{i32 786478, i32 0, metadata !121, metadata !"_M_replace_facet", metadata !"_M_replace_facet", metadata !"_ZNSt6locale5_Impl16_M_replace_facetEPKS0_PKNS_2idE", metadata !117, i32 556, metadata !270, i1 false, i1 false, i32 0, i32 0, null, i32 257, i1 false, null, null, i32 0, metadata !89, i32 556} ; [ DW_TAG_subprogram ]
!270 = metadata !{i32 786453, i32 0, metadata !"", i32 0, i32 0, i64 0, i64 0, i64 0, i32 0, null, metadata !271, i32 0, i32 0} ; [ DW_TAG_subroutine_type ]
!271 = metadata !{null, metadata !217, metadata !242, metadata !249}
!272 = metadata !{i32 786478, i32 0, metadata !121, metadata !"_M_install_facet", metadata !"_M_install_facet", metadata !"_ZNSt6locale5_Impl16_M_install_facetEPKNS_2idEPKNS_5facetE", metadata !117, i32 559, metadata !273, i1 false, i1 false, i32 0, i32 0, null, i32 257, i1 false, null, null, i32 0, metadata !89, i32 559} ; [ DW_TAG_subprogram ]
!273 = metadata !{i32 786453, i32 0, metadata !"", i32 0, i32 0, i64 0, i64 0, i64 0, i32 0, null, metadata !274, i32 0, i32 0} ; [ DW_TAG_subroutine_type ]
!274 = metadata !{null, metadata !217, metadata !249, metadata !126}
!275 = metadata !{i32 786478, i32 0, metadata !121, metadata !"_M_install_cache", metadata !"_M_install_cache", metadata !"_ZNSt6locale5_Impl16_M_install_cacheEPKNS_5facetEm", metadata !117, i32 567, metadata !276, i1 false, i1 false, i32 0, i32 0, null, i32 257, i1 false, null, null, i32 0, metadata !89, i32 567} ; [ DW_TAG_subprogram ]
!276 = metadata !{i32 786453, i32 0, metadata !"", i32 0, i32 0, i64 0, i64 0, i64 0, i32 0, null, metadata !277, i32 0, i32 0} ; [ DW_TAG_subroutine_type ]
!277 = metadata !{null, metadata !217, metadata !126, metadata !139}
!278 = metadata !{i32 786474, metadata !121, null, metadata !117, i32 0, i64 0, i64 0, i64 0, i32 0, metadata !128} ; [ DW_TAG_friend ]
!279 = metadata !{i32 786474, metadata !121, null, metadata !117, i32 0, i64 0, i64 0, i64 0, i32 0, metadata !115} ; [ DW_TAG_friend ]
!280 = metadata !{i32 786478, i32 0, metadata !115, metadata !"locale", metadata !"locale", metadata !"", metadata !117, i32 118, metadata !281, i1 false, i1 false, i32 0, i32 0, null, i32 256, i1 false, null, null, i32 0, metadata !89, i32 118} ; [ DW_TAG_subprogram ]
!281 = metadata !{i32 786453, i32 0, metadata !"", i32 0, i32 0, i64 0, i64 0, i64 0, i32 0, null, metadata !282, i32 0, i32 0} ; [ DW_TAG_subroutine_type ]
!282 = metadata !{null, metadata !283}
!283 = metadata !{i32 786447, i32 0, metadata !"", i32 0, i32 0, i64 64, i64 64, i64 0, i32 64, metadata !115} ; [ DW_TAG_pointer_type ]
!284 = metadata !{i32 786478, i32 0, metadata !115, metadata !"locale", metadata !"locale", metadata !"", metadata !117, i32 127, metadata !285, i1 false, i1 false, i32 0, i32 0, null, i32 256, i1 false, null, null, i32 0, metadata !89, i32 127} ; [ DW_TAG_subprogram ]
!285 = metadata !{i32 786453, i32 0, metadata !"", i32 0, i32 0, i64 0, i64 0, i64 0, i32 0, null, metadata !286, i32 0, i32 0} ; [ DW_TAG_subroutine_type ]
!286 = metadata !{null, metadata !283, metadata !287}
!287 = metadata !{i32 786448, null, null, null, i32 0, i64 0, i64 0, i64 0, i32 0, metadata !288} ; [ DW_TAG_reference_type ]
!288 = metadata !{i32 786470, null, metadata !"", null, i32 0, i64 0, i64 0, i64 0, i32 0, metadata !115} ; [ DW_TAG_const_type ]
!289 = metadata !{i32 786478, i32 0, metadata !115, metadata !"locale", metadata !"locale", metadata !"", metadata !117, i32 138, metadata !290, i1 false, i1 false, i32 0, i32 0, null, i32 384, i1 false, null, null, i32 0, metadata !89, i32 138} ; [ DW_TAG_subprogram ]
!290 = metadata !{i32 786453, i32 0, metadata !"", i32 0, i32 0, i64 0, i64 0, i64 0, i32 0, null, metadata !291, i32 0, i32 0} ; [ DW_TAG_subroutine_type ]
!291 = metadata !{null, metadata !283, metadata !172}
!292 = metadata !{i32 786478, i32 0, metadata !115, metadata !"locale", metadata !"locale", metadata !"", metadata !117, i32 152, metadata !293, i1 false, i1 false, i32 0, i32 0, null, i32 256, i1 false, null, null, i32 0, metadata !89, i32 152} ; [ DW_TAG_subprogram ]
!293 = metadata !{i32 786453, i32 0, metadata !"", i32 0, i32 0, i64 0, i64 0, i64 0, i32 0, null, metadata !294, i32 0, i32 0} ; [ DW_TAG_subroutine_type ]
!294 = metadata !{null, metadata !283, metadata !287, metadata !172, metadata !243}
!295 = metadata !{i32 786478, i32 0, metadata !115, metadata !"locale", metadata !"locale", metadata !"", metadata !117, i32 165, metadata !296, i1 false, i1 false, i32 0, i32 0, null, i32 256, i1 false, null, null, i32 0, metadata !89, i32 165} ; [ DW_TAG_subprogram ]
!296 = metadata !{i32 786453, i32 0, metadata !"", i32 0, i32 0, i64 0, i64 0, i64 0, i32 0, null, metadata !297, i32 0, i32 0} ; [ DW_TAG_subroutine_type ]
!297 = metadata !{null, metadata !283, metadata !287, metadata !287, metadata !243}
!298 = metadata !{i32 786478, i32 0, metadata !115, metadata !"~locale", metadata !"~locale", metadata !"", metadata !117, i32 181, metadata !281, i1 false, i1 false, i32 0, i32 0, null, i32 256, i1 false, null, null, i32 0, metadata !89, i32 181} ; [ DW_TAG_subprogram ]
!299 = metadata !{i32 786478, i32 0, metadata !115, metadata !"operator=", metadata !"operator=", metadata !"_ZNSt6localeaSERKS_", metadata !117, i32 192, metadata !300, i1 false, i1 false, i32 0, i32 0, null, i32 256, i1 false, null, null, i32 0, metadata !89, i32 192} ; [ DW_TAG_subprogram ]
!300 = metadata !{i32 786453, i32 0, metadata !"", i32 0, i32 0, i64 0, i64 0, i64 0, i32 0, null, metadata !301, i32 0, i32 0} ; [ DW_TAG_subroutine_type ]
!301 = metadata !{metadata !287, metadata !283, metadata !287}
!302 = metadata !{i32 786478, i32 0, metadata !115, metadata !"name", metadata !"name", metadata !"_ZNKSt6locale4nameEv", metadata !117, i32 216, metadata !303, i1 false, i1 false, i32 0, i32 0, null, i32 256, i1 false, null, null, i32 0, metadata !89, i32 216} ; [ DW_TAG_subprogram ]
!303 = metadata !{i32 786453, i32 0, metadata !"", i32 0, i32 0, i64 0, i64 0, i64 0, i32 0, null, metadata !304, i32 0, i32 0} ; [ DW_TAG_subroutine_type ]
!304 = metadata !{metadata !305, metadata !805}
!305 = metadata !{i32 786454, metadata !306, metadata !"string", metadata !117, i32 64, i64 0, i64 0, i64 0, i32 0, metadata !308} ; [ DW_TAG_typedef ]
!306 = metadata !{i32 786489, null, metadata !"std", metadata !307, i32 42} ; [ DW_TAG_namespace ]
!307 = metadata !{i32 786473, metadata !"/opt/Xilinx/Vivado/2018.1/lnx64/tools/gcc/lib/gcc/x86_64-unknown-linux-gnu/4.6.3/../../../../include/c++/4.6.3/bits/stringfwd.h", metadata !"/home/andrea/Documenti/vision/Ultrascale/hls/VGA/AXI_STREAM_TO_VGA_RED_255", null} ; [ DW_TAG_file_type ]
!308 = metadata !{i32 786434, metadata !306, metadata !"basic_string<char>", metadata !309, i32 1133, i64 64, i64 64, i32 0, i32 0, null, metadata !310, i32 0, null, metadata !749} ; [ DW_TAG_class_type ]
!309 = metadata !{i32 786473, metadata !"/opt/Xilinx/Vivado/2018.1/lnx64/tools/gcc/lib/gcc/x86_64-unknown-linux-gnu/4.6.3/../../../../include/c++/4.6.3/bits/basic_string.tcc", metadata !"/home/andrea/Documenti/vision/Ultrascale/hls/VGA/AXI_STREAM_TO_VGA_RED_255", null} ; [ DW_TAG_file_type ]
!310 = metadata !{metadata !311, metadata !384, metadata !389, metadata !393, metadata !442, metadata !451, metadata !452, metadata !455, metadata !458, metadata !461, metadata !464, metadata !467, metadata !470, metadata !471, metadata !474, metadata !477, metadata !484, metadata !487, metadata !490, metadata !493, metadata !496, metadata !497, metadata !498, metadata !499, metadata !502, metadata !506, metadata !509, metadata !512, metadata !515, metadata !518, metadata !521, metadata !522, metadata !526, metadata !529, metadata !532, metadata !535, metadata !538, metadata !539, metadata !540, metadata !547, metadata !554, metadata !555, metadata !556, metadata !559, metadata !560, metadata !561, metadata !564, metadata !567, metadata !568, metadata !569, metadata !570, metadata !573, metadata !578, metadata !583, metadata !584, metadata !585, metadata !586, metadata !587, metadata !588, metadata !589, metadata !592, metadata !595, metadata !596, metadata !599, metadata !602, metadata !603, metadata !604, metadata !605, metadata !606, metadata !607, metadata !610, metadata !613, metadata !616, metadata !619, metadata !622, metadata !625, metadata !628, metadata !631, metadata !634, metadata !637, metadata !640, metadata !643, metadata !646, metadata !649, metadata !652, metadata !655, metadata !658, metadata !661, metadata !664, metadata !667, metadata !670, metadata !673, metadata !676, metadata !677, metadata !678, metadata !681, metadata !682, metadata !685, metadata !688, metadata !691, metadata !692, metadata !696, metadata !699, metadata !702, metadata !705, metadata !708, metadata !709, metadata !710, metadata !711, metadata !712, metadata !713, metadata !714, metadata !715, metadata !716, metadata !717, metadata !718, metadata !719, metadata !720, metadata !721, metadata !722, metadata !723, metadata !724, metadata !725, metadata !726, metadata !727, metadata !728, metadata !731, metadata !734, metadata !737, metadata !740, metadata !743, metadata !746}
!311 = metadata !{i32 786445, metadata !308, metadata !"_M_dataplus", metadata !312, i32 283, i64 64, i64 64, i64 0, i32 1, metadata !313} ; [ DW_TAG_member ]
!312 = metadata !{i32 786473, metadata !"/opt/Xilinx/Vivado/2018.1/lnx64/tools/gcc/lib/gcc/x86_64-unknown-linux-gnu/4.6.3/../../../../include/c++/4.6.3/bits/basic_string.h", metadata !"/home/andrea/Documenti/vision/Ultrascale/hls/VGA/AXI_STREAM_TO_VGA_RED_255", null} ; [ DW_TAG_file_type ]
!313 = metadata !{i32 786434, metadata !308, metadata !"_Alloc_hider", metadata !312, i32 266, i64 64, i64 64, i32 0, i32 0, null, metadata !314, i32 0, null, null} ; [ DW_TAG_class_type ]
!314 = metadata !{metadata !315, metadata !379, metadata !380}
!315 = metadata !{i32 786460, metadata !313, null, metadata !312, i32 0, i64 0, i64 0, i64 0, i32 0, metadata !316} ; [ DW_TAG_inheritance ]
!316 = metadata !{i32 786434, metadata !306, metadata !"allocator<char>", metadata !317, i32 143, i64 8, i64 8, i32 0, i32 0, null, metadata !318, i32 0, null, metadata !377} ; [ DW_TAG_class_type ]
!317 = metadata !{i32 786473, metadata !"/opt/Xilinx/Vivado/2018.1/lnx64/tools/gcc/lib/gcc/x86_64-unknown-linux-gnu/4.6.3/../../../../include/c++/4.6.3/bits/allocator.h", metadata !"/home/andrea/Documenti/vision/Ultrascale/hls/VGA/AXI_STREAM_TO_VGA_RED_255", null} ; [ DW_TAG_file_type ]
!318 = metadata !{metadata !319, metadata !367, metadata !371, metadata !376}
!319 = metadata !{i32 786460, metadata !316, null, metadata !317, i32 0, i64 0, i64 0, i64 0, i32 0, metadata !320} ; [ DW_TAG_inheritance ]
!320 = metadata !{i32 786434, metadata !321, metadata !"new_allocator<char>", metadata !322, i32 54, i64 8, i64 8, i32 0, i32 0, null, metadata !323, i32 0, null, metadata !365} ; [ DW_TAG_class_type ]
!321 = metadata !{i32 786489, null, metadata !"__gnu_cxx", metadata !322, i32 38} ; [ DW_TAG_namespace ]
!322 = metadata !{i32 786473, metadata !"/opt/Xilinx/Vivado/2018.1/lnx64/tools/gcc/lib/gcc/x86_64-unknown-linux-gnu/4.6.3/../../../../include/c++/4.6.3/ext/new_allocator.h", metadata !"/home/andrea/Documenti/vision/Ultrascale/hls/VGA/AXI_STREAM_TO_VGA_RED_255", null} ; [ DW_TAG_file_type ]
!323 = metadata !{metadata !324, metadata !328, metadata !333, metadata !334, metadata !341, metadata !347, metadata !353, metadata !356, metadata !359, metadata !362}
!324 = metadata !{i32 786478, i32 0, metadata !320, metadata !"new_allocator", metadata !"new_allocator", metadata !"", metadata !322, i32 69, metadata !325, i1 false, i1 false, i32 0, i32 0, null, i32 256, i1 false, null, null, i32 0, metadata !89, i32 69} ; [ DW_TAG_subprogram ]
!325 = metadata !{i32 786453, i32 0, metadata !"", i32 0, i32 0, i64 0, i64 0, i64 0, i32 0, null, metadata !326, i32 0, i32 0} ; [ DW_TAG_subroutine_type ]
!326 = metadata !{null, metadata !327}
!327 = metadata !{i32 786447, i32 0, metadata !"", i32 0, i32 0, i64 64, i64 64, i64 0, i32 64, metadata !320} ; [ DW_TAG_pointer_type ]
!328 = metadata !{i32 786478, i32 0, metadata !320, metadata !"new_allocator", metadata !"new_allocator", metadata !"", metadata !322, i32 71, metadata !329, i1 false, i1 false, i32 0, i32 0, null, i32 256, i1 false, null, null, i32 0, metadata !89, i32 71} ; [ DW_TAG_subprogram ]
!329 = metadata !{i32 786453, i32 0, metadata !"", i32 0, i32 0, i64 0, i64 0, i64 0, i32 0, null, metadata !330, i32 0, i32 0} ; [ DW_TAG_subroutine_type ]
!330 = metadata !{null, metadata !327, metadata !331}
!331 = metadata !{i32 786448, null, null, null, i32 0, i64 0, i64 0, i64 0, i32 0, metadata !332} ; [ DW_TAG_reference_type ]
!332 = metadata !{i32 786470, null, metadata !"", null, i32 0, i64 0, i64 0, i64 0, i32 0, metadata !320} ; [ DW_TAG_const_type ]
!333 = metadata !{i32 786478, i32 0, metadata !320, metadata !"~new_allocator", metadata !"~new_allocator", metadata !"", metadata !322, i32 76, metadata !325, i1 false, i1 false, i32 0, i32 0, null, i32 256, i1 false, null, null, i32 0, metadata !89, i32 76} ; [ DW_TAG_subprogram ]
!334 = metadata !{i32 786478, i32 0, metadata !320, metadata !"address", metadata !"address", metadata !"_ZNK9__gnu_cxx13new_allocatorIcE7addressERc", metadata !322, i32 79, metadata !335, i1 false, i1 false, i32 0, i32 0, null, i32 256, i1 false, null, null, i32 0, metadata !89, i32 79} ; [ DW_TAG_subprogram ]
!335 = metadata !{i32 786453, i32 0, metadata !"", i32 0, i32 0, i64 0, i64 0, i64 0, i32 0, null, metadata !336, i32 0, i32 0} ; [ DW_TAG_subroutine_type ]
!336 = metadata !{metadata !337, metadata !338, metadata !339}
!337 = metadata !{i32 786454, metadata !320, metadata !"pointer", metadata !322, i32 59, i64 0, i64 0, i64 0, i32 0, metadata !213} ; [ DW_TAG_typedef ]
!338 = metadata !{i32 786447, i32 0, metadata !"", i32 0, i32 0, i64 64, i64 64, i64 0, i32 64, metadata !332} ; [ DW_TAG_pointer_type ]
!339 = metadata !{i32 786454, metadata !320, metadata !"reference", metadata !322, i32 61, i64 0, i64 0, i64 0, i32 0, metadata !340} ; [ DW_TAG_typedef ]
!340 = metadata !{i32 786448, null, null, null, i32 0, i64 0, i64 0, i64 0, i32 0, metadata !174} ; [ DW_TAG_reference_type ]
!341 = metadata !{i32 786478, i32 0, metadata !320, metadata !"address", metadata !"address", metadata !"_ZNK9__gnu_cxx13new_allocatorIcE7addressERKc", metadata !322, i32 82, metadata !342, i1 false, i1 false, i32 0, i32 0, null, i32 256, i1 false, null, null, i32 0, metadata !89, i32 82} ; [ DW_TAG_subprogram ]
!342 = metadata !{i32 786453, i32 0, metadata !"", i32 0, i32 0, i64 0, i64 0, i64 0, i32 0, null, metadata !343, i32 0, i32 0} ; [ DW_TAG_subroutine_type ]
!343 = metadata !{metadata !344, metadata !338, metadata !345}
!344 = metadata !{i32 786454, metadata !320, metadata !"const_pointer", metadata !322, i32 60, i64 0, i64 0, i64 0, i32 0, metadata !172} ; [ DW_TAG_typedef ]
!345 = metadata !{i32 786454, metadata !320, metadata !"const_reference", metadata !322, i32 62, i64 0, i64 0, i64 0, i32 0, metadata !346} ; [ DW_TAG_typedef ]
!346 = metadata !{i32 786448, null, null, null, i32 0, i64 0, i64 0, i64 0, i32 0, metadata !173} ; [ DW_TAG_reference_type ]
!347 = metadata !{i32 786478, i32 0, metadata !320, metadata !"allocate", metadata !"allocate", metadata !"_ZN9__gnu_cxx13new_allocatorIcE8allocateEmPKv", metadata !322, i32 87, metadata !348, i1 false, i1 false, i32 0, i32 0, null, i32 256, i1 false, null, null, i32 0, metadata !89, i32 87} ; [ DW_TAG_subprogram ]
!348 = metadata !{i32 786453, i32 0, metadata !"", i32 0, i32 0, i64 0, i64 0, i64 0, i32 0, null, metadata !349, i32 0, i32 0} ; [ DW_TAG_subroutine_type ]
!349 = metadata !{metadata !337, metadata !327, metadata !350, metadata !351}
!350 = metadata !{i32 786454, null, metadata !"size_type", metadata !322, i32 57, i64 0, i64 0, i64 0, i32 0, metadata !139} ; [ DW_TAG_typedef ]
!351 = metadata !{i32 786447, null, metadata !"", null, i32 0, i64 64, i64 64, i64 0, i32 0, metadata !352} ; [ DW_TAG_pointer_type ]
!352 = metadata !{i32 786470, null, metadata !"", null, i32 0, i64 0, i64 0, i64 0, i32 0, null} ; [ DW_TAG_const_type ]
!353 = metadata !{i32 786478, i32 0, metadata !320, metadata !"deallocate", metadata !"deallocate", metadata !"_ZN9__gnu_cxx13new_allocatorIcE10deallocateEPcm", metadata !322, i32 97, metadata !354, i1 false, i1 false, i32 0, i32 0, null, i32 256, i1 false, null, null, i32 0, metadata !89, i32 97} ; [ DW_TAG_subprogram ]
!354 = metadata !{i32 786453, i32 0, metadata !"", i32 0, i32 0, i64 0, i64 0, i64 0, i32 0, null, metadata !355, i32 0, i32 0} ; [ DW_TAG_subroutine_type ]
!355 = metadata !{null, metadata !327, metadata !337, metadata !350}
!356 = metadata !{i32 786478, i32 0, metadata !320, metadata !"max_size", metadata !"max_size", metadata !"_ZNK9__gnu_cxx13new_allocatorIcE8max_sizeEv", metadata !322, i32 101, metadata !357, i1 false, i1 false, i32 0, i32 0, null, i32 256, i1 false, null, null, i32 0, metadata !89, i32 101} ; [ DW_TAG_subprogram ]
!357 = metadata !{i32 786453, i32 0, metadata !"", i32 0, i32 0, i64 0, i64 0, i64 0, i32 0, null, metadata !358, i32 0, i32 0} ; [ DW_TAG_subroutine_type ]
!358 = metadata !{metadata !350, metadata !338}
!359 = metadata !{i32 786478, i32 0, metadata !320, metadata !"construct", metadata !"construct", metadata !"_ZN9__gnu_cxx13new_allocatorIcE9constructEPcRKc", metadata !322, i32 107, metadata !360, i1 false, i1 false, i32 0, i32 0, null, i32 256, i1 false, null, null, i32 0, metadata !89, i32 107} ; [ DW_TAG_subprogram ]
!360 = metadata !{i32 786453, i32 0, metadata !"", i32 0, i32 0, i64 0, i64 0, i64 0, i32 0, null, metadata !361, i32 0, i32 0} ; [ DW_TAG_subroutine_type ]
!361 = metadata !{null, metadata !327, metadata !337, metadata !346}
!362 = metadata !{i32 786478, i32 0, metadata !320, metadata !"destroy", metadata !"destroy", metadata !"_ZN9__gnu_cxx13new_allocatorIcE7destroyEPc", metadata !322, i32 118, metadata !363, i1 false, i1 false, i32 0, i32 0, null, i32 256, i1 false, null, null, i32 0, metadata !89, i32 118} ; [ DW_TAG_subprogram ]
!363 = metadata !{i32 786453, i32 0, metadata !"", i32 0, i32 0, i64 0, i64 0, i64 0, i32 0, null, metadata !364, i32 0, i32 0} ; [ DW_TAG_subroutine_type ]
!364 = metadata !{null, metadata !327, metadata !337}
!365 = metadata !{metadata !366}
!366 = metadata !{i32 786479, null, metadata !"_Tp", metadata !174, null, i32 0, i32 0} ; [ DW_TAG_template_type_parameter ]
!367 = metadata !{i32 786478, i32 0, metadata !316, metadata !"allocator", metadata !"allocator", metadata !"", metadata !317, i32 107, metadata !368, i1 false, i1 false, i32 0, i32 0, null, i32 256, i1 false, null, null, i32 0, metadata !89, i32 107} ; [ DW_TAG_subprogram ]
!368 = metadata !{i32 786453, i32 0, metadata !"", i32 0, i32 0, i64 0, i64 0, i64 0, i32 0, null, metadata !369, i32 0, i32 0} ; [ DW_TAG_subroutine_type ]
!369 = metadata !{null, metadata !370}
!370 = metadata !{i32 786447, i32 0, metadata !"", i32 0, i32 0, i64 64, i64 64, i64 0, i32 64, metadata !316} ; [ DW_TAG_pointer_type ]
!371 = metadata !{i32 786478, i32 0, metadata !316, metadata !"allocator", metadata !"allocator", metadata !"", metadata !317, i32 109, metadata !372, i1 false, i1 false, i32 0, i32 0, null, i32 256, i1 false, null, null, i32 0, metadata !89, i32 109} ; [ DW_TAG_subprogram ]
!372 = metadata !{i32 786453, i32 0, metadata !"", i32 0, i32 0, i64 0, i64 0, i64 0, i32 0, null, metadata !373, i32 0, i32 0} ; [ DW_TAG_subroutine_type ]
!373 = metadata !{null, metadata !370, metadata !374}
!374 = metadata !{i32 786448, null, null, null, i32 0, i64 0, i64 0, i64 0, i32 0, metadata !375} ; [ DW_TAG_reference_type ]
!375 = metadata !{i32 786470, null, metadata !"", null, i32 0, i64 0, i64 0, i64 0, i32 0, metadata !316} ; [ DW_TAG_const_type ]
!376 = metadata !{i32 786478, i32 0, metadata !316, metadata !"~allocator", metadata !"~allocator", metadata !"", metadata !317, i32 115, metadata !368, i1 false, i1 false, i32 0, i32 0, null, i32 256, i1 false, null, null, i32 0, metadata !89, i32 115} ; [ DW_TAG_subprogram ]
!377 = metadata !{metadata !378}
!378 = metadata !{i32 786479, null, metadata !"_Alloc", metadata !174, null, i32 0, i32 0} ; [ DW_TAG_template_type_parameter ]
!379 = metadata !{i32 786445, metadata !313, metadata !"_M_p", metadata !312, i32 271, i64 64, i64 64, i64 0, i32 0, metadata !213} ; [ DW_TAG_member ]
!380 = metadata !{i32 786478, i32 0, metadata !313, metadata !"_Alloc_hider", metadata !"_Alloc_hider", metadata !"", metadata !312, i32 268, metadata !381, i1 false, i1 false, i32 0, i32 0, null, i32 256, i1 false, null, null, i32 0, metadata !89, i32 268} ; [ DW_TAG_subprogram ]
!381 = metadata !{i32 786453, i32 0, metadata !"", i32 0, i32 0, i64 0, i64 0, i64 0, i32 0, null, metadata !382, i32 0, i32 0} ; [ DW_TAG_subroutine_type ]
!382 = metadata !{null, metadata !383, metadata !213, metadata !374}
!383 = metadata !{i32 786447, i32 0, metadata !"", i32 0, i32 0, i64 64, i64 64, i64 0, i32 64, metadata !313} ; [ DW_TAG_pointer_type ]
!384 = metadata !{i32 786478, i32 0, metadata !308, metadata !"_M_data", metadata !"_M_data", metadata !"_ZNKSs7_M_dataEv", metadata !312, i32 286, metadata !385, i1 false, i1 false, i32 0, i32 0, null, i32 257, i1 false, null, null, i32 0, metadata !89, i32 286} ; [ DW_TAG_subprogram ]
!385 = metadata !{i32 786453, i32 0, metadata !"", i32 0, i32 0, i64 0, i64 0, i64 0, i32 0, null, metadata !386, i32 0, i32 0} ; [ DW_TAG_subroutine_type ]
!386 = metadata !{metadata !213, metadata !387}
!387 = metadata !{i32 786447, i32 0, metadata !"", i32 0, i32 0, i64 64, i64 64, i64 0, i32 64, metadata !388} ; [ DW_TAG_pointer_type ]
!388 = metadata !{i32 786470, null, metadata !"", null, i32 0, i64 0, i64 0, i64 0, i32 0, metadata !308} ; [ DW_TAG_const_type ]
!389 = metadata !{i32 786478, i32 0, metadata !308, metadata !"_M_data", metadata !"_M_data", metadata !"_ZNSs7_M_dataEPc", metadata !312, i32 290, metadata !390, i1 false, i1 false, i32 0, i32 0, null, i32 257, i1 false, null, null, i32 0, metadata !89, i32 290} ; [ DW_TAG_subprogram ]
!390 = metadata !{i32 786453, i32 0, metadata !"", i32 0, i32 0, i64 0, i64 0, i64 0, i32 0, null, metadata !391, i32 0, i32 0} ; [ DW_TAG_subroutine_type ]
!391 = metadata !{metadata !213, metadata !392, metadata !213}
!392 = metadata !{i32 786447, i32 0, metadata !"", i32 0, i32 0, i64 64, i64 64, i64 0, i32 64, metadata !308} ; [ DW_TAG_pointer_type ]
!393 = metadata !{i32 786478, i32 0, metadata !308, metadata !"_M_rep", metadata !"_M_rep", metadata !"_ZNKSs6_M_repEv", metadata !312, i32 294, metadata !394, i1 false, i1 false, i32 0, i32 0, null, i32 257, i1 false, null, null, i32 0, metadata !89, i32 294} ; [ DW_TAG_subprogram ]
!394 = metadata !{i32 786453, i32 0, metadata !"", i32 0, i32 0, i64 0, i64 0, i64 0, i32 0, null, metadata !395, i32 0, i32 0} ; [ DW_TAG_subroutine_type ]
!395 = metadata !{metadata !396, metadata !387}
!396 = metadata !{i32 786447, null, metadata !"", null, i32 0, i64 64, i64 64, i64 0, i32 0, metadata !397} ; [ DW_TAG_pointer_type ]
!397 = metadata !{i32 786434, metadata !308, metadata !"_Rep", metadata !312, i32 149, i64 192, i64 64, i32 0, i32 0, null, metadata !398, i32 0, null, null} ; [ DW_TAG_class_type ]
!398 = metadata !{metadata !399, metadata !407, metadata !411, metadata !416, metadata !417, metadata !421, metadata !422, metadata !425, metadata !428, metadata !431, metadata !434, metadata !437, metadata !438, metadata !439}
!399 = metadata !{i32 786460, metadata !397, null, metadata !312, i32 0, i64 0, i64 0, i64 0, i32 0, metadata !400} ; [ DW_TAG_inheritance ]
!400 = metadata !{i32 786434, metadata !308, metadata !"_Rep_base", metadata !312, i32 142, i64 192, i64 64, i32 0, i32 0, null, metadata !401, i32 0, null, null} ; [ DW_TAG_class_type ]
!401 = metadata !{metadata !402, metadata !405, metadata !406}
!402 = metadata !{i32 786445, metadata !400, metadata !"_M_length", metadata !312, i32 144, i64 64, i64 64, i64 0, i32 0, metadata !403} ; [ DW_TAG_member ]
!403 = metadata !{i32 786454, metadata !308, metadata !"size_type", metadata !312, i32 115, i64 0, i64 0, i64 0, i32 0, metadata !404} ; [ DW_TAG_typedef ]
!404 = metadata !{i32 786454, metadata !316, metadata !"size_type", metadata !312, i32 95, i64 0, i64 0, i64 0, i32 0, metadata !139} ; [ DW_TAG_typedef ]
!405 = metadata !{i32 786445, metadata !400, metadata !"_M_capacity", metadata !312, i32 145, i64 64, i64 64, i64 64, i32 0, metadata !403} ; [ DW_TAG_member ]
!406 = metadata !{i32 786445, metadata !400, metadata !"_M_refcount", metadata !312, i32 146, i64 32, i64 32, i64 128, i32 0, metadata !84} ; [ DW_TAG_member ]
!407 = metadata !{i32 786478, i32 0, metadata !397, metadata !"_S_empty_rep", metadata !"_S_empty_rep", metadata !"_ZNSs4_Rep12_S_empty_repEv", metadata !312, i32 175, metadata !408, i1 false, i1 false, i32 0, i32 0, null, i32 256, i1 false, null, null, i32 0, metadata !89, i32 175} ; [ DW_TAG_subprogram ]
!408 = metadata !{i32 786453, i32 0, metadata !"", i32 0, i32 0, i64 0, i64 0, i64 0, i32 0, null, metadata !409, i32 0, i32 0} ; [ DW_TAG_subroutine_type ]
!409 = metadata !{metadata !410}
!410 = metadata !{i32 786448, null, null, null, i32 0, i64 0, i64 0, i64 0, i32 0, metadata !397} ; [ DW_TAG_reference_type ]
!411 = metadata !{i32 786478, i32 0, metadata !397, metadata !"_M_is_leaked", metadata !"_M_is_leaked", metadata !"_ZNKSs4_Rep12_M_is_leakedEv", metadata !312, i32 185, metadata !412, i1 false, i1 false, i32 0, i32 0, null, i32 256, i1 false, null, null, i32 0, metadata !89, i32 185} ; [ DW_TAG_subprogram ]
!412 = metadata !{i32 786453, i32 0, metadata !"", i32 0, i32 0, i64 0, i64 0, i64 0, i32 0, null, metadata !413, i32 0, i32 0} ; [ DW_TAG_subroutine_type ]
!413 = metadata !{metadata !238, metadata !414}
!414 = metadata !{i32 786447, i32 0, metadata !"", i32 0, i32 0, i64 64, i64 64, i64 0, i32 64, metadata !415} ; [ DW_TAG_pointer_type ]
!415 = metadata !{i32 786470, null, metadata !"", null, i32 0, i64 0, i64 0, i64 0, i32 0, metadata !397} ; [ DW_TAG_const_type ]
!416 = metadata !{i32 786478, i32 0, metadata !397, metadata !"_M_is_shared", metadata !"_M_is_shared", metadata !"_ZNKSs4_Rep12_M_is_sharedEv", metadata !312, i32 189, metadata !412, i1 false, i1 false, i32 0, i32 0, null, i32 256, i1 false, null, null, i32 0, metadata !89, i32 189} ; [ DW_TAG_subprogram ]
!417 = metadata !{i32 786478, i32 0, metadata !397, metadata !"_M_set_leaked", metadata !"_M_set_leaked", metadata !"_ZNSs4_Rep13_M_set_leakedEv", metadata !312, i32 193, metadata !418, i1 false, i1 false, i32 0, i32 0, null, i32 256, i1 false, null, null, i32 0, metadata !89, i32 193} ; [ DW_TAG_subprogram ]
!418 = metadata !{i32 786453, i32 0, metadata !"", i32 0, i32 0, i64 0, i64 0, i64 0, i32 0, null, metadata !419, i32 0, i32 0} ; [ DW_TAG_subroutine_type ]
!419 = metadata !{null, metadata !420}
!420 = metadata !{i32 786447, i32 0, metadata !"", i32 0, i32 0, i64 64, i64 64, i64 0, i32 64, metadata !397} ; [ DW_TAG_pointer_type ]
!421 = metadata !{i32 786478, i32 0, metadata !397, metadata !"_M_set_sharable", metadata !"_M_set_sharable", metadata !"_ZNSs4_Rep15_M_set_sharableEv", metadata !312, i32 197, metadata !418, i1 false, i1 false, i32 0, i32 0, null, i32 256, i1 false, null, null, i32 0, metadata !89, i32 197} ; [ DW_TAG_subprogram ]
!422 = metadata !{i32 786478, i32 0, metadata !397, metadata !"_M_set_length_and_sharable", metadata !"_M_set_length_and_sharable", metadata !"_ZNSs4_Rep26_M_set_length_and_sharableEm", metadata !312, i32 201, metadata !423, i1 false, i1 false, i32 0, i32 0, null, i32 256, i1 false, null, null, i32 0, metadata !89, i32 201} ; [ DW_TAG_subprogram ]
!423 = metadata !{i32 786453, i32 0, metadata !"", i32 0, i32 0, i64 0, i64 0, i64 0, i32 0, null, metadata !424, i32 0, i32 0} ; [ DW_TAG_subroutine_type ]
!424 = metadata !{null, metadata !420, metadata !403}
!425 = metadata !{i32 786478, i32 0, metadata !397, metadata !"_M_refdata", metadata !"_M_refdata", metadata !"_ZNSs4_Rep10_M_refdataEv", metadata !312, i32 216, metadata !426, i1 false, i1 false, i32 0, i32 0, null, i32 256, i1 false, null, null, i32 0, metadata !89, i32 216} ; [ DW_TAG_subprogram ]
!426 = metadata !{i32 786453, i32 0, metadata !"", i32 0, i32 0, i64 0, i64 0, i64 0, i32 0, null, metadata !427, i32 0, i32 0} ; [ DW_TAG_subroutine_type ]
!427 = metadata !{metadata !213, metadata !420}
!428 = metadata !{i32 786478, i32 0, metadata !397, metadata !"_M_grab", metadata !"_M_grab", metadata !"_ZNSs4_Rep7_M_grabERKSaIcES2_", metadata !312, i32 220, metadata !429, i1 false, i1 false, i32 0, i32 0, null, i32 256, i1 false, null, null, i32 0, metadata !89, i32 220} ; [ DW_TAG_subprogram ]
!429 = metadata !{i32 786453, i32 0, metadata !"", i32 0, i32 0, i64 0, i64 0, i64 0, i32 0, null, metadata !430, i32 0, i32 0} ; [ DW_TAG_subroutine_type ]
!430 = metadata !{metadata !213, metadata !420, metadata !374, metadata !374}
!431 = metadata !{i32 786478, i32 0, metadata !397, metadata !"_S_create", metadata !"_S_create", metadata !"_ZNSs4_Rep9_S_createEmmRKSaIcE", metadata !312, i32 228, metadata !432, i1 false, i1 false, i32 0, i32 0, null, i32 256, i1 false, null, null, i32 0, metadata !89, i32 228} ; [ DW_TAG_subprogram ]
!432 = metadata !{i32 786453, i32 0, metadata !"", i32 0, i32 0, i64 0, i64 0, i64 0, i32 0, null, metadata !433, i32 0, i32 0} ; [ DW_TAG_subroutine_type ]
!433 = metadata !{metadata !396, metadata !403, metadata !403, metadata !374}
!434 = metadata !{i32 786478, i32 0, metadata !397, metadata !"_M_dispose", metadata !"_M_dispose", metadata !"_ZNSs4_Rep10_M_disposeERKSaIcE", metadata !312, i32 231, metadata !435, i1 false, i1 false, i32 0, i32 0, null, i32 256, i1 false, null, null, i32 0, metadata !89, i32 231} ; [ DW_TAG_subprogram ]
!435 = metadata !{i32 786453, i32 0, metadata !"", i32 0, i32 0, i64 0, i64 0, i64 0, i32 0, null, metadata !436, i32 0, i32 0} ; [ DW_TAG_subroutine_type ]
!436 = metadata !{null, metadata !420, metadata !374}
!437 = metadata !{i32 786478, i32 0, metadata !397, metadata !"_M_destroy", metadata !"_M_destroy", metadata !"_ZNSs4_Rep10_M_destroyERKSaIcE", metadata !312, i32 249, metadata !435, i1 false, i1 false, i32 0, i32 0, null, i32 256, i1 false, null, null, i32 0, metadata !89, i32 249} ; [ DW_TAG_subprogram ]
!438 = metadata !{i32 786478, i32 0, metadata !397, metadata !"_M_refcopy", metadata !"_M_refcopy", metadata !"_ZNSs4_Rep10_M_refcopyEv", metadata !312, i32 252, metadata !426, i1 false, i1 false, i32 0, i32 0, null, i32 256, i1 false, null, null, i32 0, metadata !89, i32 252} ; [ DW_TAG_subprogram ]
!439 = metadata !{i32 786478, i32 0, metadata !397, metadata !"_M_clone", metadata !"_M_clone", metadata !"_ZNSs4_Rep8_M_cloneERKSaIcEm", metadata !312, i32 262, metadata !440, i1 false, i1 false, i32 0, i32 0, null, i32 256, i1 false, null, null, i32 0, metadata !89, i32 262} ; [ DW_TAG_subprogram ]
!440 = metadata !{i32 786453, i32 0, metadata !"", i32 0, i32 0, i64 0, i64 0, i64 0, i32 0, null, metadata !441, i32 0, i32 0} ; [ DW_TAG_subroutine_type ]
!441 = metadata !{metadata !213, metadata !420, metadata !374, metadata !403}
!442 = metadata !{i32 786478, i32 0, metadata !308, metadata !"_M_ibegin", metadata !"_M_ibegin", metadata !"_ZNKSs9_M_ibeginEv", metadata !312, i32 300, metadata !443, i1 false, i1 false, i32 0, i32 0, null, i32 257, i1 false, null, null, i32 0, metadata !89, i32 300} ; [ DW_TAG_subprogram ]
!443 = metadata !{i32 786453, i32 0, metadata !"", i32 0, i32 0, i64 0, i64 0, i64 0, i32 0, null, metadata !444, i32 0, i32 0} ; [ DW_TAG_subroutine_type ]
!444 = metadata !{metadata !445, metadata !387}
!445 = metadata !{i32 786454, metadata !308, metadata !"iterator", metadata !309, i32 121, i64 0, i64 0, i64 0, i32 0, metadata !446} ; [ DW_TAG_typedef ]
!446 = metadata !{i32 786434, null, metadata !"__normal_iterator<char *, std::basic_string<char> >", metadata !447, i32 702, i64 0, i64 0, i32 0, i32 4, null, null, i32 0, null, metadata !448} ; [ DW_TAG_class_type ]
!447 = metadata !{i32 786473, metadata !"/opt/Xilinx/Vivado/2018.1/lnx64/tools/gcc/lib/gcc/x86_64-unknown-linux-gnu/4.6.3/../../../../include/c++/4.6.3/bits/stl_iterator.h", metadata !"/home/andrea/Documenti/vision/Ultrascale/hls/VGA/AXI_STREAM_TO_VGA_RED_255", null} ; [ DW_TAG_file_type ]
!448 = metadata !{metadata !449, metadata !450}
!449 = metadata !{i32 786479, null, metadata !"_Iterator", metadata !213, null, i32 0, i32 0} ; [ DW_TAG_template_type_parameter ]
!450 = metadata !{i32 786479, null, metadata !"_Container", metadata !308, null, i32 0, i32 0} ; [ DW_TAG_template_type_parameter ]
!451 = metadata !{i32 786478, i32 0, metadata !308, metadata !"_M_iend", metadata !"_M_iend", metadata !"_ZNKSs7_M_iendEv", metadata !312, i32 304, metadata !443, i1 false, i1 false, i32 0, i32 0, null, i32 257, i1 false, null, null, i32 0, metadata !89, i32 304} ; [ DW_TAG_subprogram ]
!452 = metadata !{i32 786478, i32 0, metadata !308, metadata !"_M_leak", metadata !"_M_leak", metadata !"_ZNSs7_M_leakEv", metadata !312, i32 308, metadata !453, i1 false, i1 false, i32 0, i32 0, null, i32 257, i1 false, null, null, i32 0, metadata !89, i32 308} ; [ DW_TAG_subprogram ]
!453 = metadata !{i32 786453, i32 0, metadata !"", i32 0, i32 0, i64 0, i64 0, i64 0, i32 0, null, metadata !454, i32 0, i32 0} ; [ DW_TAG_subroutine_type ]
!454 = metadata !{null, metadata !392}
!455 = metadata !{i32 786478, i32 0, metadata !308, metadata !"_M_check", metadata !"_M_check", metadata !"_ZNKSs8_M_checkEmPKc", metadata !312, i32 315, metadata !456, i1 false, i1 false, i32 0, i32 0, null, i32 257, i1 false, null, null, i32 0, metadata !89, i32 315} ; [ DW_TAG_subprogram ]
!456 = metadata !{i32 786453, i32 0, metadata !"", i32 0, i32 0, i64 0, i64 0, i64 0, i32 0, null, metadata !457, i32 0, i32 0} ; [ DW_TAG_subroutine_type ]
!457 = metadata !{metadata !403, metadata !387, metadata !403, metadata !172}
!458 = metadata !{i32 786478, i32 0, metadata !308, metadata !"_M_check_length", metadata !"_M_check_length", metadata !"_ZNKSs15_M_check_lengthEmmPKc", metadata !312, i32 323, metadata !459, i1 false, i1 false, i32 0, i32 0, null, i32 257, i1 false, null, null, i32 0, metadata !89, i32 323} ; [ DW_TAG_subprogram ]
!459 = metadata !{i32 786453, i32 0, metadata !"", i32 0, i32 0, i64 0, i64 0, i64 0, i32 0, null, metadata !460, i32 0, i32 0} ; [ DW_TAG_subroutine_type ]
!460 = metadata !{null, metadata !387, metadata !403, metadata !403, metadata !172}
!461 = metadata !{i32 786478, i32 0, metadata !308, metadata !"_M_limit", metadata !"_M_limit", metadata !"_ZNKSs8_M_limitEmm", metadata !312, i32 331, metadata !462, i1 false, i1 false, i32 0, i32 0, null, i32 257, i1 false, null, null, i32 0, metadata !89, i32 331} ; [ DW_TAG_subprogram ]
!462 = metadata !{i32 786453, i32 0, metadata !"", i32 0, i32 0, i64 0, i64 0, i64 0, i32 0, null, metadata !463, i32 0, i32 0} ; [ DW_TAG_subroutine_type ]
!463 = metadata !{metadata !403, metadata !387, metadata !403, metadata !403}
!464 = metadata !{i32 786478, i32 0, metadata !308, metadata !"_M_disjunct", metadata !"_M_disjunct", metadata !"_ZNKSs11_M_disjunctEPKc", metadata !312, i32 339, metadata !465, i1 false, i1 false, i32 0, i32 0, null, i32 257, i1 false, null, null, i32 0, metadata !89, i32 339} ; [ DW_TAG_subprogram ]
!465 = metadata !{i32 786453, i32 0, metadata !"", i32 0, i32 0, i64 0, i64 0, i64 0, i32 0, null, metadata !466, i32 0, i32 0} ; [ DW_TAG_subroutine_type ]
!466 = metadata !{metadata !238, metadata !387, metadata !172}
!467 = metadata !{i32 786478, i32 0, metadata !308, metadata !"_M_copy", metadata !"_M_copy", metadata !"_ZNSs7_M_copyEPcPKcm", metadata !312, i32 348, metadata !468, i1 false, i1 false, i32 0, i32 0, null, i32 257, i1 false, null, null, i32 0, metadata !89, i32 348} ; [ DW_TAG_subprogram ]
!468 = metadata !{i32 786453, i32 0, metadata !"", i32 0, i32 0, i64 0, i64 0, i64 0, i32 0, null, metadata !469, i32 0, i32 0} ; [ DW_TAG_subroutine_type ]
!469 = metadata !{null, metadata !213, metadata !172, metadata !403}
!470 = metadata !{i32 786478, i32 0, metadata !308, metadata !"_M_move", metadata !"_M_move", metadata !"_ZNSs7_M_moveEPcPKcm", metadata !312, i32 357, metadata !468, i1 false, i1 false, i32 0, i32 0, null, i32 257, i1 false, null, null, i32 0, metadata !89, i32 357} ; [ DW_TAG_subprogram ]
!471 = metadata !{i32 786478, i32 0, metadata !308, metadata !"_M_assign", metadata !"_M_assign", metadata !"_ZNSs9_M_assignEPcmc", metadata !312, i32 366, metadata !472, i1 false, i1 false, i32 0, i32 0, null, i32 257, i1 false, null, null, i32 0, metadata !89, i32 366} ; [ DW_TAG_subprogram ]
!472 = metadata !{i32 786453, i32 0, metadata !"", i32 0, i32 0, i64 0, i64 0, i64 0, i32 0, null, metadata !473, i32 0, i32 0} ; [ DW_TAG_subroutine_type ]
!473 = metadata !{null, metadata !213, metadata !403, metadata !174}
!474 = metadata !{i32 786478, i32 0, metadata !308, metadata !"_S_copy_chars", metadata !"_S_copy_chars", metadata !"_ZNSs13_S_copy_charsEPcN9__gnu_cxx17__normal_iteratorIS_SsEES2_", metadata !312, i32 385, metadata !475, i1 false, i1 false, i32 0, i32 0, null, i32 257, i1 false, null, null, i32 0, metadata !89, i32 385} ; [ DW_TAG_subprogram ]
!475 = metadata !{i32 786453, i32 0, metadata !"", i32 0, i32 0, i64 0, i64 0, i64 0, i32 0, null, metadata !476, i32 0, i32 0} ; [ DW_TAG_subroutine_type ]
!476 = metadata !{null, metadata !213, metadata !445, metadata !445}
!477 = metadata !{i32 786478, i32 0, metadata !308, metadata !"_S_copy_chars", metadata !"_S_copy_chars", metadata !"_ZNSs13_S_copy_charsEPcN9__gnu_cxx17__normal_iteratorIPKcSsEES4_", metadata !312, i32 389, metadata !478, i1 false, i1 false, i32 0, i32 0, null, i32 257, i1 false, null, null, i32 0, metadata !89, i32 389} ; [ DW_TAG_subprogram ]
!478 = metadata !{i32 786453, i32 0, metadata !"", i32 0, i32 0, i64 0, i64 0, i64 0, i32 0, null, metadata !479, i32 0, i32 0} ; [ DW_TAG_subroutine_type ]
!479 = metadata !{null, metadata !213, metadata !480, metadata !480}
!480 = metadata !{i32 786454, metadata !308, metadata !"const_iterator", metadata !309, i32 123, i64 0, i64 0, i64 0, i32 0, metadata !481} ; [ DW_TAG_typedef ]
!481 = metadata !{i32 786434, null, metadata !"__normal_iterator<const char *, std::basic_string<char> >", metadata !447, i32 702, i64 0, i64 0, i32 0, i32 4, null, null, i32 0, null, metadata !482} ; [ DW_TAG_class_type ]
!482 = metadata !{metadata !483, metadata !450}
!483 = metadata !{i32 786479, null, metadata !"_Iterator", metadata !172, null, i32 0, i32 0} ; [ DW_TAG_template_type_parameter ]
!484 = metadata !{i32 786478, i32 0, metadata !308, metadata !"_S_copy_chars", metadata !"_S_copy_chars", metadata !"_ZNSs13_S_copy_charsEPcS_S_", metadata !312, i32 393, metadata !485, i1 false, i1 false, i32 0, i32 0, null, i32 257, i1 false, null, null, i32 0, metadata !89, i32 393} ; [ DW_TAG_subprogram ]
!485 = metadata !{i32 786453, i32 0, metadata !"", i32 0, i32 0, i64 0, i64 0, i64 0, i32 0, null, metadata !486, i32 0, i32 0} ; [ DW_TAG_subroutine_type ]
!486 = metadata !{null, metadata !213, metadata !213, metadata !213}
!487 = metadata !{i32 786478, i32 0, metadata !308, metadata !"_S_copy_chars", metadata !"_S_copy_chars", metadata !"_ZNSs13_S_copy_charsEPcPKcS1_", metadata !312, i32 397, metadata !488, i1 false, i1 false, i32 0, i32 0, null, i32 257, i1 false, null, null, i32 0, metadata !89, i32 397} ; [ DW_TAG_subprogram ]
!488 = metadata !{i32 786453, i32 0, metadata !"", i32 0, i32 0, i64 0, i64 0, i64 0, i32 0, null, metadata !489, i32 0, i32 0} ; [ DW_TAG_subroutine_type ]
!489 = metadata !{null, metadata !213, metadata !172, metadata !172}
!490 = metadata !{i32 786478, i32 0, metadata !308, metadata !"_S_compare", metadata !"_S_compare", metadata !"_ZNSs10_S_compareEmm", metadata !312, i32 401, metadata !491, i1 false, i1 false, i32 0, i32 0, null, i32 257, i1 false, null, null, i32 0, metadata !89, i32 401} ; [ DW_TAG_subprogram ]
!491 = metadata !{i32 786453, i32 0, metadata !"", i32 0, i32 0, i64 0, i64 0, i64 0, i32 0, null, metadata !492, i32 0, i32 0} ; [ DW_TAG_subroutine_type ]
!492 = metadata !{metadata !56, metadata !403, metadata !403}
!493 = metadata !{i32 786478, i32 0, metadata !308, metadata !"_M_mutate", metadata !"_M_mutate", metadata !"_ZNSs9_M_mutateEmmm", metadata !312, i32 414, metadata !494, i1 false, i1 false, i32 0, i32 0, null, i32 257, i1 false, null, null, i32 0, metadata !89, i32 414} ; [ DW_TAG_subprogram ]
!494 = metadata !{i32 786453, i32 0, metadata !"", i32 0, i32 0, i64 0, i64 0, i64 0, i32 0, null, metadata !495, i32 0, i32 0} ; [ DW_TAG_subroutine_type ]
!495 = metadata !{null, metadata !392, metadata !403, metadata !403, metadata !403}
!496 = metadata !{i32 786478, i32 0, metadata !308, metadata !"_M_leak_hard", metadata !"_M_leak_hard", metadata !"_ZNSs12_M_leak_hardEv", metadata !312, i32 417, metadata !453, i1 false, i1 false, i32 0, i32 0, null, i32 257, i1 false, null, null, i32 0, metadata !89, i32 417} ; [ DW_TAG_subprogram ]
!497 = metadata !{i32 786478, i32 0, metadata !308, metadata !"_S_empty_rep", metadata !"_S_empty_rep", metadata !"_ZNSs12_S_empty_repEv", metadata !312, i32 420, metadata !408, i1 false, i1 false, i32 0, i32 0, null, i32 257, i1 false, null, null, i32 0, metadata !89, i32 420} ; [ DW_TAG_subprogram ]
!498 = metadata !{i32 786478, i32 0, metadata !308, metadata !"basic_string", metadata !"basic_string", metadata !"", metadata !312, i32 431, metadata !453, i1 false, i1 false, i32 0, i32 0, null, i32 256, i1 false, null, null, i32 0, metadata !89, i32 431} ; [ DW_TAG_subprogram ]
!499 = metadata !{i32 786478, i32 0, metadata !308, metadata !"basic_string", metadata !"basic_string", metadata !"", metadata !312, i32 442, metadata !500, i1 false, i1 false, i32 0, i32 0, null, i32 384, i1 false, null, null, i32 0, metadata !89, i32 442} ; [ DW_TAG_subprogram ]
!500 = metadata !{i32 786453, i32 0, metadata !"", i32 0, i32 0, i64 0, i64 0, i64 0, i32 0, null, metadata !501, i32 0, i32 0} ; [ DW_TAG_subroutine_type ]
!501 = metadata !{null, metadata !392, metadata !374}
!502 = metadata !{i32 786478, i32 0, metadata !308, metadata !"basic_string", metadata !"basic_string", metadata !"", metadata !312, i32 449, metadata !503, i1 false, i1 false, i32 0, i32 0, null, i32 256, i1 false, null, null, i32 0, metadata !89, i32 449} ; [ DW_TAG_subprogram ]
!503 = metadata !{i32 786453, i32 0, metadata !"", i32 0, i32 0, i64 0, i64 0, i64 0, i32 0, null, metadata !504, i32 0, i32 0} ; [ DW_TAG_subroutine_type ]
!504 = metadata !{null, metadata !392, metadata !505}
!505 = metadata !{i32 786448, null, null, null, i32 0, i64 0, i64 0, i64 0, i32 0, metadata !388} ; [ DW_TAG_reference_type ]
!506 = metadata !{i32 786478, i32 0, metadata !308, metadata !"basic_string", metadata !"basic_string", metadata !"", metadata !312, i32 456, metadata !507, i1 false, i1 false, i32 0, i32 0, null, i32 256, i1 false, null, null, i32 0, metadata !89, i32 456} ; [ DW_TAG_subprogram ]
!507 = metadata !{i32 786453, i32 0, metadata !"", i32 0, i32 0, i64 0, i64 0, i64 0, i32 0, null, metadata !508, i32 0, i32 0} ; [ DW_TAG_subroutine_type ]
!508 = metadata !{null, metadata !392, metadata !505, metadata !403, metadata !403}
!509 = metadata !{i32 786478, i32 0, metadata !308, metadata !"basic_string", metadata !"basic_string", metadata !"", metadata !312, i32 465, metadata !510, i1 false, i1 false, i32 0, i32 0, null, i32 256, i1 false, null, null, i32 0, metadata !89, i32 465} ; [ DW_TAG_subprogram ]
!510 = metadata !{i32 786453, i32 0, metadata !"", i32 0, i32 0, i64 0, i64 0, i64 0, i32 0, null, metadata !511, i32 0, i32 0} ; [ DW_TAG_subroutine_type ]
!511 = metadata !{null, metadata !392, metadata !505, metadata !403, metadata !403, metadata !374}
!512 = metadata !{i32 786478, i32 0, metadata !308, metadata !"basic_string", metadata !"basic_string", metadata !"", metadata !312, i32 477, metadata !513, i1 false, i1 false, i32 0, i32 0, null, i32 256, i1 false, null, null, i32 0, metadata !89, i32 477} ; [ DW_TAG_subprogram ]
!513 = metadata !{i32 786453, i32 0, metadata !"", i32 0, i32 0, i64 0, i64 0, i64 0, i32 0, null, metadata !514, i32 0, i32 0} ; [ DW_TAG_subroutine_type ]
!514 = metadata !{null, metadata !392, metadata !172, metadata !403, metadata !374}
!515 = metadata !{i32 786478, i32 0, metadata !308, metadata !"basic_string", metadata !"basic_string", metadata !"", metadata !312, i32 484, metadata !516, i1 false, i1 false, i32 0, i32 0, null, i32 256, i1 false, null, null, i32 0, metadata !89, i32 484} ; [ DW_TAG_subprogram ]
!516 = metadata !{i32 786453, i32 0, metadata !"", i32 0, i32 0, i64 0, i64 0, i64 0, i32 0, null, metadata !517, i32 0, i32 0} ; [ DW_TAG_subroutine_type ]
!517 = metadata !{null, metadata !392, metadata !172, metadata !374}
!518 = metadata !{i32 786478, i32 0, metadata !308, metadata !"basic_string", metadata !"basic_string", metadata !"", metadata !312, i32 491, metadata !519, i1 false, i1 false, i32 0, i32 0, null, i32 256, i1 false, null, null, i32 0, metadata !89, i32 491} ; [ DW_TAG_subprogram ]
!519 = metadata !{i32 786453, i32 0, metadata !"", i32 0, i32 0, i64 0, i64 0, i64 0, i32 0, null, metadata !520, i32 0, i32 0} ; [ DW_TAG_subroutine_type ]
!520 = metadata !{null, metadata !392, metadata !403, metadata !174, metadata !374}
!521 = metadata !{i32 786478, i32 0, metadata !308, metadata !"~basic_string", metadata !"~basic_string", metadata !"", metadata !312, i32 532, metadata !453, i1 false, i1 false, i32 0, i32 0, null, i32 256, i1 false, null, null, i32 0, metadata !89, i32 532} ; [ DW_TAG_subprogram ]
!522 = metadata !{i32 786478, i32 0, metadata !308, metadata !"operator=", metadata !"operator=", metadata !"_ZNSsaSERKSs", metadata !312, i32 540, metadata !523, i1 false, i1 false, i32 0, i32 0, null, i32 256, i1 false, null, null, i32 0, metadata !89, i32 540} ; [ DW_TAG_subprogram ]
!523 = metadata !{i32 786453, i32 0, metadata !"", i32 0, i32 0, i64 0, i64 0, i64 0, i32 0, null, metadata !524, i32 0, i32 0} ; [ DW_TAG_subroutine_type ]
!524 = metadata !{metadata !525, metadata !392, metadata !505}
!525 = metadata !{i32 786448, null, null, null, i32 0, i64 0, i64 0, i64 0, i32 0, metadata !308} ; [ DW_TAG_reference_type ]
!526 = metadata !{i32 786478, i32 0, metadata !308, metadata !"operator=", metadata !"operator=", metadata !"_ZNSsaSEPKc", metadata !312, i32 548, metadata !527, i1 false, i1 false, i32 0, i32 0, null, i32 256, i1 false, null, null, i32 0, metadata !89, i32 548} ; [ DW_TAG_subprogram ]
!527 = metadata !{i32 786453, i32 0, metadata !"", i32 0, i32 0, i64 0, i64 0, i64 0, i32 0, null, metadata !528, i32 0, i32 0} ; [ DW_TAG_subroutine_type ]
!528 = metadata !{metadata !525, metadata !392, metadata !172}
!529 = metadata !{i32 786478, i32 0, metadata !308, metadata !"operator=", metadata !"operator=", metadata !"_ZNSsaSEc", metadata !312, i32 559, metadata !530, i1 false, i1 false, i32 0, i32 0, null, i32 256, i1 false, null, null, i32 0, metadata !89, i32 559} ; [ DW_TAG_subprogram ]
!530 = metadata !{i32 786453, i32 0, metadata !"", i32 0, i32 0, i64 0, i64 0, i64 0, i32 0, null, metadata !531, i32 0, i32 0} ; [ DW_TAG_subroutine_type ]
!531 = metadata !{metadata !525, metadata !392, metadata !174}
!532 = metadata !{i32 786478, i32 0, metadata !308, metadata !"begin", metadata !"begin", metadata !"_ZNSs5beginEv", metadata !312, i32 599, metadata !533, i1 false, i1 false, i32 0, i32 0, null, i32 256, i1 false, null, null, i32 0, metadata !89, i32 599} ; [ DW_TAG_subprogram ]
!533 = metadata !{i32 786453, i32 0, metadata !"", i32 0, i32 0, i64 0, i64 0, i64 0, i32 0, null, metadata !534, i32 0, i32 0} ; [ DW_TAG_subroutine_type ]
!534 = metadata !{metadata !445, metadata !392}
!535 = metadata !{i32 786478, i32 0, metadata !308, metadata !"begin", metadata !"begin", metadata !"_ZNKSs5beginEv", metadata !312, i32 610, metadata !536, i1 false, i1 false, i32 0, i32 0, null, i32 256, i1 false, null, null, i32 0, metadata !89, i32 610} ; [ DW_TAG_subprogram ]
!536 = metadata !{i32 786453, i32 0, metadata !"", i32 0, i32 0, i64 0, i64 0, i64 0, i32 0, null, metadata !537, i32 0, i32 0} ; [ DW_TAG_subroutine_type ]
!537 = metadata !{metadata !480, metadata !387}
!538 = metadata !{i32 786478, i32 0, metadata !308, metadata !"end", metadata !"end", metadata !"_ZNSs3endEv", metadata !312, i32 618, metadata !533, i1 false, i1 false, i32 0, i32 0, null, i32 256, i1 false, null, null, i32 0, metadata !89, i32 618} ; [ DW_TAG_subprogram ]
!539 = metadata !{i32 786478, i32 0, metadata !308, metadata !"end", metadata !"end", metadata !"_ZNKSs3endEv", metadata !312, i32 629, metadata !536, i1 false, i1 false, i32 0, i32 0, null, i32 256, i1 false, null, null, i32 0, metadata !89, i32 629} ; [ DW_TAG_subprogram ]
!540 = metadata !{i32 786478, i32 0, metadata !308, metadata !"rbegin", metadata !"rbegin", metadata !"_ZNSs6rbeginEv", metadata !312, i32 638, metadata !541, i1 false, i1 false, i32 0, i32 0, null, i32 256, i1 false, null, null, i32 0, metadata !89, i32 638} ; [ DW_TAG_subprogram ]
!541 = metadata !{i32 786453, i32 0, metadata !"", i32 0, i32 0, i64 0, i64 0, i64 0, i32 0, null, metadata !542, i32 0, i32 0} ; [ DW_TAG_subroutine_type ]
!542 = metadata !{metadata !543, metadata !392}
!543 = metadata !{i32 786454, metadata !308, metadata !"reverse_iterator", metadata !309, i32 125, i64 0, i64 0, i64 0, i32 0, metadata !544} ; [ DW_TAG_typedef ]
!544 = metadata !{i32 786434, null, metadata !"reverse_iterator<__gnu_cxx::__normal_iterator<char *, std::basic_string<char> > >", metadata !447, i32 97, i64 0, i64 0, i32 0, i32 4, null, null, i32 0, null, metadata !545} ; [ DW_TAG_class_type ]
!545 = metadata !{metadata !546}
!546 = metadata !{i32 786479, null, metadata !"_Iterator", metadata !446, null, i32 0, i32 0} ; [ DW_TAG_template_type_parameter ]
!547 = metadata !{i32 786478, i32 0, metadata !308, metadata !"rbegin", metadata !"rbegin", metadata !"_ZNKSs6rbeginEv", metadata !312, i32 647, metadata !548, i1 false, i1 false, i32 0, i32 0, null, i32 256, i1 false, null, null, i32 0, metadata !89, i32 647} ; [ DW_TAG_subprogram ]
!548 = metadata !{i32 786453, i32 0, metadata !"", i32 0, i32 0, i64 0, i64 0, i64 0, i32 0, null, metadata !549, i32 0, i32 0} ; [ DW_TAG_subroutine_type ]
!549 = metadata !{metadata !550, metadata !387}
!550 = metadata !{i32 786454, metadata !308, metadata !"const_reverse_iterator", metadata !309, i32 124, i64 0, i64 0, i64 0, i32 0, metadata !551} ; [ DW_TAG_typedef ]
!551 = metadata !{i32 786434, null, metadata !"reverse_iterator<__gnu_cxx::__normal_iterator<const char *, std::basic_string<char> > >", metadata !447, i32 97, i64 0, i64 0, i32 0, i32 4, null, null, i32 0, null, metadata !552} ; [ DW_TAG_class_type ]
!552 = metadata !{metadata !553}
!553 = metadata !{i32 786479, null, metadata !"_Iterator", metadata !481, null, i32 0, i32 0} ; [ DW_TAG_template_type_parameter ]
!554 = metadata !{i32 786478, i32 0, metadata !308, metadata !"rend", metadata !"rend", metadata !"_ZNSs4rendEv", metadata !312, i32 656, metadata !541, i1 false, i1 false, i32 0, i32 0, null, i32 256, i1 false, null, null, i32 0, metadata !89, i32 656} ; [ DW_TAG_subprogram ]
!555 = metadata !{i32 786478, i32 0, metadata !308, metadata !"rend", metadata !"rend", metadata !"_ZNKSs4rendEv", metadata !312, i32 665, metadata !548, i1 false, i1 false, i32 0, i32 0, null, i32 256, i1 false, null, null, i32 0, metadata !89, i32 665} ; [ DW_TAG_subprogram ]
!556 = metadata !{i32 786478, i32 0, metadata !308, metadata !"size", metadata !"size", metadata !"_ZNKSs4sizeEv", metadata !312, i32 709, metadata !557, i1 false, i1 false, i32 0, i32 0, null, i32 256, i1 false, null, null, i32 0, metadata !89, i32 709} ; [ DW_TAG_subprogram ]
!557 = metadata !{i32 786453, i32 0, metadata !"", i32 0, i32 0, i64 0, i64 0, i64 0, i32 0, null, metadata !558, i32 0, i32 0} ; [ DW_TAG_subroutine_type ]
!558 = metadata !{metadata !403, metadata !387}
!559 = metadata !{i32 786478, i32 0, metadata !308, metadata !"length", metadata !"length", metadata !"_ZNKSs6lengthEv", metadata !312, i32 715, metadata !557, i1 false, i1 false, i32 0, i32 0, null, i32 256, i1 false, null, null, i32 0, metadata !89, i32 715} ; [ DW_TAG_subprogram ]
!560 = metadata !{i32 786478, i32 0, metadata !308, metadata !"max_size", metadata !"max_size", metadata !"_ZNKSs8max_sizeEv", metadata !312, i32 720, metadata !557, i1 false, i1 false, i32 0, i32 0, null, i32 256, i1 false, null, null, i32 0, metadata !89, i32 720} ; [ DW_TAG_subprogram ]
!561 = metadata !{i32 786478, i32 0, metadata !308, metadata !"resize", metadata !"resize", metadata !"_ZNSs6resizeEmc", metadata !312, i32 734, metadata !562, i1 false, i1 false, i32 0, i32 0, null, i32 256, i1 false, null, null, i32 0, metadata !89, i32 734} ; [ DW_TAG_subprogram ]
!562 = metadata !{i32 786453, i32 0, metadata !"", i32 0, i32 0, i64 0, i64 0, i64 0, i32 0, null, metadata !563, i32 0, i32 0} ; [ DW_TAG_subroutine_type ]
!563 = metadata !{null, metadata !392, metadata !403, metadata !174}
!564 = metadata !{i32 786478, i32 0, metadata !308, metadata !"resize", metadata !"resize", metadata !"_ZNSs6resizeEm", metadata !312, i32 747, metadata !565, i1 false, i1 false, i32 0, i32 0, null, i32 256, i1 false, null, null, i32 0, metadata !89, i32 747} ; [ DW_TAG_subprogram ]
!565 = metadata !{i32 786453, i32 0, metadata !"", i32 0, i32 0, i64 0, i64 0, i64 0, i32 0, null, metadata !566, i32 0, i32 0} ; [ DW_TAG_subroutine_type ]
!566 = metadata !{null, metadata !392, metadata !403}
!567 = metadata !{i32 786478, i32 0, metadata !308, metadata !"capacity", metadata !"capacity", metadata !"_ZNKSs8capacityEv", metadata !312, i32 767, metadata !557, i1 false, i1 false, i32 0, i32 0, null, i32 256, i1 false, null, null, i32 0, metadata !89, i32 767} ; [ DW_TAG_subprogram ]
!568 = metadata !{i32 786478, i32 0, metadata !308, metadata !"reserve", metadata !"reserve", metadata !"_ZNSs7reserveEm", metadata !312, i32 788, metadata !565, i1 false, i1 false, i32 0, i32 0, null, i32 256, i1 false, null, null, i32 0, metadata !89, i32 788} ; [ DW_TAG_subprogram ]
!569 = metadata !{i32 786478, i32 0, metadata !308, metadata !"clear", metadata !"clear", metadata !"_ZNSs5clearEv", metadata !312, i32 794, metadata !453, i1 false, i1 false, i32 0, i32 0, null, i32 256, i1 false, null, null, i32 0, metadata !89, i32 794} ; [ DW_TAG_subprogram ]
!570 = metadata !{i32 786478, i32 0, metadata !308, metadata !"empty", metadata !"empty", metadata !"_ZNKSs5emptyEv", metadata !312, i32 802, metadata !571, i1 false, i1 false, i32 0, i32 0, null, i32 256, i1 false, null, null, i32 0, metadata !89, i32 802} ; [ DW_TAG_subprogram ]
!571 = metadata !{i32 786453, i32 0, metadata !"", i32 0, i32 0, i64 0, i64 0, i64 0, i32 0, null, metadata !572, i32 0, i32 0} ; [ DW_TAG_subroutine_type ]
!572 = metadata !{metadata !238, metadata !387}
!573 = metadata !{i32 786478, i32 0, metadata !308, metadata !"operator[]", metadata !"operator[]", metadata !"_ZNKSsixEm", metadata !312, i32 817, metadata !574, i1 false, i1 false, i32 0, i32 0, null, i32 256, i1 false, null, null, i32 0, metadata !89, i32 817} ; [ DW_TAG_subprogram ]
!574 = metadata !{i32 786453, i32 0, metadata !"", i32 0, i32 0, i64 0, i64 0, i64 0, i32 0, null, metadata !575, i32 0, i32 0} ; [ DW_TAG_subroutine_type ]
!575 = metadata !{metadata !576, metadata !387, metadata !403}
!576 = metadata !{i32 786454, metadata !308, metadata !"const_reference", metadata !309, i32 118, i64 0, i64 0, i64 0, i32 0, metadata !577} ; [ DW_TAG_typedef ]
!577 = metadata !{i32 786454, metadata !316, metadata !"const_reference", metadata !309, i32 100, i64 0, i64 0, i64 0, i32 0, metadata !346} ; [ DW_TAG_typedef ]
!578 = metadata !{i32 786478, i32 0, metadata !308, metadata !"operator[]", metadata !"operator[]", metadata !"_ZNSsixEm", metadata !312, i32 834, metadata !579, i1 false, i1 false, i32 0, i32 0, null, i32 256, i1 false, null, null, i32 0, metadata !89, i32 834} ; [ DW_TAG_subprogram ]
!579 = metadata !{i32 786453, i32 0, metadata !"", i32 0, i32 0, i64 0, i64 0, i64 0, i32 0, null, metadata !580, i32 0, i32 0} ; [ DW_TAG_subroutine_type ]
!580 = metadata !{metadata !581, metadata !392, metadata !403}
!581 = metadata !{i32 786454, metadata !308, metadata !"reference", metadata !309, i32 117, i64 0, i64 0, i64 0, i32 0, metadata !582} ; [ DW_TAG_typedef ]
!582 = metadata !{i32 786454, metadata !316, metadata !"reference", metadata !309, i32 99, i64 0, i64 0, i64 0, i32 0, metadata !340} ; [ DW_TAG_typedef ]
!583 = metadata !{i32 786478, i32 0, metadata !308, metadata !"at", metadata !"at", metadata !"_ZNKSs2atEm", metadata !312, i32 855, metadata !574, i1 false, i1 false, i32 0, i32 0, null, i32 256, i1 false, null, null, i32 0, metadata !89, i32 855} ; [ DW_TAG_subprogram ]
!584 = metadata !{i32 786478, i32 0, metadata !308, metadata !"at", metadata !"at", metadata !"_ZNSs2atEm", metadata !312, i32 908, metadata !579, i1 false, i1 false, i32 0, i32 0, null, i32 256, i1 false, null, null, i32 0, metadata !89, i32 908} ; [ DW_TAG_subprogram ]
!585 = metadata !{i32 786478, i32 0, metadata !308, metadata !"operator+=", metadata !"operator+=", metadata !"_ZNSspLERKSs", metadata !312, i32 923, metadata !523, i1 false, i1 false, i32 0, i32 0, null, i32 256, i1 false, null, null, i32 0, metadata !89, i32 923} ; [ DW_TAG_subprogram ]
!586 = metadata !{i32 786478, i32 0, metadata !308, metadata !"operator+=", metadata !"operator+=", metadata !"_ZNSspLEPKc", metadata !312, i32 932, metadata !527, i1 false, i1 false, i32 0, i32 0, null, i32 256, i1 false, null, null, i32 0, metadata !89, i32 932} ; [ DW_TAG_subprogram ]
!587 = metadata !{i32 786478, i32 0, metadata !308, metadata !"operator+=", metadata !"operator+=", metadata !"_ZNSspLEc", metadata !312, i32 941, metadata !530, i1 false, i1 false, i32 0, i32 0, null, i32 256, i1 false, null, null, i32 0, metadata !89, i32 941} ; [ DW_TAG_subprogram ]
!588 = metadata !{i32 786478, i32 0, metadata !308, metadata !"append", metadata !"append", metadata !"_ZNSs6appendERKSs", metadata !312, i32 964, metadata !523, i1 false, i1 false, i32 0, i32 0, null, i32 256, i1 false, null, null, i32 0, metadata !89, i32 964} ; [ DW_TAG_subprogram ]
!589 = metadata !{i32 786478, i32 0, metadata !308, metadata !"append", metadata !"append", metadata !"_ZNSs6appendERKSsmm", metadata !312, i32 979, metadata !590, i1 false, i1 false, i32 0, i32 0, null, i32 256, i1 false, null, null, i32 0, metadata !89, i32 979} ; [ DW_TAG_subprogram ]
!590 = metadata !{i32 786453, i32 0, metadata !"", i32 0, i32 0, i64 0, i64 0, i64 0, i32 0, null, metadata !591, i32 0, i32 0} ; [ DW_TAG_subroutine_type ]
!591 = metadata !{metadata !525, metadata !392, metadata !505, metadata !403, metadata !403}
!592 = metadata !{i32 786478, i32 0, metadata !308, metadata !"append", metadata !"append", metadata !"_ZNSs6appendEPKcm", metadata !312, i32 988, metadata !593, i1 false, i1 false, i32 0, i32 0, null, i32 256, i1 false, null, null, i32 0, metadata !89, i32 988} ; [ DW_TAG_subprogram ]
!593 = metadata !{i32 786453, i32 0, metadata !"", i32 0, i32 0, i64 0, i64 0, i64 0, i32 0, null, metadata !594, i32 0, i32 0} ; [ DW_TAG_subroutine_type ]
!594 = metadata !{metadata !525, metadata !392, metadata !172, metadata !403}
!595 = metadata !{i32 786478, i32 0, metadata !308, metadata !"append", metadata !"append", metadata !"_ZNSs6appendEPKc", metadata !312, i32 996, metadata !527, i1 false, i1 false, i32 0, i32 0, null, i32 256, i1 false, null, null, i32 0, metadata !89, i32 996} ; [ DW_TAG_subprogram ]
!596 = metadata !{i32 786478, i32 0, metadata !308, metadata !"append", metadata !"append", metadata !"_ZNSs6appendEmc", metadata !312, i32 1011, metadata !597, i1 false, i1 false, i32 0, i32 0, null, i32 256, i1 false, null, null, i32 0, metadata !89, i32 1011} ; [ DW_TAG_subprogram ]
!597 = metadata !{i32 786453, i32 0, metadata !"", i32 0, i32 0, i64 0, i64 0, i64 0, i32 0, null, metadata !598, i32 0, i32 0} ; [ DW_TAG_subroutine_type ]
!598 = metadata !{metadata !525, metadata !392, metadata !403, metadata !174}
!599 = metadata !{i32 786478, i32 0, metadata !308, metadata !"push_back", metadata !"push_back", metadata !"_ZNSs9push_backEc", metadata !312, i32 1042, metadata !600, i1 false, i1 false, i32 0, i32 0, null, i32 256, i1 false, null, null, i32 0, metadata !89, i32 1042} ; [ DW_TAG_subprogram ]
!600 = metadata !{i32 786453, i32 0, metadata !"", i32 0, i32 0, i64 0, i64 0, i64 0, i32 0, null, metadata !601, i32 0, i32 0} ; [ DW_TAG_subroutine_type ]
!601 = metadata !{null, metadata !392, metadata !174}
!602 = metadata !{i32 786478, i32 0, metadata !308, metadata !"assign", metadata !"assign", metadata !"_ZNSs6assignERKSs", metadata !312, i32 1057, metadata !523, i1 false, i1 false, i32 0, i32 0, null, i32 256, i1 false, null, null, i32 0, metadata !89, i32 1057} ; [ DW_TAG_subprogram ]
!603 = metadata !{i32 786478, i32 0, metadata !308, metadata !"assign", metadata !"assign", metadata !"_ZNSs6assignERKSsmm", metadata !312, i32 1089, metadata !590, i1 false, i1 false, i32 0, i32 0, null, i32 256, i1 false, null, null, i32 0, metadata !89, i32 1089} ; [ DW_TAG_subprogram ]
!604 = metadata !{i32 786478, i32 0, metadata !308, metadata !"assign", metadata !"assign", metadata !"_ZNSs6assignEPKcm", metadata !312, i32 1105, metadata !593, i1 false, i1 false, i32 0, i32 0, null, i32 256, i1 false, null, null, i32 0, metadata !89, i32 1105} ; [ DW_TAG_subprogram ]
!605 = metadata !{i32 786478, i32 0, metadata !308, metadata !"assign", metadata !"assign", metadata !"_ZNSs6assignEPKc", metadata !312, i32 1117, metadata !527, i1 false, i1 false, i32 0, i32 0, null, i32 256, i1 false, null, null, i32 0, metadata !89, i32 1117} ; [ DW_TAG_subprogram ]
!606 = metadata !{i32 786478, i32 0, metadata !308, metadata !"assign", metadata !"assign", metadata !"_ZNSs6assignEmc", metadata !312, i32 1133, metadata !597, i1 false, i1 false, i32 0, i32 0, null, i32 256, i1 false, null, null, i32 0, metadata !89, i32 1133} ; [ DW_TAG_subprogram ]
!607 = metadata !{i32 786478, i32 0, metadata !308, metadata !"insert", metadata !"insert", metadata !"_ZNSs6insertEN9__gnu_cxx17__normal_iteratorIPcSsEEmc", metadata !312, i32 1173, metadata !608, i1 false, i1 false, i32 0, i32 0, null, i32 256, i1 false, null, null, i32 0, metadata !89, i32 1173} ; [ DW_TAG_subprogram ]
!608 = metadata !{i32 786453, i32 0, metadata !"", i32 0, i32 0, i64 0, i64 0, i64 0, i32 0, null, metadata !609, i32 0, i32 0} ; [ DW_TAG_subroutine_type ]
!609 = metadata !{null, metadata !392, metadata !445, metadata !403, metadata !174}
!610 = metadata !{i32 786478, i32 0, metadata !308, metadata !"insert", metadata !"insert", metadata !"_ZNSs6insertEmRKSs", metadata !312, i32 1219, metadata !611, i1 false, i1 false, i32 0, i32 0, null, i32 256, i1 false, null, null, i32 0, metadata !89, i32 1219} ; [ DW_TAG_subprogram ]
!611 = metadata !{i32 786453, i32 0, metadata !"", i32 0, i32 0, i64 0, i64 0, i64 0, i32 0, null, metadata !612, i32 0, i32 0} ; [ DW_TAG_subroutine_type ]
!612 = metadata !{metadata !525, metadata !392, metadata !403, metadata !505}
!613 = metadata !{i32 786478, i32 0, metadata !308, metadata !"insert", metadata !"insert", metadata !"_ZNSs6insertEmRKSsmm", metadata !312, i32 1241, metadata !614, i1 false, i1 false, i32 0, i32 0, null, i32 256, i1 false, null, null, i32 0, metadata !89, i32 1241} ; [ DW_TAG_subprogram ]
!614 = metadata !{i32 786453, i32 0, metadata !"", i32 0, i32 0, i64 0, i64 0, i64 0, i32 0, null, metadata !615, i32 0, i32 0} ; [ DW_TAG_subroutine_type ]
!615 = metadata !{metadata !525, metadata !392, metadata !403, metadata !505, metadata !403, metadata !403}
!616 = metadata !{i32 786478, i32 0, metadata !308, metadata !"insert", metadata !"insert", metadata !"_ZNSs6insertEmPKcm", metadata !312, i32 1264, metadata !617, i1 false, i1 false, i32 0, i32 0, null, i32 256, i1 false, null, null, i32 0, metadata !89, i32 1264} ; [ DW_TAG_subprogram ]
!617 = metadata !{i32 786453, i32 0, metadata !"", i32 0, i32 0, i64 0, i64 0, i64 0, i32 0, null, metadata !618, i32 0, i32 0} ; [ DW_TAG_subroutine_type ]
!618 = metadata !{metadata !525, metadata !392, metadata !403, metadata !172, metadata !403}
!619 = metadata !{i32 786478, i32 0, metadata !308, metadata !"insert", metadata !"insert", metadata !"_ZNSs6insertEmPKc", metadata !312, i32 1282, metadata !620, i1 false, i1 false, i32 0, i32 0, null, i32 256, i1 false, null, null, i32 0, metadata !89, i32 1282} ; [ DW_TAG_subprogram ]
!620 = metadata !{i32 786453, i32 0, metadata !"", i32 0, i32 0, i64 0, i64 0, i64 0, i32 0, null, metadata !621, i32 0, i32 0} ; [ DW_TAG_subroutine_type ]
!621 = metadata !{metadata !525, metadata !392, metadata !403, metadata !172}
!622 = metadata !{i32 786478, i32 0, metadata !308, metadata !"insert", metadata !"insert", metadata !"_ZNSs6insertEmmc", metadata !312, i32 1305, metadata !623, i1 false, i1 false, i32 0, i32 0, null, i32 256, i1 false, null, null, i32 0, metadata !89, i32 1305} ; [ DW_TAG_subprogram ]
!623 = metadata !{i32 786453, i32 0, metadata !"", i32 0, i32 0, i64 0, i64 0, i64 0, i32 0, null, metadata !624, i32 0, i32 0} ; [ DW_TAG_subroutine_type ]
!624 = metadata !{metadata !525, metadata !392, metadata !403, metadata !403, metadata !174}
!625 = metadata !{i32 786478, i32 0, metadata !308, metadata !"insert", metadata !"insert", metadata !"_ZNSs6insertEN9__gnu_cxx17__normal_iteratorIPcSsEEc", metadata !312, i32 1322, metadata !626, i1 false, i1 false, i32 0, i32 0, null, i32 256, i1 false, null, null, i32 0, metadata !89, i32 1322} ; [ DW_TAG_subprogram ]
!626 = metadata !{i32 786453, i32 0, metadata !"", i32 0, i32 0, i64 0, i64 0, i64 0, i32 0, null, metadata !627, i32 0, i32 0} ; [ DW_TAG_subroutine_type ]
!627 = metadata !{metadata !445, metadata !392, metadata !445, metadata !174}
!628 = metadata !{i32 786478, i32 0, metadata !308, metadata !"erase", metadata !"erase", metadata !"_ZNSs5eraseEmm", metadata !312, i32 1346, metadata !629, i1 false, i1 false, i32 0, i32 0, null, i32 256, i1 false, null, null, i32 0, metadata !89, i32 1346} ; [ DW_TAG_subprogram ]
!629 = metadata !{i32 786453, i32 0, metadata !"", i32 0, i32 0, i64 0, i64 0, i64 0, i32 0, null, metadata !630, i32 0, i32 0} ; [ DW_TAG_subroutine_type ]
!630 = metadata !{metadata !525, metadata !392, metadata !403, metadata !403}
!631 = metadata !{i32 786478, i32 0, metadata !308, metadata !"erase", metadata !"erase", metadata !"_ZNSs5eraseEN9__gnu_cxx17__normal_iteratorIPcSsEE", metadata !312, i32 1362, metadata !632, i1 false, i1 false, i32 0, i32 0, null, i32 256, i1 false, null, null, i32 0, metadata !89, i32 1362} ; [ DW_TAG_subprogram ]
!632 = metadata !{i32 786453, i32 0, metadata !"", i32 0, i32 0, i64 0, i64 0, i64 0, i32 0, null, metadata !633, i32 0, i32 0} ; [ DW_TAG_subroutine_type ]
!633 = metadata !{metadata !445, metadata !392, metadata !445}
!634 = metadata !{i32 786478, i32 0, metadata !308, metadata !"erase", metadata !"erase", metadata !"_ZNSs5eraseEN9__gnu_cxx17__normal_iteratorIPcSsEES2_", metadata !312, i32 1382, metadata !635, i1 false, i1 false, i32 0, i32 0, null, i32 256, i1 false, null, null, i32 0, metadata !89, i32 1382} ; [ DW_TAG_subprogram ]
!635 = metadata !{i32 786453, i32 0, metadata !"", i32 0, i32 0, i64 0, i64 0, i64 0, i32 0, null, metadata !636, i32 0, i32 0} ; [ DW_TAG_subroutine_type ]
!636 = metadata !{metadata !445, metadata !392, metadata !445, metadata !445}
!637 = metadata !{i32 786478, i32 0, metadata !308, metadata !"replace", metadata !"replace", metadata !"_ZNSs7replaceEmmRKSs", metadata !312, i32 1401, metadata !638, i1 false, i1 false, i32 0, i32 0, null, i32 256, i1 false, null, null, i32 0, metadata !89, i32 1401} ; [ DW_TAG_subprogram ]
!638 = metadata !{i32 786453, i32 0, metadata !"", i32 0, i32 0, i64 0, i64 0, i64 0, i32 0, null, metadata !639, i32 0, i32 0} ; [ DW_TAG_subroutine_type ]
!639 = metadata !{metadata !525, metadata !392, metadata !403, metadata !403, metadata !505}
!640 = metadata !{i32 786478, i32 0, metadata !308, metadata !"replace", metadata !"replace", metadata !"_ZNSs7replaceEmmRKSsmm", metadata !312, i32 1423, metadata !641, i1 false, i1 false, i32 0, i32 0, null, i32 256, i1 false, null, null, i32 0, metadata !89, i32 1423} ; [ DW_TAG_subprogram ]
!641 = metadata !{i32 786453, i32 0, metadata !"", i32 0, i32 0, i64 0, i64 0, i64 0, i32 0, null, metadata !642, i32 0, i32 0} ; [ DW_TAG_subroutine_type ]
!642 = metadata !{metadata !525, metadata !392, metadata !403, metadata !403, metadata !505, metadata !403, metadata !403}
!643 = metadata !{i32 786478, i32 0, metadata !308, metadata !"replace", metadata !"replace", metadata !"_ZNSs7replaceEmmPKcm", metadata !312, i32 1447, metadata !644, i1 false, i1 false, i32 0, i32 0, null, i32 256, i1 false, null, null, i32 0, metadata !89, i32 1447} ; [ DW_TAG_subprogram ]
!644 = metadata !{i32 786453, i32 0, metadata !"", i32 0, i32 0, i64 0, i64 0, i64 0, i32 0, null, metadata !645, i32 0, i32 0} ; [ DW_TAG_subroutine_type ]
!645 = metadata !{metadata !525, metadata !392, metadata !403, metadata !403, metadata !172, metadata !403}
!646 = metadata !{i32 786478, i32 0, metadata !308, metadata !"replace", metadata !"replace", metadata !"_ZNSs7replaceEmmPKc", metadata !312, i32 1466, metadata !647, i1 false, i1 false, i32 0, i32 0, null, i32 256, i1 false, null, null, i32 0, metadata !89, i32 1466} ; [ DW_TAG_subprogram ]
!647 = metadata !{i32 786453, i32 0, metadata !"", i32 0, i32 0, i64 0, i64 0, i64 0, i32 0, null, metadata !648, i32 0, i32 0} ; [ DW_TAG_subroutine_type ]
!648 = metadata !{metadata !525, metadata !392, metadata !403, metadata !403, metadata !172}
!649 = metadata !{i32 786478, i32 0, metadata !308, metadata !"replace", metadata !"replace", metadata !"_ZNSs7replaceEmmmc", metadata !312, i32 1489, metadata !650, i1 false, i1 false, i32 0, i32 0, null, i32 256, i1 false, null, null, i32 0, metadata !89, i32 1489} ; [ DW_TAG_subprogram ]
!650 = metadata !{i32 786453, i32 0, metadata !"", i32 0, i32 0, i64 0, i64 0, i64 0, i32 0, null, metadata !651, i32 0, i32 0} ; [ DW_TAG_subroutine_type ]
!651 = metadata !{metadata !525, metadata !392, metadata !403, metadata !403, metadata !403, metadata !174}
!652 = metadata !{i32 786478, i32 0, metadata !308, metadata !"replace", metadata !"replace", metadata !"_ZNSs7replaceEN9__gnu_cxx17__normal_iteratorIPcSsEES2_RKSs", metadata !312, i32 1507, metadata !653, i1 false, i1 false, i32 0, i32 0, null, i32 256, i1 false, null, null, i32 0, metadata !89, i32 1507} ; [ DW_TAG_subprogram ]
!653 = metadata !{i32 786453, i32 0, metadata !"", i32 0, i32 0, i64 0, i64 0, i64 0, i32 0, null, metadata !654, i32 0, i32 0} ; [ DW_TAG_subroutine_type ]
!654 = metadata !{metadata !525, metadata !392, metadata !445, metadata !445, metadata !505}
!655 = metadata !{i32 786478, i32 0, metadata !308, metadata !"replace", metadata !"replace", metadata !"_ZNSs7replaceEN9__gnu_cxx17__normal_iteratorIPcSsEES2_PKcm", metadata !312, i32 1525, metadata !656, i1 false, i1 false, i32 0, i32 0, null, i32 256, i1 false, null, null, i32 0, metadata !89, i32 1525} ; [ DW_TAG_subprogram ]
!656 = metadata !{i32 786453, i32 0, metadata !"", i32 0, i32 0, i64 0, i64 0, i64 0, i32 0, null, metadata !657, i32 0, i32 0} ; [ DW_TAG_subroutine_type ]
!657 = metadata !{metadata !525, metadata !392, metadata !445, metadata !445, metadata !172, metadata !403}
!658 = metadata !{i32 786478, i32 0, metadata !308, metadata !"replace", metadata !"replace", metadata !"_ZNSs7replaceEN9__gnu_cxx17__normal_iteratorIPcSsEES2_PKc", metadata !312, i32 1546, metadata !659, i1 false, i1 false, i32 0, i32 0, null, i32 256, i1 false, null, null, i32 0, metadata !89, i32 1546} ; [ DW_TAG_subprogram ]
!659 = metadata !{i32 786453, i32 0, metadata !"", i32 0, i32 0, i64 0, i64 0, i64 0, i32 0, null, metadata !660, i32 0, i32 0} ; [ DW_TAG_subroutine_type ]
!660 = metadata !{metadata !525, metadata !392, metadata !445, metadata !445, metadata !172}
!661 = metadata !{i32 786478, i32 0, metadata !308, metadata !"replace", metadata !"replace", metadata !"_ZNSs7replaceEN9__gnu_cxx17__normal_iteratorIPcSsEES2_mc", metadata !312, i32 1567, metadata !662, i1 false, i1 false, i32 0, i32 0, null, i32 256, i1 false, null, null, i32 0, metadata !89, i32 1567} ; [ DW_TAG_subprogram ]
!662 = metadata !{i32 786453, i32 0, metadata !"", i32 0, i32 0, i64 0, i64 0, i64 0, i32 0, null, metadata !663, i32 0, i32 0} ; [ DW_TAG_subroutine_type ]
!663 = metadata !{metadata !525, metadata !392, metadata !445, metadata !445, metadata !403, metadata !174}
!664 = metadata !{i32 786478, i32 0, metadata !308, metadata !"replace", metadata !"replace", metadata !"_ZNSs7replaceEN9__gnu_cxx17__normal_iteratorIPcSsEES2_S1_S1_", metadata !312, i32 1603, metadata !665, i1 false, i1 false, i32 0, i32 0, null, i32 256, i1 false, null, null, i32 0, metadata !89, i32 1603} ; [ DW_TAG_subprogram ]
!665 = metadata !{i32 786453, i32 0, metadata !"", i32 0, i32 0, i64 0, i64 0, i64 0, i32 0, null, metadata !666, i32 0, i32 0} ; [ DW_TAG_subroutine_type ]
!666 = metadata !{metadata !525, metadata !392, metadata !445, metadata !445, metadata !213, metadata !213}
!667 = metadata !{i32 786478, i32 0, metadata !308, metadata !"replace", metadata !"replace", metadata !"_ZNSs7replaceEN9__gnu_cxx17__normal_iteratorIPcSsEES2_PKcS4_", metadata !312, i32 1613, metadata !668, i1 false, i1 false, i32 0, i32 0, null, i32 256, i1 false, null, null, i32 0, metadata !89, i32 1613} ; [ DW_TAG_subprogram ]
!668 = metadata !{i32 786453, i32 0, metadata !"", i32 0, i32 0, i64 0, i64 0, i64 0, i32 0, null, metadata !669, i32 0, i32 0} ; [ DW_TAG_subroutine_type ]
!669 = metadata !{metadata !525, metadata !392, metadata !445, metadata !445, metadata !172, metadata !172}
!670 = metadata !{i32 786478, i32 0, metadata !308, metadata !"replace", metadata !"replace", metadata !"_ZNSs7replaceEN9__gnu_cxx17__normal_iteratorIPcSsEES2_S2_S2_", metadata !312, i32 1624, metadata !671, i1 false, i1 false, i32 0, i32 0, null, i32 256, i1 false, null, null, i32 0, metadata !89, i32 1624} ; [ DW_TAG_subprogram ]
!671 = metadata !{i32 786453, i32 0, metadata !"", i32 0, i32 0, i64 0, i64 0, i64 0, i32 0, null, metadata !672, i32 0, i32 0} ; [ DW_TAG_subroutine_type ]
!672 = metadata !{metadata !525, metadata !392, metadata !445, metadata !445, metadata !445, metadata !445}
!673 = metadata !{i32 786478, i32 0, metadata !308, metadata !"replace", metadata !"replace", metadata !"_ZNSs7replaceEN9__gnu_cxx17__normal_iteratorIPcSsEES2_NS0_IPKcSsEES5_", metadata !312, i32 1634, metadata !674, i1 false, i1 false, i32 0, i32 0, null, i32 256, i1 false, null, null, i32 0, metadata !89, i32 1634} ; [ DW_TAG_subprogram ]
!674 = metadata !{i32 786453, i32 0, metadata !"", i32 0, i32 0, i64 0, i64 0, i64 0, i32 0, null, metadata !675, i32 0, i32 0} ; [ DW_TAG_subroutine_type ]
!675 = metadata !{metadata !525, metadata !392, metadata !445, metadata !445, metadata !480, metadata !480}
!676 = metadata !{i32 786478, i32 0, metadata !308, metadata !"_M_replace_aux", metadata !"_M_replace_aux", metadata !"_ZNSs14_M_replace_auxEmmmc", metadata !312, i32 1676, metadata !650, i1 false, i1 false, i32 0, i32 0, null, i32 257, i1 false, null, null, i32 0, metadata !89, i32 1676} ; [ DW_TAG_subprogram ]
!677 = metadata !{i32 786478, i32 0, metadata !308, metadata !"_M_replace_safe", metadata !"_M_replace_safe", metadata !"_ZNSs15_M_replace_safeEmmPKcm", metadata !312, i32 1680, metadata !644, i1 false, i1 false, i32 0, i32 0, null, i32 257, i1 false, null, null, i32 0, metadata !89, i32 1680} ; [ DW_TAG_subprogram ]
!678 = metadata !{i32 786478, i32 0, metadata !308, metadata !"_S_construct_aux_2", metadata !"_S_construct_aux_2", metadata !"_ZNSs18_S_construct_aux_2EmcRKSaIcE", metadata !312, i32 1704, metadata !679, i1 false, i1 false, i32 0, i32 0, null, i32 257, i1 false, null, null, i32 0, metadata !89, i32 1704} ; [ DW_TAG_subprogram ]
!679 = metadata !{i32 786453, i32 0, metadata !"", i32 0, i32 0, i64 0, i64 0, i64 0, i32 0, null, metadata !680, i32 0, i32 0} ; [ DW_TAG_subroutine_type ]
!680 = metadata !{metadata !213, metadata !403, metadata !174, metadata !374}
!681 = metadata !{i32 786478, i32 0, metadata !308, metadata !"_S_construct", metadata !"_S_construct", metadata !"_ZNSs12_S_constructEmcRKSaIcE", metadata !312, i32 1729, metadata !679, i1 false, i1 false, i32 0, i32 0, null, i32 257, i1 false, null, null, i32 0, metadata !89, i32 1729} ; [ DW_TAG_subprogram ]
!682 = metadata !{i32 786478, i32 0, metadata !308, metadata !"copy", metadata !"copy", metadata !"_ZNKSs4copyEPcmm", metadata !312, i32 1745, metadata !683, i1 false, i1 false, i32 0, i32 0, null, i32 256, i1 false, null, null, i32 0, metadata !89, i32 1745} ; [ DW_TAG_subprogram ]
!683 = metadata !{i32 786453, i32 0, metadata !"", i32 0, i32 0, i64 0, i64 0, i64 0, i32 0, null, metadata !684, i32 0, i32 0} ; [ DW_TAG_subroutine_type ]
!684 = metadata !{metadata !403, metadata !387, metadata !213, metadata !403, metadata !403}
!685 = metadata !{i32 786478, i32 0, metadata !308, metadata !"swap", metadata !"swap", metadata !"_ZNSs4swapERSs", metadata !312, i32 1755, metadata !686, i1 false, i1 false, i32 0, i32 0, null, i32 256, i1 false, null, null, i32 0, metadata !89, i32 1755} ; [ DW_TAG_subprogram ]
!686 = metadata !{i32 786453, i32 0, metadata !"", i32 0, i32 0, i64 0, i64 0, i64 0, i32 0, null, metadata !687, i32 0, i32 0} ; [ DW_TAG_subroutine_type ]
!687 = metadata !{null, metadata !392, metadata !525}
!688 = metadata !{i32 786478, i32 0, metadata !308, metadata !"c_str", metadata !"c_str", metadata !"_ZNKSs5c_strEv", metadata !312, i32 1765, metadata !689, i1 false, i1 false, i32 0, i32 0, null, i32 256, i1 false, null, null, i32 0, metadata !89, i32 1765} ; [ DW_TAG_subprogram ]
!689 = metadata !{i32 786453, i32 0, metadata !"", i32 0, i32 0, i64 0, i64 0, i64 0, i32 0, null, metadata !690, i32 0, i32 0} ; [ DW_TAG_subroutine_type ]
!690 = metadata !{metadata !172, metadata !387}
!691 = metadata !{i32 786478, i32 0, metadata !308, metadata !"data", metadata !"data", metadata !"_ZNKSs4dataEv", metadata !312, i32 1775, metadata !689, i1 false, i1 false, i32 0, i32 0, null, i32 256, i1 false, null, null, i32 0, metadata !89, i32 1775} ; [ DW_TAG_subprogram ]
!692 = metadata !{i32 786478, i32 0, metadata !308, metadata !"get_allocator", metadata !"get_allocator", metadata !"_ZNKSs13get_allocatorEv", metadata !312, i32 1782, metadata !693, i1 false, i1 false, i32 0, i32 0, null, i32 256, i1 false, null, null, i32 0, metadata !89, i32 1782} ; [ DW_TAG_subprogram ]
!693 = metadata !{i32 786453, i32 0, metadata !"", i32 0, i32 0, i64 0, i64 0, i64 0, i32 0, null, metadata !694, i32 0, i32 0} ; [ DW_TAG_subroutine_type ]
!694 = metadata !{metadata !695, metadata !387}
!695 = metadata !{i32 786454, metadata !308, metadata !"allocator_type", metadata !309, i32 114, i64 0, i64 0, i64 0, i32 0, metadata !316} ; [ DW_TAG_typedef ]
!696 = metadata !{i32 786478, i32 0, metadata !308, metadata !"find", metadata !"find", metadata !"_ZNKSs4findEPKcmm", metadata !312, i32 1797, metadata !697, i1 false, i1 false, i32 0, i32 0, null, i32 256, i1 false, null, null, i32 0, metadata !89, i32 1797} ; [ DW_TAG_subprogram ]
!697 = metadata !{i32 786453, i32 0, metadata !"", i32 0, i32 0, i64 0, i64 0, i64 0, i32 0, null, metadata !698, i32 0, i32 0} ; [ DW_TAG_subroutine_type ]
!698 = metadata !{metadata !403, metadata !387, metadata !172, metadata !403, metadata !403}
!699 = metadata !{i32 786478, i32 0, metadata !308, metadata !"find", metadata !"find", metadata !"_ZNKSs4findERKSsm", metadata !312, i32 1810, metadata !700, i1 false, i1 false, i32 0, i32 0, null, i32 256, i1 false, null, null, i32 0, metadata !89, i32 1810} ; [ DW_TAG_subprogram ]
!700 = metadata !{i32 786453, i32 0, metadata !"", i32 0, i32 0, i64 0, i64 0, i64 0, i32 0, null, metadata !701, i32 0, i32 0} ; [ DW_TAG_subroutine_type ]
!701 = metadata !{metadata !403, metadata !387, metadata !505, metadata !403}
!702 = metadata !{i32 786478, i32 0, metadata !308, metadata !"find", metadata !"find", metadata !"_ZNKSs4findEPKcm", metadata !312, i32 1824, metadata !703, i1 false, i1 false, i32 0, i32 0, null, i32 256, i1 false, null, null, i32 0, metadata !89, i32 1824} ; [ DW_TAG_subprogram ]
!703 = metadata !{i32 786453, i32 0, metadata !"", i32 0, i32 0, i64 0, i64 0, i64 0, i32 0, null, metadata !704, i32 0, i32 0} ; [ DW_TAG_subroutine_type ]
!704 = metadata !{metadata !403, metadata !387, metadata !172, metadata !403}
!705 = metadata !{i32 786478, i32 0, metadata !308, metadata !"find", metadata !"find", metadata !"_ZNKSs4findEcm", metadata !312, i32 1841, metadata !706, i1 false, i1 false, i32 0, i32 0, null, i32 256, i1 false, null, null, i32 0, metadata !89, i32 1841} ; [ DW_TAG_subprogram ]
!706 = metadata !{i32 786453, i32 0, metadata !"", i32 0, i32 0, i64 0, i64 0, i64 0, i32 0, null, metadata !707, i32 0, i32 0} ; [ DW_TAG_subroutine_type ]
!707 = metadata !{metadata !403, metadata !387, metadata !174, metadata !403}
!708 = metadata !{i32 786478, i32 0, metadata !308, metadata !"rfind", metadata !"rfind", metadata !"_ZNKSs5rfindERKSsm", metadata !312, i32 1854, metadata !700, i1 false, i1 false, i32 0, i32 0, null, i32 256, i1 false, null, null, i32 0, metadata !89, i32 1854} ; [ DW_TAG_subprogram ]
!709 = metadata !{i32 786478, i32 0, metadata !308, metadata !"rfind", metadata !"rfind", metadata !"_ZNKSs5rfindEPKcmm", metadata !312, i32 1869, metadata !697, i1 false, i1 false, i32 0, i32 0, null, i32 256, i1 false, null, null, i32 0, metadata !89, i32 1869} ; [ DW_TAG_subprogram ]
!710 = metadata !{i32 786478, i32 0, metadata !308, metadata !"rfind", metadata !"rfind", metadata !"_ZNKSs5rfindEPKcm", metadata !312, i32 1882, metadata !703, i1 false, i1 false, i32 0, i32 0, null, i32 256, i1 false, null, null, i32 0, metadata !89, i32 1882} ; [ DW_TAG_subprogram ]
!711 = metadata !{i32 786478, i32 0, metadata !308, metadata !"rfind", metadata !"rfind", metadata !"_ZNKSs5rfindEcm", metadata !312, i32 1899, metadata !706, i1 false, i1 false, i32 0, i32 0, null, i32 256, i1 false, null, null, i32 0, metadata !89, i32 1899} ; [ DW_TAG_subprogram ]
!712 = metadata !{i32 786478, i32 0, metadata !308, metadata !"find_first_of", metadata !"find_first_of", metadata !"_ZNKSs13find_first_ofERKSsm", metadata !312, i32 1912, metadata !700, i1 false, i1 false, i32 0, i32 0, null, i32 256, i1 false, null, null, i32 0, metadata !89, i32 1912} ; [ DW_TAG_subprogram ]
!713 = metadata !{i32 786478, i32 0, metadata !308, metadata !"find_first_of", metadata !"find_first_of", metadata !"_ZNKSs13find_first_ofEPKcmm", metadata !312, i32 1927, metadata !697, i1 false, i1 false, i32 0, i32 0, null, i32 256, i1 false, null, null, i32 0, metadata !89, i32 1927} ; [ DW_TAG_subprogram ]
!714 = metadata !{i32 786478, i32 0, metadata !308, metadata !"find_first_of", metadata !"find_first_of", metadata !"_ZNKSs13find_first_ofEPKcm", metadata !312, i32 1940, metadata !703, i1 false, i1 false, i32 0, i32 0, null, i32 256, i1 false, null, null, i32 0, metadata !89, i32 1940} ; [ DW_TAG_subprogram ]
!715 = metadata !{i32 786478, i32 0, metadata !308, metadata !"find_first_of", metadata !"find_first_of", metadata !"_ZNKSs13find_first_ofEcm", metadata !312, i32 1959, metadata !706, i1 false, i1 false, i32 0, i32 0, null, i32 256, i1 false, null, null, i32 0, metadata !89, i32 1959} ; [ DW_TAG_subprogram ]
!716 = metadata !{i32 786478, i32 0, metadata !308, metadata !"find_last_of", metadata !"find_last_of", metadata !"_ZNKSs12find_last_ofERKSsm", metadata !312, i32 1973, metadata !700, i1 false, i1 false, i32 0, i32 0, null, i32 256, i1 false, null, null, i32 0, metadata !89, i32 1973} ; [ DW_TAG_subprogram ]
!717 = metadata !{i32 786478, i32 0, metadata !308, metadata !"find_last_of", metadata !"find_last_of", metadata !"_ZNKSs12find_last_ofEPKcmm", metadata !312, i32 1988, metadata !697, i1 false, i1 false, i32 0, i32 0, null, i32 256, i1 false, null, null, i32 0, metadata !89, i32 1988} ; [ DW_TAG_subprogram ]
!718 = metadata !{i32 786478, i32 0, metadata !308, metadata !"find_last_of", metadata !"find_last_of", metadata !"_ZNKSs12find_last_ofEPKcm", metadata !312, i32 2001, metadata !703, i1 false, i1 false, i32 0, i32 0, null, i32 256, i1 false, null, null, i32 0, metadata !89, i32 2001} ; [ DW_TAG_subprogram ]
!719 = metadata !{i32 786478, i32 0, metadata !308, metadata !"find_last_of", metadata !"find_last_of", metadata !"_ZNKSs12find_last_ofEcm", metadata !312, i32 2020, metadata !706, i1 false, i1 false, i32 0, i32 0, null, i32 256, i1 false, null, null, i32 0, metadata !89, i32 2020} ; [ DW_TAG_subprogram ]
!720 = metadata !{i32 786478, i32 0, metadata !308, metadata !"find_first_not_of", metadata !"find_first_not_of", metadata !"_ZNKSs17find_first_not_ofERKSsm", metadata !312, i32 2034, metadata !700, i1 false, i1 false, i32 0, i32 0, null, i32 256, i1 false, null, null, i32 0, metadata !89, i32 2034} ; [ DW_TAG_subprogram ]
!721 = metadata !{i32 786478, i32 0, metadata !308, metadata !"find_first_not_of", metadata !"find_first_not_of", metadata !"_ZNKSs17find_first_not_ofEPKcmm", metadata !312, i32 2049, metadata !697, i1 false, i1 false, i32 0, i32 0, null, i32 256, i1 false, null, null, i32 0, metadata !89, i32 2049} ; [ DW_TAG_subprogram ]
!722 = metadata !{i32 786478, i32 0, metadata !308, metadata !"find_first_not_of", metadata !"find_first_not_of", metadata !"_ZNKSs17find_first_not_ofEPKcm", metadata !312, i32 2063, metadata !703, i1 false, i1 false, i32 0, i32 0, null, i32 256, i1 false, null, null, i32 0, metadata !89, i32 2063} ; [ DW_TAG_subprogram ]
!723 = metadata !{i32 786478, i32 0, metadata !308, metadata !"find_first_not_of", metadata !"find_first_not_of", metadata !"_ZNKSs17find_first_not_ofEcm", metadata !312, i32 2080, metadata !706, i1 false, i1 false, i32 0, i32 0, null, i32 256, i1 false, null, null, i32 0, metadata !89, i32 2080} ; [ DW_TAG_subprogram ]
!724 = metadata !{i32 786478, i32 0, metadata !308, metadata !"find_last_not_of", metadata !"find_last_not_of", metadata !"_ZNKSs16find_last_not_ofERKSsm", metadata !312, i32 2093, metadata !700, i1 false, i1 false, i32 0, i32 0, null, i32 256, i1 false, null, null, i32 0, metadata !89, i32 2093} ; [ DW_TAG_subprogram ]
!725 = metadata !{i32 786478, i32 0, metadata !308, metadata !"find_last_not_of", metadata !"find_last_not_of", metadata !"_ZNKSs16find_last_not_ofEPKcmm", metadata !312, i32 2109, metadata !697, i1 false, i1 false, i32 0, i32 0, null, i32 256, i1 false, null, null, i32 0, metadata !89, i32 2109} ; [ DW_TAG_subprogram ]
!726 = metadata !{i32 786478, i32 0, metadata !308, metadata !"find_last_not_of", metadata !"find_last_not_of", metadata !"_ZNKSs16find_last_not_ofEPKcm", metadata !312, i32 2122, metadata !703, i1 false, i1 false, i32 0, i32 0, null, i32 256, i1 false, null, null, i32 0, metadata !89, i32 2122} ; [ DW_TAG_subprogram ]
!727 = metadata !{i32 786478, i32 0, metadata !308, metadata !"find_last_not_of", metadata !"find_last_not_of", metadata !"_ZNKSs16find_last_not_ofEcm", metadata !312, i32 2139, metadata !706, i1 false, i1 false, i32 0, i32 0, null, i32 256, i1 false, null, null, i32 0, metadata !89, i32 2139} ; [ DW_TAG_subprogram ]
!728 = metadata !{i32 786478, i32 0, metadata !308, metadata !"substr", metadata !"substr", metadata !"_ZNKSs6substrEmm", metadata !312, i32 2154, metadata !729, i1 false, i1 false, i32 0, i32 0, null, i32 256, i1 false, null, null, i32 0, metadata !89, i32 2154} ; [ DW_TAG_subprogram ]
!729 = metadata !{i32 786453, i32 0, metadata !"", i32 0, i32 0, i64 0, i64 0, i64 0, i32 0, null, metadata !730, i32 0, i32 0} ; [ DW_TAG_subroutine_type ]
!730 = metadata !{metadata !308, metadata !387, metadata !403, metadata !403}
!731 = metadata !{i32 786478, i32 0, metadata !308, metadata !"compare", metadata !"compare", metadata !"_ZNKSs7compareERKSs", metadata !312, i32 2172, metadata !732, i1 false, i1 false, i32 0, i32 0, null, i32 256, i1 false, null, null, i32 0, metadata !89, i32 2172} ; [ DW_TAG_subprogram ]
!732 = metadata !{i32 786453, i32 0, metadata !"", i32 0, i32 0, i64 0, i64 0, i64 0, i32 0, null, metadata !733, i32 0, i32 0} ; [ DW_TAG_subroutine_type ]
!733 = metadata !{metadata !56, metadata !387, metadata !505}
!734 = metadata !{i32 786478, i32 0, metadata !308, metadata !"compare", metadata !"compare", metadata !"_ZNKSs7compareEmmRKSs", metadata !312, i32 2202, metadata !735, i1 false, i1 false, i32 0, i32 0, null, i32 256, i1 false, null, null, i32 0, metadata !89, i32 2202} ; [ DW_TAG_subprogram ]
!735 = metadata !{i32 786453, i32 0, metadata !"", i32 0, i32 0, i64 0, i64 0, i64 0, i32 0, null, metadata !736, i32 0, i32 0} ; [ DW_TAG_subroutine_type ]
!736 = metadata !{metadata !56, metadata !387, metadata !403, metadata !403, metadata !505}
!737 = metadata !{i32 786478, i32 0, metadata !308, metadata !"compare", metadata !"compare", metadata !"_ZNKSs7compareEmmRKSsmm", metadata !312, i32 2226, metadata !738, i1 false, i1 false, i32 0, i32 0, null, i32 256, i1 false, null, null, i32 0, metadata !89, i32 2226} ; [ DW_TAG_subprogram ]
!738 = metadata !{i32 786453, i32 0, metadata !"", i32 0, i32 0, i64 0, i64 0, i64 0, i32 0, null, metadata !739, i32 0, i32 0} ; [ DW_TAG_subroutine_type ]
!739 = metadata !{metadata !56, metadata !387, metadata !403, metadata !403, metadata !505, metadata !403, metadata !403}
