; ModuleID = 'C:/Users/Luca/Desktop/ProgettoVivado/OV_7670/HLS_COMMON/FILTERS/Sep_Convolution_Filter/solution1/.autopilot/db/a.o.3.bc'
target datalayout = "e-p:64:64:64-i1:8:8-i8:8:8-i16:16:16-i32:32:32-i64:64:64-f32:32:32-f64:64:64-v64:64:64-v128:128:128-a0:0:64-s0:64:64-f80:128:128-n8:16:32:64-S128"
target triple = "x86_64-w64-mingw32"

@window_V_6 = internal unnamed_addr global i8 0   ; [#uses=2 type=i8*]
@window_V_5 = internal unnamed_addr global i8 0   ; [#uses=2 type=i8*]
@window_V_4 = internal unnamed_addr global i8 0   ; [#uses=2 type=i8*]
@window_V_3 = internal unnamed_addr global i8 0   ; [#uses=2 type=i8*]
@window_V_2 = internal unnamed_addr global i8 0   ; [#uses=2 type=i8*]
@window_V_1 = internal unnamed_addr global i8 0   ; [#uses=2 type=i8*]
@window_V_0 = internal unnamed_addr global i8 0   ; [#uses=2 type=i8*]
@sep_convolution_filter_str = internal unnamed_addr constant [23 x i8] c"sep_convolution_filter\00" ; [#uses=1 type=[23 x i8]*]
@llvm_global_ctors_1 = appending global [1 x void ()*] [void ()* @_GLOBAL__I_a] ; [#uses=0 type=[1 x void ()*]*]
@llvm_global_ctors_0 = appending global [1 x i32] [i32 65535] ; [#uses=0 type=[1 x i32]*]
@line_buffer_V_5 = internal unnamed_addr global [640 x i8] zeroinitializer ; [#uses=2 type=[640 x i8]*]
@line_buffer_V_4 = internal unnamed_addr global [640 x i8] zeroinitializer ; [#uses=1 type=[640 x i8]*]
@line_buffer_V_3 = internal unnamed_addr global [640 x i8] zeroinitializer ; [#uses=1 type=[640 x i8]*]
@line_buffer_V_2 = internal unnamed_addr global [640 x i8] zeroinitializer ; [#uses=1 type=[640 x i8]*]
@line_buffer_V_1 = internal unnamed_addr global [640 x i8] zeroinitializer ; [#uses=1 type=[640 x i8]*]
@line_buffer_V_0 = internal unnamed_addr global [640 x i8] zeroinitializer ; [#uses=1 type=[640 x i8]*]
@kernel_v_V_6 = internal unnamed_addr global i8 0 ; [#uses=2 type=i8*]
@kernel_v_V_5 = internal unnamed_addr global i8 0 ; [#uses=2 type=i8*]
@kernel_v_V_4 = internal unnamed_addr global i8 0 ; [#uses=2 type=i8*]
@kernel_v_V_3 = internal unnamed_addr global i8 0 ; [#uses=2 type=i8*]
@kernel_v_V_2 = internal unnamed_addr global i8 0 ; [#uses=2 type=i8*]
@kernel_v_V_1 = internal unnamed_addr global i8 0 ; [#uses=2 type=i8*]
@kernel_v_V_0 = internal unnamed_addr global i8 0 ; [#uses=3 type=i8*]
@kernel_sum_V = internal unnamed_addr global i8 1 ; [#uses=2 type=i8*]
@kernel_off_V = internal unnamed_addr global i8 0 ; [#uses=2 type=i8*]
@kernel_h_V_6 = internal unnamed_addr global i8 0 ; [#uses=2 type=i8*]
@kernel_h_V_5 = internal unnamed_addr global i8 0 ; [#uses=2 type=i8*]
@kernel_h_V_4 = internal unnamed_addr global i8 0 ; [#uses=2 type=i8*]
@kernel_h_V_3 = internal unnamed_addr global i8 0 ; [#uses=2 type=i8*]
@kernel_h_V_2 = internal unnamed_addr global i8 0 ; [#uses=2 type=i8*]
@kernel_h_V_1 = internal unnamed_addr global i8 0 ; [#uses=2 type=i8*]
@kernel_h_V_0 = internal unnamed_addr global i8 0 ; [#uses=2 type=i8*]
@kernel_bit_shift_V = internal unnamed_addr global i8 0 ; [#uses=2 type=i8*]
@convolution_buffer_V_6 = internal unnamed_addr global i19 0 ; [#uses=2 type=i19*]
@convolution_buffer_V_5 = internal unnamed_addr global i19 0 ; [#uses=2 type=i19*]
@convolution_buffer_V_4 = internal unnamed_addr global i19 0 ; [#uses=2 type=i19*]
@convolution_buffer_V_3 = internal unnamed_addr global i19 0 ; [#uses=2 type=i19*]
@convolution_buffer_V_2 = internal unnamed_addr global i19 0 ; [#uses=2 type=i19*]
@convolution_buffer_V_1 = internal unnamed_addr global i19 0 ; [#uses=2 type=i19*]
@Loop_row_Loop_col_str = internal unnamed_addr constant [18 x i8] c"Loop_row_Loop_col\00" ; [#uses=1 type=[18 x i8]*]
@p_str7 = private unnamed_addr constant [9 x i8] c"Loop_col\00", align 1 ; [#uses=3 type=[9 x i8]*]
@p_str4 = private unnamed_addr constant [5 x i8] c"axis\00", align 1 ; [#uses=2 type=[5 x i8]*]
@p_str3 = private unnamed_addr constant [8 x i8] c"ap_ovld\00", align 1 ; [#uses=1 type=[8 x i8]*]
@p_str = private unnamed_addr constant [1 x i8] zeroinitializer, align 1 ; [#uses=13 type=[1 x i8]*]

; [#uses=0]
define void @sep_convolution_filter([52 x i8]* %kernel_config_V, i8* %in_img_V, i8* %out_img_V) {
.preheader61.preheader:
  %kernel_h_V_0_loc_1 = alloca i8                 ; [#uses=4 type=i8*]
  %sep_convolution_filter_ap_int_2 = alloca i32   ; [#uses=3 type=i32*]
  %sep_convolution_filter_ap_int_1 = alloca i32   ; [#uses=3 type=i32*]
  call void (...)* @_ssdm_op_SpecBitsMap([52 x i8]* %kernel_config_V), !map !7
  call void (...)* @_ssdm_op_SpecBitsMap(i8* %in_img_V), !map !13
  call void (...)* @_ssdm_op_SpecBitsMap(i8* %out_img_V), !map !19
  call void (...)* @_ssdm_op_SpecTopModule([23 x i8]* @sep_convolution_filter_str) nounwind
  call void @llvm.dbg.value(metadata !{[52 x i8]* %kernel_config_V}, i64 0, metadata !23), !dbg !1602 ; [debug line = 43:9] [debug variable = kernel_config.V]
  call void @llvm.dbg.value(metadata !{i8* %in_img_V}, i64 0, metadata !1603), !dbg !1614 ; [debug line = 44:9] [debug variable = in_img.V]
  call void @llvm.dbg.value(metadata !{i8* %out_img_V}, i64 0, metadata !1615), !dbg !1617 ; [debug line = 45:9] [debug variable = out_img.V]
  call void (...)* @_ssdm_op_SpecInterface([52 x i8]* %kernel_config_V, [8 x i8]* @p_str3, i32 0, i32 0, i32 0, i32 0, [1 x i8]* @p_str, [1 x i8]* @p_str, [1 x i8]* @p_str, i32 0, i32 0, i32 0, i32 0, [1 x i8]* @p_str) nounwind
  call void (...)* @_ssdm_op_SpecInterface(i8* %out_img_V, [5 x i8]* @p_str4, i32 0, i32 0, i32 0, i32 0, [1 x i8]* @p_str, [1 x i8]* @p_str, [1 x i8]* @p_str, i32 0, i32 0, i32 0, i32 0, [1 x i8]* @p_str)
  call void (...)* @_ssdm_op_SpecInterface(i8* %in_img_V, [5 x i8]* @p_str4, i32 0, i32 0, i32 0, i32 0, [1 x i8]* @p_str, [1 x i8]* @p_str, [1 x i8]* @p_str, i32 0, i32 0, i32 0, i32 0, [1 x i8]* @p_str)
  %kernel_config_V_addr = getelementptr [52 x i8]* %kernel_config_V, i64 0, i64 49, !dbg !1618 ; [#uses=1 type=i8*] [debug line = 172:10@123:5]
  %kernel_config_V_addr_1 = getelementptr [52 x i8]* %kernel_config_V, i64 0, i64 50, !dbg !1627 ; [#uses=1 type=i8*] [debug line = 172:10@125:5]
  %kernel_config_V_addr_2 = getelementptr [52 x i8]* %kernel_config_V, i64 0, i64 51, !dbg !1629 ; [#uses=1 type=i8*] [debug line = 172:10@127:5]
  %kernel_h_V_0_load = load i8* @kernel_h_V_0, align 1, !dbg !1631 ; [#uses=1 type=i8] [debug line = 172:10@115:7]
  store i32 0, i32* %sep_convolution_filter_ap_int_1
  store i32 0, i32* %sep_convolution_filter_ap_int_2
  store i8 %kernel_h_V_0_load, i8* %kernel_h_V_0_loc_1
  br label %0, !dbg !1635                         ; [debug line = 96:27]

; <label>:0                                       ; preds = %._crit_edge84, %.preheader61.preheader
  %indvar_flatten = phi i19 [ 0, %.preheader61.preheader ], [ %indvar_flatten_next, %._crit_edge84 ] ; [#uses=2 type=i19]
  %sep_mulconvolution_filter_ap_int = phi i19 [ 0, %.preheader61.preheader ], [ %sep_convolution_filter_ap_int_7, %._crit_edge84 ] ; [#uses=2 type=i19]
  %row = phi i9 [ 0, %.preheader61.preheader ], [ %row_mid2, %._crit_edge84 ] ; [#uses=4 type=i9]
  %sep_convolution_filter_ap_int_3 = phi i19 [ 0, %.preheader61.preheader ], [ %tmp_30, %._crit_edge84 ] ; [#uses=1 type=i19]
  %col = phi i10 [ 0, %.preheader61.preheader ], [ %col_1, %._crit_edge84 ] ; [#uses=2 type=i10]
  %exitcond_flatten = icmp eq i19 %indvar_flatten, -213719 ; [#uses=1 type=i1]
  %indvar_flatten_next = add i19 %indvar_flatten, 1 ; [#uses=1 type=i19]
  br i1 %exitcond_flatten, label %18, label %.reset

._crit_edge79:                                    ; preds = %.reset
  %sep_convolution_filter_ap_int_4 = load i32* %sep_convolution_filter_ap_int_2, !dbg !1636 ; [#uses=2 type=i32] [debug line = 105:5]
  %sep_convolution_filter_ap_int_5 = load i32* %sep_convolution_filter_ap_int_1, !dbg !1637 ; [#uses=2 type=i32] [debug line = 108:6]
  %tmp_5 = icmp sgt i32 %sep_convolution_filter_ap_int_4, 6, !dbg !1636 ; [#uses=2 type=i1] [debug line = 105:5]
  %tmp_7 = add nsw i32 %sep_convolution_filter_ap_int_5, 1, !dbg !1637 ; [#uses=1 type=i32] [debug line = 108:6]
  %sel_SEBB = select i1 %tmp_5, i32 %tmp_7, i32 %sep_convolution_filter_ap_int_5, !dbg !1636 ; [#uses=3 type=i32] [debug line = 105:5]
  %sel_SEBB1 = select i1 %tmp_5, i32 0, i32 %sep_convolution_filter_ap_int_4, !dbg !1636 ; [#uses=4 type=i32] [debug line = 105:5]
  %tmp_8 = icmp eq i32 %sel_SEBB, 0, !dbg !1639   ; [#uses=1 type=i1] [debug line = 111:5]
  br i1 %tmp_8, label %1, label %4, !dbg !1639    ; [debug line = 111:5]

; <label>:1                                       ; preds = %._crit_edge79
  %tmp_3 = zext i19 %sep_convolution_filter_ap_int_6 to i64, !dbg !1640 ; [#uses=1 type=i64] [debug line = 113:6]
  %kernel_config_V_addr_3 = getelementptr [52 x i8]* %kernel_config_V, i64 0, i64 %tmp_3, !dbg !1641 ; [#uses=1 type=i8*] [debug line = 172:10@113:6]
  %kernel_config_V_load_1 = load i8* %kernel_config_V_addr_3, align 1, !dbg !1641 ; [#uses=8 type=i8] [debug line = 172:10@113:6]
  %tmp_29 = trunc i32 %sel_SEBB1 to i3            ; [#uses=1 type=i3]
  switch i3 %tmp_29, label %branch13 [
    i3 0, label %branch7
    i3 1, label %branch8
    i3 2, label %branch9
    i3 3, label %branch10
    i3 -4, label %branch11
    i3 -3, label %branch12
  ], !dbg !1641                                   ; [debug line = 172:10@113:6]

; <label>:2                                       ; preds = %branch13, %branch12, %branch11, %branch10, %branch9, %branch8, %branch7
  %tmp_10 = icmp eq i32 %sel_SEBB1, 0, !dbg !1642 ; [#uses=1 type=i1] [debug line = 114:6]
  br i1 %tmp_10, label %3, label %._crit_edge80, !dbg !1642 ; [debug line = 114:6]

; <label>:3                                       ; preds = %2
  %kernel_h_V_0_loc_1_load_1 = load i8* %kernel_h_V_0_loc_1, !dbg !1631 ; [#uses=1 type=i8] [debug line = 172:10@115:7]
  store i8 %kernel_h_V_0_loc_1_load_1, i8* @kernel_v_V_0, align 1, !dbg !1631 ; [debug line = 172:10@115:7]
  br label %._crit_edge80, !dbg !1632             ; [debug line = 115:7]

._crit_edge80:                                    ; preds = %3, %2
  br label %7, !dbg !1643                         ; [debug line = 116:5]

; <label>:4                                       ; preds = %._crit_edge79
  %tmp_s = icmp eq i32 %sel_SEBB1, 0, !dbg !1644  ; [#uses=1 type=i1] [debug line = 117:10]
  br i1 %tmp_s, label %5, label %._crit_edge81, !dbg !1644 ; [debug line = 117:10]

; <label>:5                                       ; preds = %4
  %tmp_11 = zext i19 %sep_convolution_filter_ap_int_6 to i64, !dbg !1645 ; [#uses=1 type=i64] [debug line = 118:6]
  %kernel_config_V_addr_4 = getelementptr [52 x i8]* %kernel_config_V, i64 0, i64 %tmp_11, !dbg !1646 ; [#uses=1 type=i8*] [debug line = 172:10@118:6]
  %kernel_config_V_load_3 = load i8* %kernel_config_V_addr_4, align 1, !dbg !1646 ; [#uses=7 type=i8] [debug line = 172:10@118:6]
  %tmp_31 = trunc i32 %sel_SEBB to i3             ; [#uses=1 type=i3]
  switch i3 %tmp_31, label %branch6 [
    i3 0, label %branch0
    i3 1, label %branch1
    i3 2, label %branch2
    i3 3, label %branch3
    i3 -4, label %branch4
    i3 -3, label %branch5
  ], !dbg !1646                                   ; [debug line = 172:10@118:6]

; <label>:6                                       ; preds = %branch6, %branch5, %branch4, %branch3, %branch2, %branch1, %branch0
  br label %._crit_edge81, !dbg !1645             ; [debug line = 118:6]

._crit_edge81:                                    ; preds = %6, %4
  br label %7

; <label>:7                                       ; preds = %._crit_edge81, %._crit_edge80
  %tmp_14 = add nsw i32 %sel_SEBB1, 1, !dbg !1647 ; [#uses=1 type=i32] [debug line = 120:5]
  store i32 %sel_SEBB, i32* %sep_convolution_filter_ap_int_1
  store i32 %tmp_14, i32* %sep_convolution_filter_ap_int_2
  br label %16, !dbg !1648                        ; [debug line = 121:4]

; <label>:8                                       ; preds = %.reset
  %tmp_6 = icmp eq i19 %sep_convolution_filter_ap_int_6, 49, !dbg !1649 ; [#uses=1 type=i1] [debug line = 122:9]
  br i1 %tmp_6, label %9, label %10, !dbg !1649   ; [debug line = 122:9]

; <label>:9                                       ; preds = %8
  %kernel_config_V_load = load i8* %kernel_config_V_addr, align 1, !dbg !1618 ; [#uses=1 type=i8] [debug line = 172:10@123:5]
  store i8 %kernel_config_V_load, i8* @kernel_sum_V, align 1, !dbg !1618 ; [debug line = 172:10@123:5]
  br label %15, !dbg !1621                        ; [debug line = 123:5]

; <label>:10                                      ; preds = %8
  %tmp_9 = icmp eq i19 %sep_convolution_filter_ap_int_6, 50, !dbg !1650 ; [#uses=1 type=i1] [debug line = 124:9]
  br i1 %tmp_9, label %11, label %12, !dbg !1650  ; [debug line = 124:9]

; <label>:11                                      ; preds = %10
  %kernel_config_V_load_2 = load i8* %kernel_config_V_addr_1, align 1, !dbg !1627 ; [#uses=1 type=i8] [debug line = 172:10@125:5]
  store i8 %kernel_config_V_load_2, i8* @kernel_off_V, align 1, !dbg !1627 ; [debug line = 172:10@125:5]
  br label %14, !dbg !1628                        ; [debug line = 125:5]

; <label>:12                                      ; preds = %10
  %tmp_12 = icmp eq i19 %sep_convolution_filter_ap_int_6, 51, !dbg !1651 ; [#uses=1 type=i1] [debug line = 126:9]
  br i1 %tmp_12, label %13, label %._crit_edge82, !dbg !1651 ; [debug line = 126:9]

; <label>:13                                      ; preds = %12
  %kernel_config_V_load_4 = load i8* %kernel_config_V_addr_2, align 1, !dbg !1629 ; [#uses=1 type=i8] [debug line = 172:10@127:5]
  store i8 %kernel_config_V_load_4, i8* @kernel_bit_shift_V, align 1, !dbg !1629 ; [debug line = 172:10@127:5]
  br label %._crit_edge82, !dbg !1630             ; [debug line = 127:5]

._crit_edge82:                                    ; preds = %13, %12
  br label %14

; <label>:14                                      ; preds = %._crit_edge82, %11
  br label %15

; <label>:15                                      ; preds = %14, %9
  br label %16

; <label>:16                                      ; preds = %15, %7
  %tmp_15 = icmp ult i10 %col_mid2, -384, !dbg !1652 ; [#uses=2 type=i1] [debug line = 131:4]
  br i1 %tmp_15, label %.preheader.preheader, label %.loopexit, !dbg !1652 ; [debug line = 131:4]

.preheader.preheader:                             ; preds = %16
  %tmp_16 = zext i10 %col_mid2 to i64, !dbg !1653 ; [#uses=6 type=i64] [debug line = 135:6]
  %line_buffer_V_0_addr = getelementptr [640 x i8]* @line_buffer_V_0, i64 0, i64 %tmp_16 ; [#uses=2 type=i8*]
  %line_buffer_V_0_load = load i8* %line_buffer_V_0_addr, align 1, !dbg !1657 ; [#uses=1 type=i8] [debug line = 277:10@135:6]
  store i8 %line_buffer_V_0_load, i8* @window_V_0, align 1, !dbg !1657 ; [debug line = 277:10@135:6]
  %line_buffer_V_1_addr = getelementptr [640 x i8]* @line_buffer_V_1, i64 0, i64 %tmp_16 ; [#uses=2 type=i8*]
  %line_buffer_V_1_load = load i8* %line_buffer_V_1_addr, align 1, !dbg !1660 ; [#uses=2 type=i8] [debug line = 277:10@137:7]
  store i8 %line_buffer_V_1_load, i8* %line_buffer_V_0_addr, align 1, !dbg !1660 ; [debug line = 277:10@137:7]
  store i8 %line_buffer_V_1_load, i8* @window_V_1, align 1, !dbg !1657 ; [debug line = 277:10@135:6]
  %line_buffer_V_2_addr = getelementptr [640 x i8]* @line_buffer_V_2, i64 0, i64 %tmp_16 ; [#uses=2 type=i8*]
  %line_buffer_V_2_load = load i8* %line_buffer_V_2_addr, align 1, !dbg !1660 ; [#uses=2 type=i8] [debug line = 277:10@137:7]
  store i8 %line_buffer_V_2_load, i8* %line_buffer_V_1_addr, align 1, !dbg !1660 ; [debug line = 277:10@137:7]
  store i8 %line_buffer_V_2_load, i8* @window_V_2, align 1, !dbg !1657 ; [debug line = 277:10@135:6]
  %line_buffer_V_3_addr = getelementptr [640 x i8]* @line_buffer_V_3, i64 0, i64 %tmp_16 ; [#uses=2 type=i8*]
  %line_buffer_V_3_load = load i8* %line_buffer_V_3_addr, align 1, !dbg !1660 ; [#uses=2 type=i8] [debug line = 277:10@137:7]
  store i8 %line_buffer_V_3_load, i8* %line_buffer_V_2_addr, align 1, !dbg !1660 ; [debug line = 277:10@137:7]
  store i8 %line_buffer_V_3_load, i8* @window_V_3, align 1, !dbg !1657 ; [debug line = 277:10@135:6]
  %line_buffer_V_4_addr = getelementptr [640 x i8]* @line_buffer_V_4, i64 0, i64 %tmp_16 ; [#uses=2 type=i8*]
  %line_buffer_V_4_load = load i8* %line_buffer_V_4_addr, align 1, !dbg !1660 ; [#uses=2 type=i8] [debug line = 277:10@137:7]
  store i8 %line_buffer_V_4_load, i8* %line_buffer_V_3_addr, align 1, !dbg !1660 ; [debug line = 277:10@137:7]
  store i8 %line_buffer_V_4_load, i8* @window_V_4, align 1, !dbg !1657 ; [debug line = 277:10@135:6]
  %line_buffer_V_5_addr = getelementptr [640 x i8]* @line_buffer_V_5, i64 0, i64 %tmp_16 ; [#uses=1 type=i8*]
  %line_buffer_V_5_load = load i8* %line_buffer_V_5_addr, align 1, !dbg !1660 ; [#uses=2 type=i8] [debug line = 277:10@137:7]
  store i8 %line_buffer_V_5_load, i8* %line_buffer_V_4_addr, align 1, !dbg !1660 ; [debug line = 277:10@137:7]
  store i8 %line_buffer_V_5_load, i8* @window_V_5, align 1, !dbg !1657 ; [debug line = 277:10@135:6]
  br label %.loopexit

.loopexit:                                        ; preds = %.preheader.preheader, %16
  %or_cond = and i1 %tmp_15, %tmp_mid2, !dbg !1662 ; [#uses=1 type=i1] [debug line = 142:4]
  br i1 %or_cond, label %17, label %.loopexit._crit_edge, !dbg !1662 ; [debug line = 142:4]

; <label>:17                                      ; preds = %.loopexit
  %in_temp_V = call i8 @_ssdm_op_Read.axis.volatile.i8P(i8* %in_img_V), !dbg !1663 ; [#uses=2 type=i8] [debug line = 144:44]
  call void @llvm.dbg.value(metadata !{i8 %in_temp_V}, i64 0, metadata !1665), !dbg !1663 ; [debug line = 144:44] [debug variable = in_temp.V]
  store i8 %in_temp_V, i8* @window_V_6, align 1, !dbg !1667 ; [debug line = 277:10@145:5]
  %tmp_17 = zext i10 %col_mid2 to i64, !dbg !1669 ; [#uses=1 type=i64] [debug line = 146:5]
  %line_buffer_V_5_addr_1 = getelementptr [640 x i8]* @line_buffer_V_5, i64 0, i64 %tmp_17 ; [#uses=1 type=i8*]
  store i8 %in_temp_V, i8* %line_buffer_V_5_addr_1, align 1, !dbg !1670 ; [debug line = 277:10@146:5]
  br label %.loopexit._crit_edge, !dbg !1671      ; [debug line = 147:4]

.loopexit._crit_edge:                             ; preds = %17, %.loopexit
  %tmp_18 = icmp ugt i10 %col_mid2, 2, !dbg !1672 ; [#uses=1 type=i1] [debug line = 150:4]
  %or_cond1 = and i1 %tmp_2_mid2, %tmp_18, !dbg !1672 ; [#uses=1 type=i1] [debug line = 150:4]
  br i1 %or_cond1, label %.preheader.i.preheader_ifconv, label %._crit_edge84, !dbg !1672 ; [debug line = 150:4]

.preheader.i.preheader_ifconv:                    ; preds = %.loopexit._crit_edge
  %kernel_h_V_0_loc_1_load = load i8* %kernel_h_V_0_loc_1, !dbg !1673 ; [#uses=1 type=i8] [debug line = 120:90@120:106@28:21@153:17]
  %kernel_sum_V_load = load i8* @kernel_sum_V, align 1, !dbg !2523 ; [#uses=2 type=i8] [debug line = 153:17]
  %kernel_off_V_load = load i8* @kernel_off_V, align 1, !dbg !2523 ; [#uses=1 type=i8] [debug line = 153:17]
  %p_Val2_s = load i8* @kernel_bit_shift_V, align 1, !dbg !2523 ; [#uses=3 type=i8] [debug line = 153:17]
  %kernel_v_V_0_load = load i8* @kernel_v_V_0, align 1, !dbg !2525 ; [#uses=1 type=i8] [debug line = 1450:95@1450:111@3365:0@22:21@153:17]
  %lhs_V = sext i8 %kernel_v_V_0_load to i16, !dbg !2525 ; [#uses=1 type=i16] [debug line = 1450:95@1450:111@3365:0@22:21@153:17]
  %window_V_0_load = load i8* @window_V_0, align 1, !dbg !3079 ; [#uses=1 type=i8] [debug line = 1450:95@1450:111@3365:0@22:21@153:17]
  %rhs_V = zext i8 %window_V_0_load to i16, !dbg !3079 ; [#uses=1 type=i16] [debug line = 1450:95@1450:111@3365:0@22:21@153:17]
  %r_V = mul i16 %lhs_V, %rhs_V, !dbg !3068       ; [#uses=1 type=i16] [debug line = 3365:0@22:21@153:17]
  %tmp_20_cast = sext i16 %r_V to i17, !dbg !2525 ; [#uses=1 type=i17] [debug line = 1450:95@1450:111@3365:0@22:21@153:17]
  %kernel_v_V_1_load = load i8* @kernel_v_V_1, align 1, !dbg !2525 ; [#uses=1 type=i8] [debug line = 1450:95@1450:111@3365:0@22:21@153:17]
  %lhs_V_s = sext i8 %kernel_v_V_1_load to i16, !dbg !2525 ; [#uses=1 type=i16] [debug line = 1450:95@1450:111@3365:0@22:21@153:17]
  %window_V_1_load = load i8* @window_V_1, align 1, !dbg !3079 ; [#uses=1 type=i8] [debug line = 1450:95@1450:111@3365:0@22:21@153:17]
  %rhs_V_s = zext i8 %window_V_1_load to i16, !dbg !3079 ; [#uses=1 type=i16] [debug line = 1450:95@1450:111@3365:0@22:21@153:17]
  %r_V_s = mul i16 %lhs_V_s, %rhs_V_s, !dbg !3068 ; [#uses=1 type=i16] [debug line = 3365:0@22:21@153:17]
  %tmp_27_1_cast = sext i16 %r_V_s to i17, !dbg !2525 ; [#uses=1 type=i17] [debug line = 1450:95@1450:111@3365:0@22:21@153:17]
  %kernel_v_V_2_load = load i8* @kernel_v_V_2, align 1, !dbg !2525 ; [#uses=1 type=i8] [debug line = 1450:95@1450:111@3365:0@22:21@153:17]
  %lhs_V_2 = sext i8 %kernel_v_V_2_load to i16, !dbg !2525 ; [#uses=1 type=i16] [debug line = 1450:95@1450:111@3365:0@22:21@153:17]
  %window_V_2_load = load i8* @window_V_2, align 1, !dbg !3079 ; [#uses=1 type=i8] [debug line = 1450:95@1450:111@3365:0@22:21@153:17]
  %rhs_V_2 = zext i8 %window_V_2_load to i16, !dbg !3079 ; [#uses=1 type=i16] [debug line = 1450:95@1450:111@3365:0@22:21@153:17]
  %r_V_2 = mul i16 %lhs_V_2, %rhs_V_2, !dbg !3068 ; [#uses=1 type=i16] [debug line = 3365:0@22:21@153:17]
  %tmp_27_2_cast = sext i16 %r_V_2 to i17, !dbg !2525 ; [#uses=1 type=i17] [debug line = 1450:95@1450:111@3365:0@22:21@153:17]
  %kernel_v_V_3_load = load i8* @kernel_v_V_3, align 1, !dbg !2525 ; [#uses=1 type=i8] [debug line = 1450:95@1450:111@3365:0@22:21@153:17]
  %lhs_V_3 = sext i8 %kernel_v_V_3_load to i16, !dbg !2525 ; [#uses=1 type=i16] [debug line = 1450:95@1450:111@3365:0@22:21@153:17]
  %window_V_3_load = load i8* @window_V_3, align 1, !dbg !3079 ; [#uses=1 type=i8] [debug line = 1450:95@1450:111@3365:0@22:21@153:17]
  %rhs_V_3 = zext i8 %window_V_3_load to i16, !dbg !3079 ; [#uses=1 type=i16] [debug line = 1450:95@1450:111@3365:0@22:21@153:17]
  %r_V_3 = mul i16 %lhs_V_3, %rhs_V_3, !dbg !3068 ; [#uses=1 type=i16] [debug line = 3365:0@22:21@153:17]
  %tmp_27_3_cast = sext i16 %r_V_3 to i17, !dbg !2525 ; [#uses=1 type=i17] [debug line = 1450:95@1450:111@3365:0@22:21@153:17]
  %kernel_v_V_4_load = load i8* @kernel_v_V_4, align 1, !dbg !2525 ; [#uses=1 type=i8] [debug line = 1450:95@1450:111@3365:0@22:21@153:17]
  %lhs_V_4 = sext i8 %kernel_v_V_4_load to i16, !dbg !2525 ; [#uses=1 type=i16] [debug line = 1450:95@1450:111@3365:0@22:21@153:17]
  %window_V_4_load = load i8* @window_V_4, align 1, !dbg !3079 ; [#uses=1 type=i8] [debug line = 1450:95@1450:111@3365:0@22:21@153:17]
  %rhs_V_4 = zext i8 %window_V_4_load to i16, !dbg !3079 ; [#uses=1 type=i16] [debug line = 1450:95@1450:111@3365:0@22:21@153:17]
  %r_V_7 = mul i16 %lhs_V_4, %rhs_V_4, !dbg !3068 ; [#uses=1 type=i16] [debug line = 3365:0@22:21@153:17]
  %tmp_27_4_cast = sext i16 %r_V_7 to i18, !dbg !2525 ; [#uses=1 type=i18] [debug line = 1450:95@1450:111@3365:0@22:21@153:17]
  %kernel_v_V_5_load = load i8* @kernel_v_V_5, align 1, !dbg !2525 ; [#uses=1 type=i8] [debug line = 1450:95@1450:111@3365:0@22:21@153:17]
  %lhs_V_5 = sext i8 %kernel_v_V_5_load to i16, !dbg !2525 ; [#uses=1 type=i16] [debug line = 1450:95@1450:111@3365:0@22:21@153:17]
  %window_V_5_load = load i8* @window_V_5, align 1, !dbg !3079 ; [#uses=1 type=i8] [debug line = 1450:95@1450:111@3365:0@22:21@153:17]
  %rhs_V_5 = zext i8 %window_V_5_load to i16, !dbg !3079 ; [#uses=1 type=i16] [debug line = 1450:95@1450:111@3365:0@22:21@153:17]
  %r_V_5 = mul i16 %lhs_V_5, %rhs_V_5, !dbg !3068 ; [#uses=1 type=i16] [debug line = 3365:0@22:21@153:17]
  %tmp_27_5_cast = sext i16 %r_V_5 to i17, !dbg !2525 ; [#uses=1 type=i17] [debug line = 1450:95@1450:111@3365:0@22:21@153:17]
  %kernel_v_V_6_load = load i8* @kernel_v_V_6, align 1, !dbg !2525 ; [#uses=1 type=i8] [debug line = 1450:95@1450:111@3365:0@22:21@153:17]
  %lhs_V_6 = sext i8 %kernel_v_V_6_load to i16, !dbg !2525 ; [#uses=1 type=i16] [debug line = 1450:95@1450:111@3365:0@22:21@153:17]
  %window_V_6_load = load i8* @window_V_6, align 1, !dbg !3079 ; [#uses=1 type=i8] [debug line = 1450:95@1450:111@3365:0@22:21@153:17]
  %rhs_V_6 = zext i8 %window_V_6_load to i16, !dbg !3079 ; [#uses=1 type=i16] [debug line = 1450:95@1450:111@3365:0@22:21@153:17]
  %r_V_6 = mul i16 %lhs_V_6, %rhs_V_6, !dbg !3068 ; [#uses=1 type=i16] [debug line = 3365:0@22:21@153:17]
  %tmp_27_6_cast = sext i16 %r_V_6 to i17, !dbg !3084 ; [#uses=1 type=i17] [debug line = 120:90@120:106@22:21@153:17]
  %tmp6 = add i17 %tmp_27_5_cast, %tmp_27_3_cast, !dbg !3084 ; [#uses=1 type=i17] [debug line = 120:90@120:106@22:21@153:17]
  %tmp6_cast = sext i17 %tmp6 to i18, !dbg !3084  ; [#uses=1 type=i18] [debug line = 120:90@120:106@22:21@153:17]
  %tmp5 = add i18 %tmp6_cast, %tmp_27_4_cast, !dbg !3084 ; [#uses=1 type=i18] [debug line = 120:90@120:106@22:21@153:17]
  %tmp5_cast = sext i18 %tmp5 to i19, !dbg !3084  ; [#uses=1 type=i19] [debug line = 120:90@120:106@22:21@153:17]
  %tmp8 = add i17 %tmp_20_cast, %tmp_27_2_cast, !dbg !3084 ; [#uses=1 type=i17] [debug line = 120:90@120:106@22:21@153:17]
  %tmp8_cast = sext i17 %tmp8 to i18, !dbg !3084  ; [#uses=1 type=i18] [debug line = 120:90@120:106@22:21@153:17]
  %tmp9 = add i17 %tmp_27_1_cast, %tmp_27_6_cast, !dbg !3084 ; [#uses=1 type=i17] [debug line = 120:90@120:106@22:21@153:17]
  %tmp9_cast = sext i17 %tmp9 to i18, !dbg !3084  ; [#uses=1 type=i18] [debug line = 120:90@120:106@22:21@153:17]
  %tmp7 = add i18 %tmp9_cast, %tmp8_cast, !dbg !3084 ; [#uses=1 type=i18] [debug line = 120:90@120:106@22:21@153:17]
  %tmp7_cast = sext i18 %tmp7 to i19, !dbg !3084  ; [#uses=1 type=i19] [debug line = 120:90@120:106@22:21@153:17]
  %temp_v_V_6 = add i19 %tmp7_cast, %tmp5_cast, !dbg !3084 ; [#uses=2 type=i19] [debug line = 120:90@120:106@22:21@153:17]
  %convolution_buffer_V_1_load = load i19* @convolution_buffer_V_1, align 4, !dbg !3676 ; [#uses=1 type=i19] [debug line = 172:10@27:3@153:17]
  %tmp_19 = sext i19 %convolution_buffer_V_1_load to i22, !dbg !1673 ; [#uses=1 type=i22] [debug line = 120:90@120:106@28:21@153:17]
  %tmp_20 = sext i8 %kernel_h_V_0_loc_1_load to i22, !dbg !1673 ; [#uses=1 type=i22] [debug line = 120:90@120:106@28:21@153:17]
  %tmp_21 = mul i22 %tmp_19, %tmp_20, !dbg !1673  ; [#uses=1 type=i22] [debug line = 120:90@120:106@28:21@153:17]
  %convolution_buffer_V_2_load = load i19* @convolution_buffer_V_2, align 8, !dbg !3676 ; [#uses=2 type=i19] [debug line = 172:10@27:3@153:17]
  store i19 %convolution_buffer_V_2_load, i19* @convolution_buffer_V_1, align 4, !dbg !3676 ; [debug line = 172:10@27:3@153:17]
  %tmp_34_1 = sext i19 %convolution_buffer_V_2_load to i22, !dbg !1673 ; [#uses=1 type=i22] [debug line = 120:90@120:106@28:21@153:17]
  %kernel_h_V_1_load = load i8* @kernel_h_V_1, align 1, !dbg !3680 ; [#uses=1 type=i8] [debug line = 1450:95@1450:111@3365:0@28:21@153:17]
  %tmp_35_1 = sext i8 %kernel_h_V_1_load to i22, !dbg !1673 ; [#uses=1 type=i22] [debug line = 120:90@120:106@28:21@153:17]
  %tmp_36_1 = mul i22 %tmp_34_1, %tmp_35_1, !dbg !1673 ; [#uses=1 type=i22] [debug line = 120:90@120:106@28:21@153:17]
  %convolution_buffer_V_3_load = load i19* @convolution_buffer_V_3, align 4, !dbg !3676 ; [#uses=2 type=i19] [debug line = 172:10@27:3@153:17]
  store i19 %convolution_buffer_V_3_load, i19* @convolution_buffer_V_2, align 8, !dbg !3676 ; [debug line = 172:10@27:3@153:17]
  %tmp_34_2 = sext i19 %convolution_buffer_V_3_load to i22, !dbg !1673 ; [#uses=1 type=i22] [debug line = 120:90@120:106@28:21@153:17]
  %kernel_h_V_2_load = load i8* @kernel_h_V_2, align 1, !dbg !3680 ; [#uses=1 type=i8] [debug line = 1450:95@1450:111@3365:0@28:21@153:17]
  %tmp_35_2 = sext i8 %kernel_h_V_2_load to i22, !dbg !1673 ; [#uses=1 type=i22] [debug line = 120:90@120:106@28:21@153:17]
  %tmp_36_2 = mul i22 %tmp_34_2, %tmp_35_2, !dbg !1673 ; [#uses=1 type=i22] [debug line = 120:90@120:106@28:21@153:17]
  %convolution_buffer_V_4_load = load i19* @convolution_buffer_V_4, align 16, !dbg !3676 ; [#uses=2 type=i19] [debug line = 172:10@27:3@153:17]
  store i19 %convolution_buffer_V_4_load, i19* @convolution_buffer_V_3, align 4, !dbg !3676 ; [debug line = 172:10@27:3@153:17]
  %tmp_34_3 = sext i19 %convolution_buffer_V_4_load to i22, !dbg !1673 ; [#uses=1 type=i22] [debug line = 120:90@120:106@28:21@153:17]
  %kernel_h_V_3_load = load i8* @kernel_h_V_3, align 1, !dbg !3680 ; [#uses=1 type=i8] [debug line = 1450:95@1450:111@3365:0@28:21@153:17]
  %tmp_35_3 = sext i8 %kernel_h_V_3_load to i22, !dbg !1673 ; [#uses=1 type=i22] [debug line = 120:90@120:106@28:21@153:17]
  %tmp_36_3 = mul i22 %tmp_34_3, %tmp_35_3, !dbg !1673 ; [#uses=1 type=i22] [debug line = 120:90@120:106@28:21@153:17]
  %convolution_buffer_V_5_load = load i19* @convolution_buffer_V_5, align 4, !dbg !3676 ; [#uses=2 type=i19] [debug line = 172:10@27:3@153:17]
  store i19 %convolution_buffer_V_5_load, i19* @convolution_buffer_V_4, align 16, !dbg !3676 ; [debug line = 172:10@27:3@153:17]
  %tmp_34_4 = sext i19 %convolution_buffer_V_5_load to i22, !dbg !1673 ; [#uses=1 type=i22] [debug line = 120:90@120:106@28:21@153:17]
  %kernel_h_V_4_load = load i8* @kernel_h_V_4, align 1, !dbg !3680 ; [#uses=1 type=i8] [debug line = 1450:95@1450:111@3365:0@28:21@153:17]
  %tmp_35_4 = sext i8 %kernel_h_V_4_load to i22, !dbg !1673 ; [#uses=1 type=i22] [debug line = 120:90@120:106@28:21@153:17]
  %tmp_36_4 = mul i22 %tmp_34_4, %tmp_35_4, !dbg !1673 ; [#uses=1 type=i22] [debug line = 120:90@120:106@28:21@153:17]
  %convolution_buffer_V_6_load = load i19* @convolution_buffer_V_6, align 8, !dbg !3676 ; [#uses=2 type=i19] [debug line = 172:10@27:3@153:17]
  store i19 %convolution_buffer_V_6_load, i19* @convolution_buffer_V_5, align 4, !dbg !3676 ; [debug line = 172:10@27:3@153:17]
  %tmp_34_5 = sext i19 %convolution_buffer_V_6_load to i22, !dbg !1673 ; [#uses=1 type=i22] [debug line = 120:90@120:106@28:21@153:17]
  %kernel_h_V_5_load = load i8* @kernel_h_V_5, align 1, !dbg !3680 ; [#uses=1 type=i8] [debug line = 1450:95@1450:111@3365:0@28:21@153:17]
  %tmp_35_5 = sext i8 %kernel_h_V_5_load to i22, !dbg !1673 ; [#uses=1 type=i22] [debug line = 120:90@120:106@28:21@153:17]
  %tmp_36_5 = mul i22 %tmp_34_5, %tmp_35_5, !dbg !1673 ; [#uses=1 type=i22] [debug line = 120:90@120:106@28:21@153:17]
  %tmp_22 = sext i19 %temp_v_V_6 to i22, !dbg !3958 ; [#uses=1 type=i22] [debug line = 120:90@120:106@31:20@153:17]
  %kernel_h_V_6_load = load i8* @kernel_h_V_6, align 1, !dbg !3961 ; [#uses=1 type=i8] [debug line = 1450:95@1450:111@3365:0@31:20@153:17]
  %tmp_23 = sext i8 %kernel_h_V_6_load to i22, !dbg !3958 ; [#uses=1 type=i22] [debug line = 120:90@120:106@31:20@153:17]
  %tmp_24 = mul i22 %tmp_22, %tmp_23, !dbg !3958  ; [#uses=1 type=i22] [debug line = 120:90@120:106@31:20@153:17]
  %tmp1 = add i22 %tmp_36_1, %tmp_36_2, !dbg !3958 ; [#uses=1 type=i22] [debug line = 120:90@120:106@31:20@153:17]
  %tmp2 = add i22 %tmp1, %tmp_21, !dbg !3958      ; [#uses=1 type=i22] [debug line = 120:90@120:106@31:20@153:17]
  %tmp3 = add i22 %tmp_36_3, %tmp_36_4, !dbg !3958 ; [#uses=1 type=i22] [debug line = 120:90@120:106@31:20@153:17]
  %tmp4 = add i22 %tmp_36_5, %tmp_24, !dbg !3958  ; [#uses=1 type=i22] [debug line = 120:90@120:106@31:20@153:17]
  %tmp10 = add i22 %tmp4, %tmp3, !dbg !3958       ; [#uses=1 type=i22] [debug line = 120:90@120:106@31:20@153:17]
  %temp_h_V = add i22 %tmp10, %tmp2, !dbg !3958   ; [#uses=1 type=i22] [debug line = 120:90@120:106@31:20@153:17]
  call void @llvm.dbg.value(metadata !{i22 %temp_h_V}, i64 0, metadata !3964) nounwind, !dbg !3972 ; [debug line = 172:10@31:20@153:17] [debug variable = temp_h.V]
  store i19 %temp_v_V_6, i19* @convolution_buffer_V_6, align 8, !dbg !3975 ; [debug line = 172:10@32:2@153:17]
  call void @llvm.dbg.value(metadata !{i8 %p_Val2_s}, i64 0, metadata !3977) nounwind, !dbg !3988 ; [debug line = 1204:139@2060:16@1885:22@34:13@153:17] [debug variable = __Val2__]
  %tmp_32 = call i1 @_ssdm_op_BitSelect.i1.i8.i32(i8 %p_Val2_s, i32 7), !dbg !3989 ; [#uses=1 type=i1] [debug line = 1204:141@2060:16@1885:22@34:13@153:17]
  call void @llvm.dbg.value(metadata !{i8 %p_Val2_s}, i64 0, metadata !3990) nounwind, !dbg !3997 ; [debug line = 1450:95@1450:111@1886:44@34:13@153:17] [debug variable = sh.V]
  %sh_V_1 = sub i8 0, %p_Val2_s, !dbg !4000       ; [#uses=1 type=i8] [debug line = 1573:9@1888:18@34:13@153:17]
  call void @llvm.dbg.value(metadata !{i8 %sh_V_1}, i64 0, metadata !4009) nounwind, !dbg !4000 ; [debug line = 1573:9@1888:18@34:13@153:17] [debug variable = sh.V]
  %tmp_25 = sext i8 %kernel_sum_V_load to i32, !dbg !4010 ; [#uses=1 type=i32] [debug line = 1915:9@1889:20@34:13@153:17]
  %tmp_26 = ashr i8 %kernel_sum_V_load, %sh_V_1, !dbg !4016 ; [#uses=1 type=i8] [debug line = 1915:26@1889:20@34:13@153:17]
  %tmp_27 = zext i8 %p_Val2_s to i32, !dbg !4017  ; [#uses=1 type=i32] [debug line = 1665:70@1897:26@1891:20@34:13@153:17]
  %tmp_28 = shl i32 %tmp_25, %tmp_27, !dbg !4020  ; [#uses=1 type=i32] [debug line = 1897:26@1891:20@34:13@153:17]
  %tmp_33 = trunc i32 %tmp_28 to i8               ; [#uses=1 type=i8]
  %r_V_1 = select i1 %tmp_32, i8 %tmp_26, i8 %tmp_33 ; [#uses=1 type=i8]
  call void @llvm.dbg.value(metadata !{i8 %r_V_1}, i64 0, metadata !4024) nounwind, !dbg !4016 ; [debug line = 1915:26@1889:20@34:13@153:17] [debug variable = r.V]
  %tmp_43_tr = sext i22 %temp_h_V to i23, !dbg !4026 ; [#uses=1 type=i23] [debug line = 3368:0@37:11@153:17]
  %tmp_44_tr = sext i8 %r_V_1 to i23, !dbg !4026  ; [#uses=1 type=i23] [debug line = 3368:0@37:11@153:17]
  %r_V_4 = sdiv i23 %tmp_43_tr, %tmp_44_tr, !dbg !4026 ; [#uses=1 type=i23] [debug line = 3368:0@37:11@153:17]
  call void @llvm.dbg.value(metadata !{i23 %r_V_4}, i64 0, metadata !4035) nounwind, !dbg !4026 ; [debug line = 3368:0@37:11@153:17] [debug variable = r.V]
  %tmp_34 = trunc i23 %r_V_4 to i8, !dbg !4042    ; [#uses=1 type=i8] [debug line = 939:85@1481:19@197:102@197:103@37:11@153:17]
  %r_V_9 = add i8 %tmp_34, %kernel_off_V_load, !dbg !4042 ; [#uses=1 type=i8] [debug line = 939:85@1481:19@197:102@197:103@37:11@153:17]
  call void @_ssdm_op_Write.axis.volatile.i8P(i8* %out_img_V, i8 %r_V_9), !dbg !4055 ; [debug line = 277:10@173:2]
  br label %._crit_edge84, !dbg !4057             ; [debug line = 174:4]

._crit_edge84:                                    ; preds = %.preheader.i.preheader_ifconv, %.loopexit._crit_edge
  %tmp_30 = add i19 %sep_convolution_filter_ap_int_6, 1, !dbg !4058 ; [#uses=1 type=i19] [debug line = 177:4]
  %empty = call i32 (...)* @_ssdm_op_SpecRegionEnd([9 x i8]* @p_str7, i32 %tmp_13), !dbg !4059 ; [#uses=0 type=i32] [debug line = 180:3]
  %col_1 = add i10 %col_mid2, 1, !dbg !4060       ; [#uses=1 type=i10] [debug line = 97:60]
  call void @llvm.dbg.value(metadata !{i10 %col_1}, i64 0, metadata !4061), !dbg !4060 ; [debug line = 97:60] [debug variable = col]
  br label %0

.reset:                                           ; preds = %0
  call void (...)* @_ssdm_op_SpecLoopName([18 x i8]* @Loop_row_Loop_col_str)
  %empty_2 = call i32 (...)* @_ssdm_op_SpecLoopTripCount(i64 310569, i64 310569, i64 310569) ; [#uses=0 type=i32]
  %tmp_1 = add i19 %sep_mulconvolution_filter_ap_int, 643, !dbg !4062 ; [#uses=2 type=i19] [debug line = 97:28]
  %exitcond = icmp eq i10 %col, -381, !dbg !4062  ; [#uses=6 type=i1] [debug line = 97:28]
  %sep_convolution_filter_ap_int_6 = select i1 %exitcond, i19 %tmp_1, i19 %sep_convolution_filter_ap_int_3 ; [#uses=7 type=i19]
  %col_mid2 = select i1 %exitcond, i10 0, i10 %col ; [#uses=5 type=i10]
  %row_s = add i9 %row, 1, !dbg !4063             ; [#uses=3 type=i9] [debug line = 96:60]
  %tmp_mid1 = icmp ult i9 %row_s, -32, !dbg !1662 ; [#uses=1 type=i1] [debug line = 142:4]
  %tmp = icmp ult i9 %row, -32, !dbg !1662        ; [#uses=1 type=i1] [debug line = 142:4]
  %tmp_mid2 = select i1 %exitcond, i1 %tmp_mid1, i1 %tmp, !dbg !1662 ; [#uses=1 type=i1] [debug line = 142:4]
  %tmp_2_mid1 = icmp ugt i9 %row_s, 2, !dbg !1672 ; [#uses=1 type=i1] [debug line = 150:4]
  %tmp_2 = icmp ugt i9 %row, 2, !dbg !1672        ; [#uses=1 type=i1] [debug line = 150:4]
  %tmp_2_mid2 = select i1 %exitcond, i1 %tmp_2_mid1, i1 %tmp_2, !dbg !1672 ; [#uses=1 type=i1] [debug line = 150:4]
  %sep_convolution_filter_ap_int_7 = select i1 %exitcond, i19 %tmp_1, i19 %sep_mulconvolution_filter_ap_int ; [#uses=1 type=i19]
  %row_mid2 = select i1 %exitcond, i9 %row_s, i9 %row ; [#uses=1 type=i9]
  call void (...)* @_ssdm_op_SpecLoopName([9 x i8]* @p_str7) nounwind, !dbg !4064 ; [debug line = 98:4]
  %tmp_13 = call i32 (...)* @_ssdm_op_SpecRegionBegin([9 x i8]* @p_str7), !dbg !4064 ; [#uses=1 type=i32] [debug line = 98:4]
  call void (...)* @_ssdm_op_SpecPipeline(i32 1, i32 1, i32 1, i32 0, [1 x i8]* @p_str) nounwind, !dbg !4065 ; [debug line = 99:1]
  %tmp_4 = icmp ult i19 %sep_convolution_filter_ap_int_6, 49, !dbg !4066 ; [#uses=1 type=i1] [debug line = 103:4]
  br i1 %tmp_4, label %._crit_edge79, label %8, !dbg !4066 ; [debug line = 103:4]

; <label>:18                                      ; preds = %0
  ret void, !dbg !4067                            ; [debug line = 182:1]

branch0:                                          ; preds = %5
  store i8 %kernel_config_V_load_3, i8* @kernel_v_V_0, align 1, !dbg !1646 ; [debug line = 172:10@118:6]
  br label %6, !dbg !1646                         ; [debug line = 172:10@118:6]

branch1:                                          ; preds = %5
  store i8 %kernel_config_V_load_3, i8* @kernel_v_V_1, align 1, !dbg !1646 ; [debug line = 172:10@118:6]
  br label %6, !dbg !1646                         ; [debug line = 172:10@118:6]

branch2:                                          ; preds = %5
  store i8 %kernel_config_V_load_3, i8* @kernel_v_V_2, align 1, !dbg !1646 ; [debug line = 172:10@118:6]
  br label %6, !dbg !1646                         ; [debug line = 172:10@118:6]

branch3:                                          ; preds = %5
  store i8 %kernel_config_V_load_3, i8* @kernel_v_V_3, align 1, !dbg !1646 ; [debug line = 172:10@118:6]
  br label %6, !dbg !1646                         ; [debug line = 172:10@118:6]

branch4:                                          ; preds = %5
  store i8 %kernel_config_V_load_3, i8* @kernel_v_V_4, align 1, !dbg !1646 ; [debug line = 172:10@118:6]
  br label %6, !dbg !1646                         ; [debug line = 172:10@118:6]

branch5:                                          ; preds = %5
  store i8 %kernel_config_V_load_3, i8* @kernel_v_V_5, align 1, !dbg !1646 ; [debug line = 172:10@118:6]
  br label %6, !dbg !1646                         ; [debug line = 172:10@118:6]

branch6:                                          ; preds = %5
  store i8 %kernel_config_V_load_3, i8* @kernel_v_V_6, align 1, !dbg !1646 ; [debug line = 172:10@118:6]
  br label %6, !dbg !1646                         ; [debug line = 172:10@118:6]

branch7:                                          ; preds = %1
  store i8 %kernel_config_V_load_1, i8* @kernel_h_V_0, align 1, !dbg !1641 ; [debug line = 172:10@113:6]
  store i8 %kernel_config_V_load_1, i8* %kernel_h_V_0_loc_1
  br label %2, !dbg !1641                         ; [debug line = 172:10@113:6]

branch8:                                          ; preds = %1
  store i8 %kernel_config_V_load_1, i8* @kernel_h_V_1, align 1, !dbg !1641 ; [debug line = 172:10@113:6]
  br label %2, !dbg !1641                         ; [debug line = 172:10@113:6]

branch9:                                          ; preds = %1
  store i8 %kernel_config_V_load_1, i8* @kernel_h_V_2, align 1, !dbg !1641 ; [debug line = 172:10@113:6]
  br label %2, !dbg !1641                         ; [debug line = 172:10@113:6]

branch10:                                         ; preds = %1
  store i8 %kernel_config_V_load_1, i8* @kernel_h_V_3, align 1, !dbg !1641 ; [debug line = 172:10@113:6]
  br label %2, !dbg !1641                         ; [debug line = 172:10@113:6]

branch11:                                         ; preds = %1
  store i8 %kernel_config_V_load_1, i8* @kernel_h_V_4, align 1, !dbg !1641 ; [debug line = 172:10@113:6]
  br label %2, !dbg !1641                         ; [debug line = 172:10@113:6]

branch12:                                         ; preds = %1
  store i8 %kernel_config_V_load_1, i8* @kernel_h_V_5, align 1, !dbg !1641 ; [debug line = 172:10@113:6]
  br label %2, !dbg !1641                         ; [debug line = 172:10@113:6]

branch13:                                         ; preds = %1
  store i8 %kernel_config_V_load_1, i8* @kernel_h_V_6, align 1, !dbg !1641 ; [debug line = 172:10@113:6]
  br label %2, !dbg !1641                         ; [debug line = 172:10@113:6]
}

; [#uses=11]
declare void @llvm.dbg.value(metadata, i64, metadata) nounwind readnone

; [#uses=1]
define weak void @_ssdm_op_Write.axis.volatile.i8P(i8*, i8) {
entry:
  store i8 %1, i8* %0
  ret void
}

; [#uses=1]
define weak void @_ssdm_op_SpecTopModule(...) {
entry:
  ret void
}

; [#uses=1]
define weak i32 @_ssdm_op_SpecRegionEnd(...) {
entry:
  ret i32 0
}

; [#uses=1]
define weak i32 @_ssdm_op_SpecRegionBegin(...) {
entry:
  ret i32 0
}

; [#uses=1]
define weak void @_ssdm_op_SpecPipeline(...) nounwind {
entry:
  ret void
}

; [#uses=1]
define weak i32 @_ssdm_op_SpecLoopTripCount(...) {
entry:
  ret i32 0
}

; [#uses=2]
define weak void @_ssdm_op_SpecLoopName(...) nounwind {
entry:
  ret void
}

; [#uses=3]
define weak void @_ssdm_op_SpecInterface(...) nounwind {
entry:
  ret void
}

; [#uses=3]
define weak void @_ssdm_op_SpecBitsMap(...) {
entry:
  ret void
}

; [#uses=1]
define weak i8 @_ssdm_op_Read.axis.volatile.i8P(i8*) {
entry:
  %empty = load i8* %0                            ; [#uses=1 type=i8]
  ret i8 %empty
}

; [#uses=0]
declare i8 @_ssdm_op_PartSelect.i8.i32.i32.i32(i32, i32, i32) nounwind readnone

; [#uses=0]
declare i8 @_ssdm_op_PartSelect.i8.i23.i32.i32(i23, i32, i32) nounwind readnone

; [#uses=0]
declare i3 @_ssdm_op_PartSelect.i3.i32.i32.i32(i32, i32, i32) nounwind readnone

; [#uses=1]
define weak i1 @_ssdm_op_BitSelect.i1.i8.i32(i8, i32) nounwind readnone {
entry:
  %empty = trunc i32 %1 to i8                     ; [#uses=1 type=i8]
  %empty_3 = shl i8 1, %empty                     ; [#uses=1 type=i8]
  %empty_4 = and i8 %0, %empty_3                  ; [#uses=1 type=i8]
  %empty_5 = icmp ne i8 %empty_4, 0               ; [#uses=1 type=i1]
  ret i1 %empty_5
}

; [#uses=1]
declare void @_GLOBAL__I_a() nounwind

!hls.encrypted.func = !{}
!llvm.map.gv = !{!0}

!0 = metadata !{metadata !1, [1 x i32]* @llvm_global_ctors_0}
!1 = metadata !{metadata !2}
!2 = metadata !{i32 0, i32 31, metadata !3}
!3 = metadata !{metadata !4}
!4 = metadata !{metadata !"llvm.global_ctors.0", metadata !5, metadata !"", i32 0, i32 31}
!5 = metadata !{metadata !6}
!6 = metadata !{i32 0, i32 0, i32 1}
!7 = metadata !{metadata !8}
!8 = metadata !{i32 0, i32 7, metadata !9}
!9 = metadata !{metadata !10}
!10 = metadata !{metadata !"kernel_config.V", metadata !11, metadata !"int8", i32 0, i32 7}
!11 = metadata !{metadata !12}
!12 = metadata !{i32 0, i32 51, i32 1}
!13 = metadata !{metadata !14}
!14 = metadata !{i32 0, i32 7, metadata !15}
!15 = metadata !{metadata !16}
!16 = metadata !{metadata !"in_img.V", metadata !17, metadata !"uint8", i32 0, i32 7}
!17 = metadata !{metadata !18}
!18 = metadata !{i32 0, i32 307199, i32 1}
!19 = metadata !{metadata !20}
!20 = metadata !{i32 0, i32 7, metadata !21}
!21 = metadata !{metadata !22}
!22 = metadata !{metadata !"out_img.V", metadata !17, metadata !"uint8", i32 0, i32 7}
!23 = metadata !{i32 790531, metadata !24, metadata !"kernel_config.V", null, i32 43, metadata !1593, i32 0, i32 0} ; [ DW_TAG_arg_variable_field ]
!24 = metadata !{i32 786689, metadata !25, metadata !"kernel_config", metadata !26, i32 16777259, metadata !29, i32 0, i32 0} ; [ DW_TAG_arg_variable ]
!25 = metadata !{i32 786478, i32 0, metadata !26, metadata !"sep_convolution_filter", metadata !"sep_convolution_filter", metadata !"_Z22sep_convolution_filterP6ap_intILi8EEP7ap_uintILi8EES4_", metadata !26, i32 41, metadata !27, i1 false, i1 true, i32 0, i32 0, null, i32 256, i1 false, null, null, null, metadata !48, i32 47} ; [ DW_TAG_subprogram ]
!26 = metadata !{i32 786473, metadata !"Sep_Convolution_Filter/sep_convolution_filter.cpp", metadata !"C:\5CUsers\5CLuca\5CDesktop\5CProgettoVivado\5COV_7670\5CHLS_COMMON\5CFILTERS", null} ; [ DW_TAG_file_type ]
!27 = metadata !{i32 786453, i32 0, metadata !"", i32 0, i32 0, i64 0, i64 0, i64 0, i32 0, null, metadata !28, i32 0, i32 0} ; [ DW_TAG_subroutine_type ]
!28 = metadata !{null, metadata !29, metadata !707, metadata !707}
!29 = metadata !{i32 786447, null, metadata !"", null, i32 0, i64 64, i64 64, i64 0, i32 0, metadata !30} ; [ DW_TAG_pointer_type ]
!30 = metadata !{i32 786454, null, metadata !"s_int", metadata !26, i32 29, i64 0, i64 0, i64 0, i32 0, metadata !31} ; [ DW_TAG_typedef ]
!31 = metadata !{i32 786434, null, metadata !"ap_int<8>", metadata !32, i32 73, i64 8, i64 8, i32 0, i32 0, null, metadata !33, i32 0, null, metadata !706} ; [ DW_TAG_class_type ]
!32 = metadata !{i32 786473, metadata !"C:/Xilinx/Vivado_HLS/2016.2/common/technology/autopilot\5Cap_int.h", metadata !"C:\5CUsers\5CLuca\5CDesktop\5CProgettoVivado\5COV_7670\5CHLS_COMMON\5CFILTERS", null} ; [ DW_TAG_file_type ]
!33 = metadata !{metadata !34, metadata !634, metadata !638, metadata !641, metadata !644, metadata !647, metadata !650, metadata !653, metadata !656, metadata !659, metadata !662, metadata !665, metadata !668, metadata !671, metadata !674, metadata !677, metadata !680, metadata !683, metadata !686, metadata !693, metadata !698, metadata !702, metadata !705}
!34 = metadata !{i32 786460, metadata !31, null, metadata !32, i32 0, i64 0, i64 0, i64 0, i32 0, metadata !35} ; [ DW_TAG_inheritance ]
!35 = metadata !{i32 786434, null, metadata !"ap_int_base<8, true, true>", metadata !36, i32 1397, i64 8, i64 8, i32 0, i32 0, null, metadata !37, i32 0, null, metadata !633} ; [ DW_TAG_class_type ]
!36 = metadata !{i32 786473, metadata !"C:/Xilinx/Vivado_HLS/2016.2/common/technology/autopilot/ap_int_syn.h", metadata !"C:\5CUsers\5CLuca\5CDesktop\5CProgettoVivado\5COV_7670\5CHLS_COMMON\5CFILTERS", null} ; [ DW_TAG_file_type ]
!37 = metadata !{metadata !38, metadata !55, metadata !59, metadata !67, metadata !73, metadata !76, metadata !80, metadata !84, metadata !88, metadata !92, metadata !95, metadata !99, metadata !103, metadata !107, metadata !112, metadata !117, metadata !121, metadata !125, metadata !131, metadata !134, metadata !138, metadata !141, metadata !144, metadata !145, metadata !149, metadata !152, metadata !155, metadata !158, metadata !161, metadata !164, metadata !167, metadata !170, metadata !173, metadata !176, metadata !179, metadata !182, metadata !192, metadata !195, metadata !198, metadata !201, metadata !204, metadata !207, metadata !210, metadata !213, metadata !216, metadata !219, metadata !222, metadata !225, metadata !228, metadata !229, metadata !233, metadata !236, metadata !237, metadata !238, metadata !239, metadata !240, metadata !241, metadata !244, metadata !245, metadata !248, metadata !249, metadata !250, metadata !251, metadata !252, metadata !253, metadata !256, metadata !257, metadata !258, metadata !261, metadata !262, metadata !265, metadata !266, metadata !554, metadata !558, metadata !562, metadata !563, metadata !566, metadata !567, metadata !606, metadata !607, metadata !608, metadata !609, metadata !612, metadata !613, metadata !614, metadata !615, metadata !616, metadata !617, metadata !618, metadata !619, metadata !620, metadata !621, metadata !622, metadata !623, metadata !626, metadata !629, metadata !632}
!38 = metadata !{i32 786460, metadata !35, null, metadata !36, i32 0, i64 0, i64 0, i64 0, i32 0, metadata !39} ; [ DW_TAG_inheritance ]
!39 = metadata !{i32 786434, null, metadata !"ssdm_int<8 + 1024 * 0, true>", metadata !40, i32 10, i64 8, i64 8, i32 0, i32 0, null, metadata !41, i32 0, null, metadata !50} ; [ DW_TAG_class_type ]
!40 = metadata !{i32 786473, metadata !"C:/Xilinx/Vivado_HLS/2016.2/common/technology/autopilot/etc/autopilot_dt.def", metadata !"C:\5CUsers\5CLuca\5CDesktop\5CProgettoVivado\5COV_7670\5CHLS_COMMON\5CFILTERS", null} ; [ DW_TAG_file_type ]
!41 = metadata !{metadata !42, metadata !44}
!42 = metadata !{i32 786445, metadata !39, metadata !"V", metadata !40, i32 10, i64 8, i64 8, i64 0, i32 0, metadata !43} ; [ DW_TAG_member ]
!43 = metadata !{i32 786468, null, metadata !"int8", null, i32 0, i64 8, i64 8, i64 0, i32 0, i32 5} ; [ DW_TAG_base_type ]
!44 = metadata !{i32 786478, i32 0, metadata !39, metadata !"ssdm_int", metadata !"ssdm_int", metadata !"", metadata !40, i32 10, metadata !45, i1 false, i1 false, i32 0, i32 0, null, i32 256, i1 false, null, null, i32 0, metadata !48, i32 10} ; [ DW_TAG_subprogram ]
!45 = metadata !{i32 786453, i32 0, metadata !"", i32 0, i32 0, i64 0, i64 0, i64 0, i32 0, null, metadata !46, i32 0, i32 0} ; [ DW_TAG_subroutine_type ]
!46 = metadata !{null, metadata !47}
!47 = metadata !{i32 786447, i32 0, metadata !"", i32 0, i32 0, i64 64, i64 64, i64 0, i32 64, metadata !39} ; [ DW_TAG_pointer_type ]
!48 = metadata !{metadata !49}
!49 = metadata !{i32 786468}                      ; [ DW_TAG_base_type ]
!50 = metadata !{metadata !51, metadata !53}
!51 = metadata !{i32 786480, null, metadata !"_AP_N", metadata !52, i64 8, null, i32 0, i32 0} ; [ DW_TAG_template_value_parameter ]
!52 = metadata !{i32 786468, null, metadata !"int", null, i32 0, i64 32, i64 32, i64 0, i32 0, i32 5} ; [ DW_TAG_base_type ]
!53 = metadata !{i32 786480, null, metadata !"_AP_S", metadata !54, i64 1, null, i32 0, i32 0} ; [ DW_TAG_template_value_parameter ]
!54 = metadata !{i32 786468, null, metadata !"bool", null, i32 0, i64 8, i64 8, i64 0, i32 0, i32 2} ; [ DW_TAG_base_type ]
!55 = metadata !{i32 786478, i32 0, metadata !35, metadata !"ap_int_base", metadata !"ap_int_base", metadata !"", metadata !36, i32 1438, metadata !56, i1 false, i1 false, i32 0, i32 0, null, i32 256, i1 false, null, null, i32 0, metadata !48, i32 1438} ; [ DW_TAG_subprogram ]
!56 = metadata !{i32 786453, i32 0, metadata !"", i32 0, i32 0, i64 0, i64 0, i64 0, i32 0, null, metadata !57, i32 0, i32 0} ; [ DW_TAG_subroutine_type ]
!57 = metadata !{null, metadata !58}
!58 = metadata !{i32 786447, i32 0, metadata !"", i32 0, i32 0, i64 64, i64 64, i64 0, i32 64, metadata !35} ; [ DW_TAG_pointer_type ]
!59 = metadata !{i32 786478, i32 0, metadata !35, metadata !"ap_int_base<8, true>", metadata !"ap_int_base<8, true>", metadata !"", metadata !36, i32 1450, metadata !60, i1 false, i1 false, i32 0, i32 0, null, i32 256, i1 false, null, metadata !64, i32 0, metadata !48, i32 1450} ; [ DW_TAG_subprogram ]
!60 = metadata !{i32 786453, i32 0, metadata !"", i32 0, i32 0, i64 0, i64 0, i64 0, i32 0, null, metadata !61, i32 0, i32 0} ; [ DW_TAG_subroutine_type ]
!61 = metadata !{null, metadata !58, metadata !62}
!62 = metadata !{i32 786448, null, null, null, i32 0, i64 0, i64 0, i64 0, i32 0, metadata !63} ; [ DW_TAG_reference_type ]
!63 = metadata !{i32 786470, null, metadata !"", null, i32 0, i64 0, i64 0, i64 0, i32 0, metadata !35} ; [ DW_TAG_const_type ]
!64 = metadata !{metadata !65, metadata !66}
!65 = metadata !{i32 786480, null, metadata !"_AP_W2", metadata !52, i64 8, null, i32 0, i32 0} ; [ DW_TAG_template_value_parameter ]
!66 = metadata !{i32 786480, null, metadata !"_AP_S2", metadata !54, i64 1, null, i32 0, i32 0} ; [ DW_TAG_template_value_parameter ]
!67 = metadata !{i32 786478, i32 0, metadata !35, metadata !"ap_int_base<8, true>", metadata !"ap_int_base<8, true>", metadata !"", metadata !36, i32 1453, metadata !68, i1 false, i1 false, i32 0, i32 0, null, i32 256, i1 false, null, metadata !64, i32 0, metadata !48, i32 1453} ; [ DW_TAG_subprogram ]
!68 = metadata !{i32 786453, i32 0, metadata !"", i32 0, i32 0, i64 0, i64 0, i64 0, i32 0, null, metadata !69, i32 0, i32 0} ; [ DW_TAG_subroutine_type ]
!69 = metadata !{null, metadata !58, metadata !70}
!70 = metadata !{i32 786448, null, null, null, i32 0, i64 0, i64 0, i64 0, i32 0, metadata !71} ; [ DW_TAG_reference_type ]
!71 = metadata !{i32 786470, null, metadata !"", null, i32 0, i64 0, i64 0, i64 0, i32 0, metadata !72} ; [ DW_TAG_const_type ]
!72 = metadata !{i32 786485, null, metadata !"", null, i32 0, i64 0, i64 0, i64 0, i32 0, metadata !35} ; [ DW_TAG_volatile_type ]
!73 = metadata !{i32 786478, i32 0, metadata !35, metadata !"ap_int_base", metadata !"ap_int_base", metadata !"", metadata !36, i32 1460, metadata !74, i1 false, i1 false, i32 0, i32 0, null, i32 384, i1 false, null, null, i32 0, metadata !48, i32 1460} ; [ DW_TAG_subprogram ]
!74 = metadata !{i32 786453, i32 0, metadata !"", i32 0, i32 0, i64 0, i64 0, i64 0, i32 0, null, metadata !75, i32 0, i32 0} ; [ DW_TAG_subroutine_type ]
!75 = metadata !{null, metadata !58, metadata !54}
!76 = metadata !{i32 786478, i32 0, metadata !35, metadata !"ap_int_base", metadata !"ap_int_base", metadata !"", metadata !36, i32 1461, metadata !77, i1 false, i1 false, i32 0, i32 0, null, i32 384, i1 false, null, null, i32 0, metadata !48, i32 1461} ; [ DW_TAG_subprogram ]
!77 = metadata !{i32 786453, i32 0, metadata !"", i32 0, i32 0, i64 0, i64 0, i64 0, i32 0, null, metadata !78, i32 0, i32 0} ; [ DW_TAG_subroutine_type ]
!78 = metadata !{null, metadata !58, metadata !79}
!79 = metadata !{i32 786468, null, metadata !"signed char", null, i32 0, i64 8, i64 8, i64 0, i32 0, i32 6} ; [ DW_TAG_base_type ]
!80 = metadata !{i32 786478, i32 0, metadata !35, metadata !"ap_int_base", metadata !"ap_int_base", metadata !"", metadata !36, i32 1462, metadata !81, i1 false, i1 false, i32 0, i32 0, null, i32 384, i1 false, null, null, i32 0, metadata !48, i32 1462} ; [ DW_TAG_subprogram ]
!81 = metadata !{i32 786453, i32 0, metadata !"", i32 0, i32 0, i64 0, i64 0, i64 0, i32 0, null, metadata !82, i32 0, i32 0} ; [ DW_TAG_subroutine_type ]
!82 = metadata !{null, metadata !58, metadata !83}
!83 = metadata !{i32 786468, null, metadata !"unsigned char", null, i32 0, i64 8, i64 8, i64 0, i32 0, i32 8} ; [ DW_TAG_base_type ]
!84 = metadata !{i32 786478, i32 0, metadata !35, metadata !"ap_int_base", metadata !"ap_int_base", metadata !"", metadata !36, i32 1463, metadata !85, i1 false, i1 false, i32 0, i32 0, null, i32 384, i1 false, null, null, i32 0, metadata !48, i32 1463} ; [ DW_TAG_subprogram ]
!85 = metadata !{i32 786453, i32 0, metadata !"", i32 0, i32 0, i64 0, i64 0, i64 0, i32 0, null, metadata !86, i32 0, i32 0} ; [ DW_TAG_subroutine_type ]
!86 = metadata !{null, metadata !58, metadata !87}
!87 = metadata !{i32 786468, null, metadata !"short", null, i32 0, i64 16, i64 16, i64 0, i32 0, i32 5} ; [ DW_TAG_base_type ]
!88 = metadata !{i32 786478, i32 0, metadata !35, metadata !"ap_int_base", metadata !"ap_int_base", metadata !"", metadata !36, i32 1464, metadata !89, i1 false, i1 false, i32 0, i32 0, null, i32 384, i1 false, null, null, i32 0, metadata !48, i32 1464} ; [ DW_TAG_subprogram ]
!89 = metadata !{i32 786453, i32 0, metadata !"", i32 0, i32 0, i64 0, i64 0, i64 0, i32 0, null, metadata !90, i32 0, i32 0} ; [ DW_TAG_subroutine_type ]
!90 = metadata !{null, metadata !58, metadata !91}
!91 = metadata !{i32 786468, null, metadata !"unsigned short", null, i32 0, i64 16, i64 16, i64 0, i32 0, i32 7} ; [ DW_TAG_base_type ]
!92 = metadata !{i32 786478, i32 0, metadata !35, metadata !"ap_int_base", metadata !"ap_int_base", metadata !"", metadata !36, i32 1465, metadata !93, i1 false, i1 false, i32 0, i32 0, null, i32 384, i1 false, null, null, i32 0, metadata !48, i32 1465} ; [ DW_TAG_subprogram ]
!93 = metadata !{i32 786453, i32 0, metadata !"", i32 0, i32 0, i64 0, i64 0, i64 0, i32 0, null, metadata !94, i32 0, i32 0} ; [ DW_TAG_subroutine_type ]
!94 = metadata !{null, metadata !58, metadata !52}
!95 = metadata !{i32 786478, i32 0, metadata !35, metadata !"ap_int_base", metadata !"ap_int_base", metadata !"", metadata !36, i32 1466, metadata !96, i1 false, i1 false, i32 0, i32 0, null, i32 384, i1 false, null, null, i32 0, metadata !48, i32 1466} ; [ DW_TAG_subprogram ]
!96 = metadata !{i32 786453, i32 0, metadata !"", i32 0, i32 0, i64 0, i64 0, i64 0, i32 0, null, metadata !97, i32 0, i32 0} ; [ DW_TAG_subroutine_type ]
!97 = metadata !{null, metadata !58, metadata !98}
!98 = metadata !{i32 786468, null, metadata !"unsigned int", null, i32 0, i64 32, i64 32, i64 0, i32 0, i32 7} ; [ DW_TAG_base_type ]
!99 = metadata !{i32 786478, i32 0, metadata !35, metadata !"ap_int_base", metadata !"ap_int_base", metadata !"", metadata !36, i32 1467, metadata !100, i1 false, i1 false, i32 0, i32 0, null, i32 384, i1 false, null, null, i32 0, metadata !48, i32 1467} ; [ DW_TAG_subprogram ]
!100 = metadata !{i32 786453, i32 0, metadata !"", i32 0, i32 0, i64 0, i64 0, i64 0, i32 0, null, metadata !101, i32 0, i32 0} ; [ DW_TAG_subroutine_type ]
!101 = metadata !{null, metadata !58, metadata !102}
!102 = metadata !{i32 786468, null, metadata !"long int", null, i32 0, i64 32, i64 32, i64 0, i32 0, i32 5} ; [ DW_TAG_base_type ]
!103 = metadata !{i32 786478, i32 0, metadata !35, metadata !"ap_int_base", metadata !"ap_int_base", metadata !"", metadata !36, i32 1468, metadata !104, i1 false, i1 false, i32 0, i32 0, null, i32 384, i1 false, null, null, i32 0, metadata !48, i32 1468} ; [ DW_TAG_subprogram ]
!104 = metadata !{i32 786453, i32 0, metadata !"", i32 0, i32 0, i64 0, i64 0, i64 0, i32 0, null, metadata !105, i32 0, i32 0} ; [ DW_TAG_subroutine_type ]
!105 = metadata !{null, metadata !58, metadata !106}
!106 = metadata !{i32 786468, null, metadata !"long unsigned int", null, i32 0, i64 32, i64 32, i64 0, i32 0, i32 7} ; [ DW_TAG_base_type ]
!107 = metadata !{i32 786478, i32 0, metadata !35, metadata !"ap_int_base", metadata !"ap_int_base", metadata !"", metadata !36, i32 1469, metadata !108, i1 false, i1 false, i32 0, i32 0, null, i32 384, i1 false, null, null, i32 0, metadata !48, i32 1469} ; [ DW_TAG_subprogram ]
!108 = metadata !{i32 786453, i32 0, metadata !"", i32 0, i32 0, i64 0, i64 0, i64 0, i32 0, null, metadata !109, i32 0, i32 0} ; [ DW_TAG_subroutine_type ]
!109 = metadata !{null, metadata !58, metadata !110}
!110 = metadata !{i32 786454, null, metadata !"ap_slong", metadata !36, i32 111, i64 0, i64 0, i64 0, i32 0, metadata !111} ; [ DW_TAG_typedef ]
!111 = metadata !{i32 786468, null, metadata !"long long int", null, i32 0, i64 64, i64 64, i64 0, i32 0, i32 5} ; [ DW_TAG_base_type ]
!112 = metadata !{i32 786478, i32 0, metadata !35, metadata !"ap_int_base", metadata !"ap_int_base", metadata !"", metadata !36, i32 1470, metadata !113, i1 false, i1 false, i32 0, i32 0, null, i32 384, i1 false, null, null, i32 0, metadata !48, i32 1470} ; [ DW_TAG_subprogram ]
!113 = metadata !{i32 786453, i32 0, metadata !"", i32 0, i32 0, i64 0, i64 0, i64 0, i32 0, null, metadata !114, i32 0, i32 0} ; [ DW_TAG_subroutine_type ]
!114 = metadata !{null, metadata !58, metadata !115}
!115 = metadata !{i32 786454, null, metadata !"ap_ulong", metadata !36, i32 110, i64 0, i64 0, i64 0, i32 0, metadata !116} ; [ DW_TAG_typedef ]
!116 = metadata !{i32 786468, null, metadata !"long long unsigned int", null, i32 0, i64 64, i64 64, i64 0, i32 0, i32 7} ; [ DW_TAG_base_type ]
!117 = metadata !{i32 786478, i32 0, metadata !35, metadata !"ap_int_base", metadata !"ap_int_base", metadata !"", metadata !36, i32 1471, metadata !118, i1 false, i1 false, i32 0, i32 0, null, i32 384, i1 false, null, null, i32 0, metadata !48, i32 1471} ; [ DW_TAG_subprogram ]
!118 = metadata !{i32 786453, i32 0, metadata !"", i32 0, i32 0, i64 0, i64 0, i64 0, i32 0, null, metadata !119, i32 0, i32 0} ; [ DW_TAG_subroutine_type ]
!119 = metadata !{null, metadata !58, metadata !120}
!120 = metadata !{i32 786468, null, metadata !"float", null, i32 0, i64 32, i64 32, i64 0, i32 0, i32 4} ; [ DW_TAG_base_type ]
!121 = metadata !{i32 786478, i32 0, metadata !35, metadata !"ap_int_base", metadata !"ap_int_base", metadata !"", metadata !36, i32 1472, metadata !122, i1 false, i1 false, i32 0, i32 0, null, i32 384, i1 false, null, null, i32 0, metadata !48, i32 1472} ; [ DW_TAG_subprogram ]
!122 = metadata !{i32 786453, i32 0, metadata !"", i32 0, i32 0, i64 0, i64 0, i64 0, i32 0, null, metadata !123, i32 0, i32 0} ; [ DW_TAG_subroutine_type ]
!123 = metadata !{null, metadata !58, metadata !124}
!124 = metadata !{i32 786468, null, metadata !"double", null, i32 0, i64 64, i64 64, i64 0, i32 0, i32 4} ; [ DW_TAG_base_type ]
!125 = metadata !{i32 786478, i32 0, metadata !35, metadata !"ap_int_base", metadata !"ap_int_base", metadata !"", metadata !36, i32 1499, metadata !126, i1 false, i1 false, i32 0, i32 0, null, i32 256, i1 false, null, null, i32 0, metadata !48, i32 1499} ; [ DW_TAG_subprogram ]
!126 = metadata !{i32 786453, i32 0, metadata !"", i32 0, i32 0, i64 0, i64 0, i64 0, i32 0, null, metadata !127, i32 0, i32 0} ; [ DW_TAG_subroutine_type ]
!127 = metadata !{null, metadata !58, metadata !128}
!128 = metadata !{i32 786447, null, metadata !"", null, i32 0, i64 64, i64 64, i64 0, i32 0, metadata !129} ; [ DW_TAG_pointer_type ]
!129 = metadata !{i32 786470, null, metadata !"", null, i32 0, i64 0, i64 0, i64 0, i32 0, metadata !130} ; [ DW_TAG_const_type ]
!130 = metadata !{i32 786468, null, metadata !"char", null, i32 0, i64 8, i64 8, i64 0, i32 0, i32 6} ; [ DW_TAG_base_type ]
!131 = metadata !{i32 786478, i32 0, metadata !35, metadata !"ap_int_base", metadata !"ap_int_base", metadata !"", metadata !36, i32 1506, metadata !132, i1 false, i1 false, i32 0, i32 0, null, i32 256, i1 false, null, null, i32 0, metadata !48, i32 1506} ; [ DW_TAG_subprogram ]
!132 = metadata !{i32 786453, i32 0, metadata !"", i32 0, i32 0, i64 0, i64 0, i64 0, i32 0, null, metadata !133, i32 0, i32 0} ; [ DW_TAG_subroutine_type ]
!133 = metadata !{null, metadata !58, metadata !128, metadata !79}
!134 = metadata !{i32 786478, i32 0, metadata !35, metadata !"read", metadata !"read", metadata !"_ZNV11ap_int_baseILi8ELb1ELb1EE4readEv", metadata !36, i32 1527, metadata !135, i1 false, i1 false, i32 0, i32 0, null, i32 256, i1 false, null, null, i32 0, metadata !48, i32 1527} ; [ DW_TAG_subprogram ]
!135 = metadata !{i32 786453, i32 0, metadata !"", i32 0, i32 0, i64 0, i64 0, i64 0, i32 0, null, metadata !136, i32 0, i32 0} ; [ DW_TAG_subroutine_type ]
!136 = metadata !{metadata !35, metadata !137}
!137 = metadata !{i32 786447, i32 0, metadata !"", i32 0, i32 0, i64 64, i64 64, i64 0, i32 64, metadata !72} ; [ DW_TAG_pointer_type ]
!138 = metadata !{i32 786478, i32 0, metadata !35, metadata !"write", metadata !"write", metadata !"_ZNV11ap_int_baseILi8ELb1ELb1EE5writeERKS0_", metadata !36, i32 1533, metadata !139, i1 false, i1 false, i32 0, i32 0, null, i32 256, i1 false, null, null, i32 0, metadata !48, i32 1533} ; [ DW_TAG_subprogram ]
!139 = metadata !{i32 786453, i32 0, metadata !"", i32 0, i32 0, i64 0, i64 0, i64 0, i32 0, null, metadata !140, i32 0, i32 0} ; [ DW_TAG_subroutine_type ]
!140 = metadata !{null, metadata !137, metadata !62}
!141 = metadata !{i32 786478, i32 0, metadata !35, metadata !"operator=", metadata !"operator=", metadata !"_ZNV11ap_int_baseILi8ELb1ELb1EEaSERVKS0_", metadata !36, i32 1545, metadata !142, i1 false, i1 false, i32 0, i32 0, null, i32 256, i1 false, null, null, i32 0, metadata !48, i32 1545} ; [ DW_TAG_subprogram ]
!142 = metadata !{i32 786453, i32 0, metadata !"", i32 0, i32 0, i64 0, i64 0, i64 0, i32 0, null, metadata !143, i32 0, i32 0} ; [ DW_TAG_subroutine_type ]
!143 = metadata !{null, metadata !137, metadata !70}
!144 = metadata !{i32 786478, i32 0, metadata !35, metadata !"operator=", metadata !"operator=", metadata !"_ZNV11ap_int_baseILi8ELb1ELb1EEaSERKS0_", metadata !36, i32 1554, metadata !139, i1 false, i1 false, i32 0, i32 0, null, i32 256, i1 false, null, null, i32 0, metadata !48, i32 1554} ; [ DW_TAG_subprogram ]
!145 = metadata !{i32 786478, i32 0, metadata !35, metadata !"operator=", metadata !"operator=", metadata !"_ZN11ap_int_baseILi8ELb1ELb1EEaSERVKS0_", metadata !36, i32 1577, metadata !146, i1 false, i1 false, i32 0, i32 0, null, i32 256, i1 false, null, null, i32 0, metadata !48, i32 1577} ; [ DW_TAG_subprogram ]
!146 = metadata !{i32 786453, i32 0, metadata !"", i32 0, i32 0, i64 0, i64 0, i64 0, i32 0, null, metadata !147, i32 0, i32 0} ; [ DW_TAG_subroutine_type ]
!147 = metadata !{metadata !148, metadata !58, metadata !70}
!148 = metadata !{i32 786448, null, null, null, i32 0, i64 0, i64 0, i64 0, i32 0, metadata !35} ; [ DW_TAG_reference_type ]
!149 = metadata !{i32 786478, i32 0, metadata !35, metadata !"operator=", metadata !"operator=", metadata !"_ZN11ap_int_baseILi8ELb1ELb1EEaSERKS0_", metadata !36, i32 1582, metadata !150, i1 false, i1 false, i32 0, i32 0, null, i32 256, i1 false, null, null, i32 0, metadata !48, i32 1582} ; [ DW_TAG_subprogram ]
!150 = metadata !{i32 786453, i32 0, metadata !"", i32 0, i32 0, i64 0, i64 0, i64 0, i32 0, null, metadata !151, i32 0, i32 0} ; [ DW_TAG_subroutine_type ]
!151 = metadata !{metadata !148, metadata !58, metadata !62}
!152 = metadata !{i32 786478, i32 0, metadata !35, metadata !"operator=", metadata !"operator=", metadata !"_ZN11ap_int_baseILi8ELb1ELb1EEaSEPKc", metadata !36, i32 1586, metadata !153, i1 false, i1 false, i32 0, i32 0, null, i32 256, i1 false, null, null, i32 0, metadata !48, i32 1586} ; [ DW_TAG_subprogram ]
!153 = metadata !{i32 786453, i32 0, metadata !"", i32 0, i32 0, i64 0, i64 0, i64 0, i32 0, null, metadata !154, i32 0, i32 0} ; [ DW_TAG_subroutine_type ]
!154 = metadata !{metadata !148, metadata !58, metadata !128}
!155 = metadata !{i32 786478, i32 0, metadata !35, metadata !"set", metadata !"set", metadata !"_ZN11ap_int_baseILi8ELb1ELb1EE3setEPKca", metadata !36, i32 1594, metadata !156, i1 false, i1 false, i32 0, i32 0, null, i32 256, i1 false, null, null, i32 0, metadata !48, i32 1594} ; [ DW_TAG_subprogram ]
!156 = metadata !{i32 786453, i32 0, metadata !"", i32 0, i32 0, i64 0, i64 0, i64 0, i32 0, null, metadata !157, i32 0, i32 0} ; [ DW_TAG_subroutine_type ]
!157 = metadata !{metadata !148, metadata !58, metadata !128, metadata !79}
!158 = metadata !{i32 786478, i32 0, metadata !35, metadata !"operator=", metadata !"operator=", metadata !"_ZN11ap_int_baseILi8ELb1ELb1EEaSEa", metadata !36, i32 1608, metadata !159, i1 false, i1 false, i32 0, i32 0, null, i32 256, i1 false, null, null, i32 0, metadata !48, i32 1608} ; [ DW_TAG_subprogram ]
!159 = metadata !{i32 786453, i32 0, metadata !"", i32 0, i32 0, i64 0, i64 0, i64 0, i32 0, null, metadata !160, i32 0, i32 0} ; [ DW_TAG_subroutine_type ]
!160 = metadata !{metadata !148, metadata !58, metadata !79}
!161 = metadata !{i32 786478, i32 0, metadata !35, metadata !"operator=", metadata !"operator=", metadata !"_ZN11ap_int_baseILi8ELb1ELb1EEaSEh", metadata !36, i32 1609, metadata !162, i1 false, i1 false, i32 0, i32 0, null, i32 256, i1 false, null, null, i32 0, metadata !48, i32 1609} ; [ DW_TAG_subprogram ]
!162 = metadata !{i32 786453, i32 0, metadata !"", i32 0, i32 0, i64 0, i64 0, i64 0, i32 0, null, metadata !163, i32 0, i32 0} ; [ DW_TAG_subroutine_type ]
!163 = metadata !{metadata !148, metadata !58, metadata !83}
!164 = metadata !{i32 786478, i32 0, metadata !35, metadata !"operator=", metadata !"operator=", metadata !"_ZN11ap_int_baseILi8ELb1ELb1EEaSEs", metadata !36, i32 1610, metadata !165, i1 false, i1 false, i32 0, i32 0, null, i32 256, i1 false, null, null, i32 0, metadata !48, i32 1610} ; [ DW_TAG_subprogram ]
!165 = metadata !{i32 786453, i32 0, metadata !"", i32 0, i32 0, i64 0, i64 0, i64 0, i32 0, null, metadata !166, i32 0, i32 0} ; [ DW_TAG_subroutine_type ]
!166 = metadata !{metadata !148, metadata !58, metadata !87}
!167 = metadata !{i32 786478, i32 0, metadata !35, metadata !"operator=", metadata !"operator=", metadata !"_ZN11ap_int_baseILi8ELb1ELb1EEaSEt", metadata !36, i32 1611, metadata !168, i1 false, i1 false, i32 0, i32 0, null, i32 256, i1 false, null, null, i32 0, metadata !48, i32 1611} ; [ DW_TAG_subprogram ]
!168 = metadata !{i32 786453, i32 0, metadata !"", i32 0, i32 0, i64 0, i64 0, i64 0, i32 0, null, metadata !169, i32 0, i32 0} ; [ DW_TAG_subroutine_type ]
!169 = metadata !{metadata !148, metadata !58, metadata !91}
!170 = metadata !{i32 786478, i32 0, metadata !35, metadata !"operator=", metadata !"operator=", metadata !"_ZN11ap_int_baseILi8ELb1ELb1EEaSEi", metadata !36, i32 1612, metadata !171, i1 false, i1 false, i32 0, i32 0, null, i32 256, i1 false, null, null, i32 0, metadata !48, i32 1612} ; [ DW_TAG_subprogram ]
!171 = metadata !{i32 786453, i32 0, metadata !"", i32 0, i32 0, i64 0, i64 0, i64 0, i32 0, null, metadata !172, i32 0, i32 0} ; [ DW_TAG_subroutine_type ]
!172 = metadata !{metadata !148, metadata !58, metadata !52}
!173 = metadata !{i32 786478, i32 0, metadata !35, metadata !"operator=", metadata !"operator=", metadata !"_ZN11ap_int_baseILi8ELb1ELb1EEaSEj", metadata !36, i32 1613, metadata !174, i1 false, i1 false, i32 0, i32 0, null, i32 256, i1 false, null, null, i32 0, metadata !48, i32 1613} ; [ DW_TAG_subprogram ]
!174 = metadata !{i32 786453, i32 0, metadata !"", i32 0, i32 0, i64 0, i64 0, i64 0, i32 0, null, metadata !175, i32 0, i32 0} ; [ DW_TAG_subroutine_type ]
!175 = metadata !{metadata !148, metadata !58, metadata !98}
!176 = metadata !{i32 786478, i32 0, metadata !35, metadata !"operator=", metadata !"operator=", metadata !"_ZN11ap_int_baseILi8ELb1ELb1EEaSEx", metadata !36, i32 1614, metadata !177, i1 false, i1 false, i32 0, i32 0, null, i32 256, i1 false, null, null, i32 0, metadata !48, i32 1614} ; [ DW_TAG_subprogram ]
!177 = metadata !{i32 786453, i32 0, metadata !"", i32 0, i32 0, i64 0, i64 0, i64 0, i32 0, null, metadata !178, i32 0, i32 0} ; [ DW_TAG_subroutine_type ]
!178 = metadata !{metadata !148, metadata !58, metadata !110}
!179 = metadata !{i32 786478, i32 0, metadata !35, metadata !"operator=", metadata !"operator=", metadata !"_ZN11ap_int_baseILi8ELb1ELb1EEaSEy", metadata !36, i32 1615, metadata !180, i1 false, i1 false, i32 0, i32 0, null, i32 256, i1 false, null, null, i32 0, metadata !48, i32 1615} ; [ DW_TAG_subprogram ]
!180 = metadata !{i32 786453, i32 0, metadata !"", i32 0, i32 0, i64 0, i64 0, i64 0, i32 0, null, metadata !181, i32 0, i32 0} ; [ DW_TAG_subroutine_type ]
!181 = metadata !{metadata !148, metadata !58, metadata !115}
!182 = metadata !{i32 786478, i32 0, metadata !35, metadata !"operator signed char", metadata !"operator signed char", metadata !"_ZNK11ap_int_baseILi8ELb1ELb1EEcvaEv", metadata !36, i32 1653, metadata !183, i1 false, i1 false, i32 0, i32 0, null, i32 256, i1 false, null, null, i32 0, metadata !48, i32 1653} ; [ DW_TAG_subprogram ]
!183 = metadata !{i32 786453, i32 0, metadata !"", i32 0, i32 0, i64 0, i64 0, i64 0, i32 0, null, metadata !184, i32 0, i32 0} ; [ DW_TAG_subroutine_type ]
!184 = metadata !{metadata !185, metadata !191}
!185 = metadata !{i32 786454, metadata !35, metadata !"RetType", metadata !36, i32 1402, i64 0, i64 0, i64 0, i32 0, metadata !186} ; [ DW_TAG_typedef ]
!186 = metadata !{i32 786454, metadata !187, metadata !"Type", metadata !36, i32 1367, i64 0, i64 0, i64 0, i32 0, metadata !79} ; [ DW_TAG_typedef ]
!187 = metadata !{i32 786434, null, metadata !"retval<1, true>", metadata !36, i32 1366, i64 8, i64 8, i32 0, i32 0, null, metadata !188, i32 0, null, metadata !189} ; [ DW_TAG_class_type ]
!188 = metadata !{i32 0}
!189 = metadata !{metadata !190, metadata !53}
!190 = metadata !{i32 786480, null, metadata !"_AP_N", metadata !52, i64 1, null, i32 0, i32 0} ; [ DW_TAG_template_value_parameter ]
!191 = metadata !{i32 786447, i32 0, metadata !"", i32 0, i32 0, i64 64, i64 64, i64 0, i32 64, metadata !63} ; [ DW_TAG_pointer_type ]
!192 = metadata !{i32 786478, i32 0, metadata !35, metadata !"to_bool", metadata !"to_bool", metadata !"_ZNK11ap_int_baseILi8ELb1ELb1EE7to_boolEv", metadata !36, i32 1659, metadata !193, i1 false, i1 false, i32 0, i32 0, null, i32 256, i1 false, null, null, i32 0, metadata !48, i32 1659} ; [ DW_TAG_subprogram ]
!193 = metadata !{i32 786453, i32 0, metadata !"", i32 0, i32 0, i64 0, i64 0, i64 0, i32 0, null, metadata !194, i32 0, i32 0} ; [ DW_TAG_subroutine_type ]
!194 = metadata !{metadata !54, metadata !191}
!195 = metadata !{i32 786478, i32 0, metadata !35, metadata !"to_uchar", metadata !"to_uchar", metadata !"_ZNK11ap_int_baseILi8ELb1ELb1EE8to_ucharEv", metadata !36, i32 1660, metadata !196, i1 false, i1 false, i32 0, i32 0, null, i32 256, i1 false, null, null, i32 0, metadata !48, i32 1660} ; [ DW_TAG_subprogram ]
!196 = metadata !{i32 786453, i32 0, metadata !"", i32 0, i32 0, i64 0, i64 0, i64 0, i32 0, null, metadata !197, i32 0, i32 0} ; [ DW_TAG_subroutine_type ]
!197 = metadata !{metadata !83, metadata !191}
!198 = metadata !{i32 786478, i32 0, metadata !35, metadata !"to_char", metadata !"to_char", metadata !"_ZNK11ap_int_baseILi8ELb1ELb1EE7to_charEv", metadata !36, i32 1661, metadata !199, i1 false, i1 false, i32 0, i32 0, null, i32 256, i1 false, null, null, i32 0, metadata !48, i32 1661} ; [ DW_TAG_subprogram ]
!199 = metadata !{i32 786453, i32 0, metadata !"", i32 0, i32 0, i64 0, i64 0, i64 0, i32 0, null, metadata !200, i32 0, i32 0} ; [ DW_TAG_subroutine_type ]
!200 = metadata !{metadata !79, metadata !191}
!201 = metadata !{i32 786478, i32 0, metadata !35, metadata !"to_ushort", metadata !"to_ushort", metadata !"_ZNK11ap_int_baseILi8ELb1ELb1EE9to_ushortEv", metadata !36, i32 1662, metadata !202, i1 false, i1 false, i32 0, i32 0, null, i32 256, i1 false, null, null, i32 0, metadata !48, i32 1662} ; [ DW_TAG_subprogram ]
!202 = metadata !{i32 786453, i32 0, metadata !"", i32 0, i32 0, i64 0, i64 0, i64 0, i32 0, null, metadata !203, i32 0, i32 0} ; [ DW_TAG_subroutine_type ]
!203 = metadata !{metadata !91, metadata !191}
!204 = metadata !{i32 786478, i32 0, metadata !35, metadata !"to_short", metadata !"to_short", metadata !"_ZNK11ap_int_baseILi8ELb1ELb1EE8to_shortEv", metadata !36, i32 1663, metadata !205, i1 false, i1 false, i32 0, i32 0, null, i32 256, i1 false, null, null, i32 0, metadata !48, i32 1663} ; [ DW_TAG_subprogram ]
!205 = metadata !{i32 786453, i32 0, metadata !"", i32 0, i32 0, i64 0, i64 0, i64 0, i32 0, null, metadata !206, i32 0, i32 0} ; [ DW_TAG_subroutine_type ]
!206 = metadata !{metadata !87, metadata !191}
!207 = metadata !{i32 786478, i32 0, metadata !35, metadata !"to_int", metadata !"to_int", metadata !"_ZNK11ap_int_baseILi8ELb1ELb1EE6to_intEv", metadata !36, i32 1664, metadata !208, i1 false, i1 false, i32 0, i32 0, null, i32 256, i1 false, null, null, i32 0, metadata !48, i32 1664} ; [ DW_TAG_subprogram ]
!208 = metadata !{i32 786453, i32 0, metadata !"", i32 0, i32 0, i64 0, i64 0, i64 0, i32 0, null, metadata !209, i32 0, i32 0} ; [ DW_TAG_subroutine_type ]
!209 = metadata !{metadata !52, metadata !191}
!210 = metadata !{i32 786478, i32 0, metadata !35, metadata !"to_uint", metadata !"to_uint", metadata !"_ZNK11ap_int_baseILi8ELb1ELb1EE7to_uintEv", metadata !36, i32 1665, metadata !211, i1 false, i1 false, i32 0, i32 0, null, i32 256, i1 false, null, null, i32 0, metadata !48, i32 1665} ; [ DW_TAG_subprogram ]
!211 = metadata !{i32 786453, i32 0, metadata !"", i32 0, i32 0, i64 0, i64 0, i64 0, i32 0, null, metadata !212, i32 0, i32 0} ; [ DW_TAG_subroutine_type ]
!212 = metadata !{metadata !98, metadata !191}
!213 = metadata !{i32 786478, i32 0, metadata !35, metadata !"to_long", metadata !"to_long", metadata !"_ZNK11ap_int_baseILi8ELb1ELb1EE7to_longEv", metadata !36, i32 1666, metadata !214, i1 false, i1 false, i32 0, i32 0, null, i32 256, i1 false, null, null, i32 0, metadata !48, i32 1666} ; [ DW_TAG_subprogram ]
!214 = metadata !{i32 786453, i32 0, metadata !"", i32 0, i32 0, i64 0, i64 0, i64 0, i32 0, null, metadata !215, i32 0, i32 0} ; [ DW_TAG_subroutine_type ]
!215 = metadata !{metadata !102, metadata !191}
!216 = metadata !{i32 786478, i32 0, metadata !35, metadata !"to_ulong", metadata !"to_ulong", metadata !"_ZNK11ap_int_baseILi8ELb1ELb1EE8to_ulongEv", metadata !36, i32 1667, metadata !217, i1 false, i1 false, i32 0, i32 0, null, i32 256, i1 false, null, null, i32 0, metadata !48, i32 1667} ; [ DW_TAG_subprogram ]
!217 = metadata !{i32 786453, i32 0, metadata !"", i32 0, i32 0, i64 0, i64 0, i64 0, i32 0, null, metadata !218, i32 0, i32 0} ; [ DW_TAG_subroutine_type ]
!218 = metadata !{metadata !106, metadata !191}
!219 = metadata !{i32 786478, i32 0, metadata !35, metadata !"to_int64", metadata !"to_int64", metadata !"_ZNK11ap_int_baseILi8ELb1ELb1EE8to_int64Ev", metadata !36, i32 1668, metadata !220, i1 false, i1 false, i32 0, i32 0, null, i32 256, i1 false, null, null, i32 0, metadata !48, i32 1668} ; [ DW_TAG_subprogram ]
!220 = metadata !{i32 786453, i32 0, metadata !"", i32 0, i32 0, i64 0, i64 0, i64 0, i32 0, null, metadata !221, i32 0, i32 0} ; [ DW_TAG_subroutine_type ]
!221 = metadata !{metadata !110, metadata !191}
!222 = metadata !{i32 786478, i32 0, metadata !35, metadata !"to_uint64", metadata !"to_uint64", metadata !"_ZNK11ap_int_baseILi8ELb1ELb1EE9to_uint64Ev", metadata !36, i32 1669, metadata !223, i1 false, i1 false, i32 0, i32 0, null, i32 256, i1 false, null, null, i32 0, metadata !48, i32 1669} ; [ DW_TAG_subprogram ]
!223 = metadata !{i32 786453, i32 0, metadata !"", i32 0, i32 0, i64 0, i64 0, i64 0, i32 0, null, metadata !224, i32 0, i32 0} ; [ DW_TAG_subroutine_type ]
!224 = metadata !{metadata !115, metadata !191}
!225 = metadata !{i32 786478, i32 0, metadata !35, metadata !"to_double", metadata !"to_double", metadata !"_ZNK11ap_int_baseILi8ELb1ELb1EE9to_doubleEv", metadata !36, i32 1670, metadata !226, i1 false, i1 false, i32 0, i32 0, null, i32 256, i1 false, null, null, i32 0, metadata !48, i32 1670} ; [ DW_TAG_subprogram ]
!226 = metadata !{i32 786453, i32 0, metadata !"", i32 0, i32 0, i64 0, i64 0, i64 0, i32 0, null, metadata !227, i32 0, i32 0} ; [ DW_TAG_subroutine_type ]
!227 = metadata !{metadata !124, metadata !191}
!228 = metadata !{i32 786478, i32 0, metadata !35, metadata !"length", metadata !"length", metadata !"_ZNK11ap_int_baseILi8ELb1ELb1EE6lengthEv", metadata !36, i32 1684, metadata !208, i1 false, i1 false, i32 0, i32 0, null, i32 256, i1 false, null, null, i32 0, metadata !48, i32 1684} ; [ DW_TAG_subprogram ]
!229 = metadata !{i32 786478, i32 0, metadata !35, metadata !"length", metadata !"length", metadata !"_ZNVK11ap_int_baseILi8ELb1ELb1EE6lengthEv", metadata !36, i32 1685, metadata !230, i1 false, i1 false, i32 0, i32 0, null, i32 256, i1 false, null, null, i32 0, metadata !48, i32 1685} ; [ DW_TAG_subprogram ]
!230 = metadata !{i32 786453, i32 0, metadata !"", i32 0, i32 0, i64 0, i64 0, i64 0, i32 0, null, metadata !231, i32 0, i32 0} ; [ DW_TAG_subroutine_type ]
!231 = metadata !{metadata !52, metadata !232}
!232 = metadata !{i32 786447, i32 0, metadata !"", i32 0, i32 0, i64 64, i64 64, i64 0, i32 64, metadata !71} ; [ DW_TAG_pointer_type ]
!233 = metadata !{i32 786478, i32 0, metadata !35, metadata !"reverse", metadata !"reverse", metadata !"_ZN11ap_int_baseILi8ELb1ELb1EE7reverseEv", metadata !36, i32 1690, metadata !234, i1 false, i1 false, i32 0, i32 0, null, i32 256, i1 false, null, null, i32 0, metadata !48, i32 1690} ; [ DW_TAG_subprogram ]
!234 = metadata !{i32 786453, i32 0, metadata !"", i32 0, i32 0, i64 0, i64 0, i64 0, i32 0, null, metadata !235, i32 0, i32 0} ; [ DW_TAG_subroutine_type ]
!235 = metadata !{metadata !148, metadata !58}
!236 = metadata !{i32 786478, i32 0, metadata !35, metadata !"iszero", metadata !"iszero", metadata !"_ZNK11ap_int_baseILi8ELb1ELb1EE6iszeroEv", metadata !36, i32 1696, metadata !193, i1 false, i1 false, i32 0, i32 0, null, i32 256, i1 false, null, null, i32 0, metadata !48, i32 1696} ; [ DW_TAG_subprogram ]
!237 = metadata !{i32 786478, i32 0, metadata !35, metadata !"is_zero", metadata !"is_zero", metadata !"_ZNK11ap_int_baseILi8ELb1ELb1EE7is_zeroEv", metadata !36, i32 1701, metadata !193, i1 false, i1 false, i32 0, i32 0, null, i32 256, i1 false, null, null, i32 0, metadata !48, i32 1701} ; [ DW_TAG_subprogram ]
!238 = metadata !{i32 786478, i32 0, metadata !35, metadata !"sign", metadata !"sign", metadata !"_ZNK11ap_int_baseILi8ELb1ELb1EE4signEv", metadata !36, i32 1706, metadata !193, i1 false, i1 false, i32 0, i32 0, null, i32 256, i1 false, null, null, i32 0, metadata !48, i32 1706} ; [ DW_TAG_subprogram ]
!239 = metadata !{i32 786478, i32 0, metadata !35, metadata !"clear", metadata !"clear", metadata !"_ZN11ap_int_baseILi8ELb1ELb1EE5clearEi", metadata !36, i32 1714, metadata !93, i1 false, i1 false, i32 0, i32 0, null, i32 256, i1 false, null, null, i32 0, metadata !48, i32 1714} ; [ DW_TAG_subprogram ]
!240 = metadata !{i32 786478, i32 0, metadata !35, metadata !"invert", metadata !"invert", metadata !"_ZN11ap_int_baseILi8ELb1ELb1EE6invertEi", metadata !36, i32 1720, metadata !93, i1 false, i1 false, i32 0, i32 0, null, i32 256, i1 false, null, null, i32 0, metadata !48, i32 1720} ; [ DW_TAG_subprogram ]
!241 = metadata !{i32 786478, i32 0, metadata !35, metadata !"test", metadata !"test", metadata !"_ZNK11ap_int_baseILi8ELb1ELb1EE4testEi", metadata !36, i32 1728, metadata !242, i1 false, i1 false, i32 0, i32 0, null, i32 256, i1 false, null, null, i32 0, metadata !48, i32 1728} ; [ DW_TAG_subprogram ]
!242 = metadata !{i32 786453, i32 0, metadata !"", i32 0, i32 0, i64 0, i64 0, i64 0, i32 0, null, metadata !243, i32 0, i32 0} ; [ DW_TAG_subroutine_type ]
!243 = metadata !{metadata !54, metadata !191, metadata !52}
!244 = metadata !{i32 786478, i32 0, metadata !35, metadata !"set", metadata !"set", metadata !"_ZN11ap_int_baseILi8ELb1ELb1EE3setEi", metadata !36, i32 1734, metadata !93, i1 false, i1 false, i32 0, i32 0, null, i32 256, i1 false, null, null, i32 0, metadata !48, i32 1734} ; [ DW_TAG_subprogram ]
!245 = metadata !{i32 786478, i32 0, metadata !35, metadata !"set", metadata !"set", metadata !"_ZN11ap_int_baseILi8ELb1ELb1EE3setEib", metadata !36, i32 1740, metadata !246, i1 false, i1 false, i32 0, i32 0, null, i32 256, i1 false, null, null, i32 0, metadata !48, i32 1740} ; [ DW_TAG_subprogram ]
!246 = metadata !{i32 786453, i32 0, metadata !"", i32 0, i32 0, i64 0, i64 0, i64 0, i32 0, null, metadata !247, i32 0, i32 0} ; [ DW_TAG_subroutine_type ]
!247 = metadata !{null, metadata !58, metadata !52, metadata !54}
!248 = metadata !{i32 786478, i32 0, metadata !35, metadata !"lrotate", metadata !"lrotate", metadata !"_ZN11ap_int_baseILi8ELb1ELb1EE7lrotateEi", metadata !36, i32 1747, metadata !93, i1 false, i1 false, i32 0, i32 0, null, i32 256, i1 false, null, null, i32 0, metadata !48, i32 1747} ; [ DW_TAG_subprogram ]
!249 = metadata !{i32 786478, i32 0, metadata !35, metadata !"rrotate", metadata !"rrotate", metadata !"_ZN11ap_int_baseILi8ELb1ELb1EE7rrotateEi", metadata !36, i32 1756, metadata !93, i1 false, i1 false, i32 0, i32 0, null, i32 256, i1 false, null, null, i32 0, metadata !48, i32 1756} ; [ DW_TAG_subprogram ]
!250 = metadata !{i32 786478, i32 0, metadata !35, metadata !"set_bit", metadata !"set_bit", metadata !"_ZN11ap_int_baseILi8ELb1ELb1EE7set_bitEib", metadata !36, i32 1764, metadata !246, i1 false, i1 false, i32 0, i32 0, null, i32 256, i1 false, null, null, i32 0, metadata !48, i32 1764} ; [ DW_TAG_subprogram ]
!251 = metadata !{i32 786478, i32 0, metadata !35, metadata !"get_bit", metadata !"get_bit", metadata !"_ZNK11ap_int_baseILi8ELb1ELb1EE7get_bitEi", metadata !36, i32 1769, metadata !242, i1 false, i1 false, i32 0, i32 0, null, i32 256, i1 false, null, null, i32 0, metadata !48, i32 1769} ; [ DW_TAG_subprogram ]
!252 = metadata !{i32 786478, i32 0, metadata !35, metadata !"b_not", metadata !"b_not", metadata !"_ZN11ap_int_baseILi8ELb1ELb1EE5b_notEv", metadata !36, i32 1774, metadata !56, i1 false, i1 false, i32 0, i32 0, null, i32 256, i1 false, null, null, i32 0, metadata !48, i32 1774} ; [ DW_TAG_subprogram ]
!253 = metadata !{i32 786478, i32 0, metadata !35, metadata !"countLeadingZeros", metadata !"countLeadingZeros", metadata !"_ZN11ap_int_baseILi8ELb1ELb1EE17countLeadingZerosEv", metadata !36, i32 1781, metadata !254, i1 false, i1 false, i32 0, i32 0, null, i32 256, i1 false, null, null, i32 0, metadata !48, i32 1781} ; [ DW_TAG_subprogram ]
!254 = metadata !{i32 786453, i32 0, metadata !"", i32 0, i32 0, i64 0, i64 0, i64 0, i32 0, null, metadata !255, i32 0, i32 0} ; [ DW_TAG_subroutine_type ]
!255 = metadata !{metadata !52, metadata !58}
!256 = metadata !{i32 786478, i32 0, metadata !35, metadata !"operator++", metadata !"operator++", metadata !"_ZN11ap_int_baseILi8ELb1ELb1EEppEv", metadata !36, i32 1838, metadata !234, i1 false, i1 false, i32 0, i32 0, null, i32 256, i1 false, null, null, i32 0, metadata !48, i32 1838} ; [ DW_TAG_subprogram ]
!257 = metadata !{i32 786478, i32 0, metadata !35, metadata !"operator--", metadata !"operator--", metadata !"_ZN11ap_int_baseILi8ELb1ELb1EEmmEv", metadata !36, i32 1842, metadata !234, i1 false, i1 false, i32 0, i32 0, null, i32 256, i1 false, null, null, i32 0, metadata !48, i32 1842} ; [ DW_TAG_subprogram ]
!258 = metadata !{i32 786478, i32 0, metadata !35, metadata !"operator++", metadata !"operator++", metadata !"_ZN11ap_int_baseILi8ELb1ELb1EEppEi", metadata !36, i32 1850, metadata !259, i1 false, i1 false, i32 0, i32 0, null, i32 256, i1 false, null, null, i32 0, metadata !48, i32 1850} ; [ DW_TAG_subprogram ]
!259 = metadata !{i32 786453, i32 0, metadata !"", i32 0, i32 0, i64 0, i64 0, i64 0, i32 0, null, metadata !260, i32 0, i32 0} ; [ DW_TAG_subroutine_type ]
!260 = metadata !{metadata !63, metadata !58, metadata !52}
!261 = metadata !{i32 786478, i32 0, metadata !35, metadata !"operator--", metadata !"operator--", metadata !"_ZN11ap_int_baseILi8ELb1ELb1EEmmEi", metadata !36, i32 1855, metadata !259, i1 false, i1 false, i32 0, i32 0, null, i32 256, i1 false, null, null, i32 0, metadata !48, i32 1855} ; [ DW_TAG_subprogram ]
!262 = metadata !{i32 786478, i32 0, metadata !35, metadata !"operator+", metadata !"operator+", metadata !"_ZNK11ap_int_baseILi8ELb1ELb1EEpsEv", metadata !36, i32 1864, metadata !263, i1 false, i1 false, i32 0, i32 0, null, i32 256, i1 false, null, null, i32 0, metadata !48, i32 1864} ; [ DW_TAG_subprogram ]
!263 = metadata !{i32 786453, i32 0, metadata !"", i32 0, i32 0, i64 0, i64 0, i64 0, i32 0, null, metadata !264, i32 0, i32 0} ; [ DW_TAG_subroutine_type ]
!264 = metadata !{metadata !35, metadata !191}
!265 = metadata !{i32 786478, i32 0, metadata !35, metadata !"operator!", metadata !"operator!", metadata !"_ZNK11ap_int_baseILi8ELb1ELb1EEntEv", metadata !36, i32 1870, metadata !193, i1 false, i1 false, i32 0, i32 0, null, i32 256, i1 false, null, null, i32 0, metadata !48, i32 1870} ; [ DW_TAG_subprogram ]
!266 = metadata !{i32 786478, i32 0, metadata !35, metadata !"operator-", metadata !"operator-", metadata !"_ZNK11ap_int_baseILi8ELb1ELb1EEngEv", metadata !36, i32 1875, metadata !267, i1 false, i1 false, i32 0, i32 0, null, i32 256, i1 false, null, null, i32 0, metadata !48, i32 1875} ; [ DW_TAG_subprogram ]
!267 = metadata !{i32 786453, i32 0, metadata !"", i32 0, i32 0, i64 0, i64 0, i64 0, i32 0, null, metadata !268, i32 0, i32 0} ; [ DW_TAG_subroutine_type ]
!268 = metadata !{metadata !269, metadata !191}
!269 = metadata !{i32 786434, null, metadata !"ap_int_base<9, true, true>", metadata !36, i32 1397, i64 16, i64 16, i32 0, i32 0, null, metadata !270, i32 0, null, metadata !552} ; [ DW_TAG_class_type ]
!270 = metadata !{metadata !271, metadata !282, metadata !286, metadata !289, metadata !292, metadata !295, metadata !298, metadata !301, metadata !304, metadata !307, metadata !310, metadata !313, metadata !316, metadata !319, metadata !322, metadata !325, metadata !328, metadata !331, metadata !336, metadata !341, metadata !346, metadata !347, metadata !351, metadata !354, metadata !357, metadata !360, metadata !363, metadata !366, metadata !369, metadata !372, metadata !375, metadata !378, metadata !381, metadata !384, metadata !393, metadata !396, metadata !399, metadata !402, metadata !405, metadata !408, metadata !411, metadata !414, metadata !417, metadata !420, metadata !423, metadata !426, metadata !429, metadata !430, metadata !434, metadata !437, metadata !438, metadata !439, metadata !440, metadata !441, metadata !442, metadata !445, metadata !446, metadata !449, metadata !450, metadata !451, metadata !452, metadata !453, metadata !454, metadata !457, metadata !458, metadata !459, metadata !462, metadata !463, metadata !466, metadata !467, metadata !471, metadata !475, metadata !476, metadata !479, metadata !480, metadata !519, metadata !520, metadata !521, metadata !522, metadata !525, metadata !526, metadata !527, metadata !528, metadata !529, metadata !530, metadata !531, metadata !532, metadata !533, metadata !534, metadata !535, metadata !536, metadata !546, metadata !549}
!271 = metadata !{i32 786460, metadata !269, null, metadata !36, i32 0, i64 0, i64 0, i64 0, i32 0, metadata !272} ; [ DW_TAG_inheritance ]
!272 = metadata !{i32 786434, null, metadata !"ssdm_int<9 + 1024 * 0, true>", metadata !40, i32 11, i64 16, i64 16, i32 0, i32 0, null, metadata !273, i32 0, null, metadata !280} ; [ DW_TAG_class_type ]
!273 = metadata !{metadata !274, metadata !276}
!274 = metadata !{i32 786445, metadata !272, metadata !"V", metadata !40, i32 11, i64 9, i64 16, i64 0, i32 0, metadata !275} ; [ DW_TAG_member ]
!275 = metadata !{i32 786468, null, metadata !"int9", null, i32 0, i64 9, i64 16, i64 0, i32 0, i32 5} ; [ DW_TAG_base_type ]
!276 = metadata !{i32 786478, i32 0, metadata !272, metadata !"ssdm_int", metadata !"ssdm_int", metadata !"", metadata !40, i32 11, metadata !277, i1 false, i1 false, i32 0, i32 0, null, i32 256, i1 false, null, null, i32 0, metadata !48, i32 11} ; [ DW_TAG_subprogram ]
!277 = metadata !{i32 786453, i32 0, metadata !"", i32 0, i32 0, i64 0, i64 0, i64 0, i32 0, null, metadata !278, i32 0, i32 0} ; [ DW_TAG_subroutine_type ]
!278 = metadata !{null, metadata !279}
!279 = metadata !{i32 786447, i32 0, metadata !"", i32 0, i32 0, i64 64, i64 64, i64 0, i32 64, metadata !272} ; [ DW_TAG_pointer_type ]
!280 = metadata !{metadata !281, metadata !53}
!281 = metadata !{i32 786480, null, metadata !"_AP_N", metadata !52, i64 9, null, i32 0, i32 0} ; [ DW_TAG_template_value_parameter ]
!282 = metadata !{i32 786478, i32 0, metadata !269, metadata !"ap_int_base", metadata !"ap_int_base", metadata !"", metadata !36, i32 1438, metadata !283, i1 false, i1 false, i32 0, i32 0, null, i32 256, i1 false, null, null, i32 0, metadata !48, i32 1438} ; [ DW_TAG_subprogram ]
!283 = metadata !{i32 786453, i32 0, metadata !"", i32 0, i32 0, i64 0, i64 0, i64 0, i32 0, null, metadata !284, i32 0, i32 0} ; [ DW_TAG_subroutine_type ]
!284 = metadata !{null, metadata !285}
!285 = metadata !{i32 786447, i32 0, metadata !"", i32 0, i32 0, i64 64, i64 64, i64 0, i32 64, metadata !269} ; [ DW_TAG_pointer_type ]
!286 = metadata !{i32 786478, i32 0, metadata !269, metadata !"ap_int_base", metadata !"ap_int_base", metadata !"", metadata !36, i32 1460, metadata !287, i1 false, i1 false, i32 0, i32 0, null, i32 384, i1 false, null, null, i32 0, metadata !48, i32 1460} ; [ DW_TAG_subprogram ]
!287 = metadata !{i32 786453, i32 0, metadata !"", i32 0, i32 0, i64 0, i64 0, i64 0, i32 0, null, metadata !288, i32 0, i32 0} ; [ DW_TAG_subroutine_type ]
!288 = metadata !{null, metadata !285, metadata !54}
!289 = metadata !{i32 786478, i32 0, metadata !269, metadata !"ap_int_base", metadata !"ap_int_base", metadata !"", metadata !36, i32 1461, metadata !290, i1 false, i1 false, i32 0, i32 0, null, i32 384, i1 false, null, null, i32 0, metadata !48, i32 1461} ; [ DW_TAG_subprogram ]
!290 = metadata !{i32 786453, i32 0, metadata !"", i32 0, i32 0, i64 0, i64 0, i64 0, i32 0, null, metadata !291, i32 0, i32 0} ; [ DW_TAG_subroutine_type ]
!291 = metadata !{null, metadata !285, metadata !79}
!292 = metadata !{i32 786478, i32 0, metadata !269, metadata !"ap_int_base", metadata !"ap_int_base", metadata !"", metadata !36, i32 1462, metadata !293, i1 false, i1 false, i32 0, i32 0, null, i32 384, i1 false, null, null, i32 0, metadata !48, i32 1462} ; [ DW_TAG_subprogram ]
!293 = metadata !{i32 786453, i32 0, metadata !"", i32 0, i32 0, i64 0, i64 0, i64 0, i32 0, null, metadata !294, i32 0, i32 0} ; [ DW_TAG_subroutine_type ]
!294 = metadata !{null, metadata !285, metadata !83}
!295 = metadata !{i32 786478, i32 0, metadata !269, metadata !"ap_int_base", metadata !"ap_int_base", metadata !"", metadata !36, i32 1463, metadata !296, i1 false, i1 false, i32 0, i32 0, null, i32 384, i1 false, null, null, i32 0, metadata !48, i32 1463} ; [ DW_TAG_subprogram ]
!296 = metadata !{i32 786453, i32 0, metadata !"", i32 0, i32 0, i64 0, i64 0, i64 0, i32 0, null, metadata !297, i32 0, i32 0} ; [ DW_TAG_subroutine_type ]
!297 = metadata !{null, metadata !285, metadata !87}
!298 = metadata !{i32 786478, i32 0, metadata !269, metadata !"ap_int_base", metadata !"ap_int_base", metadata !"", metadata !36, i32 1464, metadata !299, i1 false, i1 false, i32 0, i32 0, null, i32 384, i1 false, null, null, i32 0, metadata !48, i32 1464} ; [ DW_TAG_subprogram ]
!299 = metadata !{i32 786453, i32 0, metadata !"", i32 0, i32 0, i64 0, i64 0, i64 0, i32 0, null, metadata !300, i32 0, i32 0} ; [ DW_TAG_subroutine_type ]
!300 = metadata !{null, metadata !285, metadata !91}
!301 = metadata !{i32 786478, i32 0, metadata !269, metadata !"ap_int_base", metadata !"ap_int_base", metadata !"", metadata !36, i32 1465, metadata !302, i1 false, i1 false, i32 0, i32 0, null, i32 384, i1 false, null, null, i32 0, metadata !48, i32 1465} ; [ DW_TAG_subprogram ]
!302 = metadata !{i32 786453, i32 0, metadata !"", i32 0, i32 0, i64 0, i64 0, i64 0, i32 0, null, metadata !303, i32 0, i32 0} ; [ DW_TAG_subroutine_type ]
!303 = metadata !{null, metadata !285, metadata !52}
!304 = metadata !{i32 786478, i32 0, metadata !269, metadata !"ap_int_base", metadata !"ap_int_base", metadata !"", metadata !36, i32 1466, metadata !305, i1 false, i1 false, i32 0, i32 0, null, i32 384, i1 false, null, null, i32 0, metadata !48, i32 1466} ; [ DW_TAG_subprogram ]
!305 = metadata !{i32 786453, i32 0, metadata !"", i32 0, i32 0, i64 0, i64 0, i64 0, i32 0, null, metadata !306, i32 0, i32 0} ; [ DW_TAG_subroutine_type ]
!306 = metadata !{null, metadata !285, metadata !98}
!307 = metadata !{i32 786478, i32 0, metadata !269, metadata !"ap_int_base", metadata !"ap_int_base", metadata !"", metadata !36, i32 1467, metadata !308, i1 false, i1 false, i32 0, i32 0, null, i32 384, i1 false, null, null, i32 0, metadata !48, i32 1467} ; [ DW_TAG_subprogram ]
!308 = metadata !{i32 786453, i32 0, metadata !"", i32 0, i32 0, i64 0, i64 0, i64 0, i32 0, null, metadata !309, i32 0, i32 0} ; [ DW_TAG_subroutine_type ]
!309 = metadata !{null, metadata !285, metadata !102}
!310 = metadata !{i32 786478, i32 0, metadata !269, metadata !"ap_int_base", metadata !"ap_int_base", metadata !"", metadata !36, i32 1468, metadata !311, i1 false, i1 false, i32 0, i32 0, null, i32 384, i1 false, null, null, i32 0, metadata !48, i32 1468} ; [ DW_TAG_subprogram ]
!311 = metadata !{i32 786453, i32 0, metadata !"", i32 0, i32 0, i64 0, i64 0, i64 0, i32 0, null, metadata !312, i32 0, i32 0} ; [ DW_TAG_subroutine_type ]
!312 = metadata !{null, metadata !285, metadata !106}
!313 = metadata !{i32 786478, i32 0, metadata !269, metadata !"ap_int_base", metadata !"ap_int_base", metadata !"", metadata !36, i32 1469, metadata !314, i1 false, i1 false, i32 0, i32 0, null, i32 384, i1 false, null, null, i32 0, metadata !48, i32 1469} ; [ DW_TAG_subprogram ]
!314 = metadata !{i32 786453, i32 0, metadata !"", i32 0, i32 0, i64 0, i64 0, i64 0, i32 0, null, metadata !315, i32 0, i32 0} ; [ DW_TAG_subroutine_type ]
!315 = metadata !{null, metadata !285, metadata !110}
!316 = metadata !{i32 786478, i32 0, metadata !269, metadata !"ap_int_base", metadata !"ap_int_base", metadata !"", metadata !36, i32 1470, metadata !317, i1 false, i1 false, i32 0, i32 0, null, i32 384, i1 false, null, null, i32 0, metadata !48, i32 1470} ; [ DW_TAG_subprogram ]
!317 = metadata !{i32 786453, i32 0, metadata !"", i32 0, i32 0, i64 0, i64 0, i64 0, i32 0, null, metadata !318, i32 0, i32 0} ; [ DW_TAG_subroutine_type ]
!318 = metadata !{null, metadata !285, metadata !115}
!319 = metadata !{i32 786478, i32 0, metadata !269, metadata !"ap_int_base", metadata !"ap_int_base", metadata !"", metadata !36, i32 1471, metadata !320, i1 false, i1 false, i32 0, i32 0, null, i32 384, i1 false, null, null, i32 0, metadata !48, i32 1471} ; [ DW_TAG_subprogram ]
!320 = metadata !{i32 786453, i32 0, metadata !"", i32 0, i32 0, i64 0, i64 0, i64 0, i32 0, null, metadata !321, i32 0, i32 0} ; [ DW_TAG_subroutine_type ]
!321 = metadata !{null, metadata !285, metadata !120}
!322 = metadata !{i32 786478, i32 0, metadata !269, metadata !"ap_int_base", metadata !"ap_int_base", metadata !"", metadata !36, i32 1472, metadata !323, i1 false, i1 false, i32 0, i32 0, null, i32 384, i1 false, null, null, i32 0, metadata !48, i32 1472} ; [ DW_TAG_subprogram ]
!323 = metadata !{i32 786453, i32 0, metadata !"", i32 0, i32 0, i64 0, i64 0, i64 0, i32 0, null, metadata !324, i32 0, i32 0} ; [ DW_TAG_subroutine_type ]
!324 = metadata !{null, metadata !285, metadata !124}
!325 = metadata !{i32 786478, i32 0, metadata !269, metadata !"ap_int_base", metadata !"ap_int_base", metadata !"", metadata !36, i32 1499, metadata !326, i1 false, i1 false, i32 0, i32 0, null, i32 256, i1 false, null, null, i32 0, metadata !48, i32 1499} ; [ DW_TAG_subprogram ]
!326 = metadata !{i32 786453, i32 0, metadata !"", i32 0, i32 0, i64 0, i64 0, i64 0, i32 0, null, metadata !327, i32 0, i32 0} ; [ DW_TAG_subroutine_type ]
!327 = metadata !{null, metadata !285, metadata !128}
!328 = metadata !{i32 786478, i32 0, metadata !269, metadata !"ap_int_base", metadata !"ap_int_base", metadata !"", metadata !36, i32 1506, metadata !329, i1 false, i1 false, i32 0, i32 0, null, i32 256, i1 false, null, null, i32 0, metadata !48, i32 1506} ; [ DW_TAG_subprogram ]
!329 = metadata !{i32 786453, i32 0, metadata !"", i32 0, i32 0, i64 0, i64 0, i64 0, i32 0, null, metadata !330, i32 0, i32 0} ; [ DW_TAG_subroutine_type ]
!330 = metadata !{null, metadata !285, metadata !128, metadata !79}
!331 = metadata !{i32 786478, i32 0, metadata !269, metadata !"read", metadata !"read", metadata !"_ZNV11ap_int_baseILi9ELb1ELb1EE4readEv", metadata !36, i32 1527, metadata !332, i1 false, i1 false, i32 0, i32 0, null, i32 256, i1 false, null, null, i32 0, metadata !48, i32 1527} ; [ DW_TAG_subprogram ]
!332 = metadata !{i32 786453, i32 0, metadata !"", i32 0, i32 0, i64 0, i64 0, i64 0, i32 0, null, metadata !333, i32 0, i32 0} ; [ DW_TAG_subroutine_type ]
!333 = metadata !{metadata !269, metadata !334}
!334 = metadata !{i32 786447, i32 0, metadata !"", i32 0, i32 0, i64 64, i64 64, i64 0, i32 64, metadata !335} ; [ DW_TAG_pointer_type ]
!335 = metadata !{i32 786485, null, metadata !"", null, i32 0, i64 0, i64 0, i64 0, i32 0, metadata !269} ; [ DW_TAG_volatile_type ]
!336 = metadata !{i32 786478, i32 0, metadata !269, metadata !"write", metadata !"write", metadata !"_ZNV11ap_int_baseILi9ELb1ELb1EE5writeERKS0_", metadata !36, i32 1533, metadata !337, i1 false, i1 false, i32 0, i32 0, null, i32 256, i1 false, null, null, i32 0, metadata !48, i32 1533} ; [ DW_TAG_subprogram ]
!337 = metadata !{i32 786453, i32 0, metadata !"", i32 0, i32 0, i64 0, i64 0, i64 0, i32 0, null, metadata !338, i32 0, i32 0} ; [ DW_TAG_subroutine_type ]
!338 = metadata !{null, metadata !334, metadata !339}
!339 = metadata !{i32 786448, null, null, null, i32 0, i64 0, i64 0, i64 0, i32 0, metadata !340} ; [ DW_TAG_reference_type ]
!340 = metadata !{i32 786470, null, metadata !"", null, i32 0, i64 0, i64 0, i64 0, i32 0, metadata !269} ; [ DW_TAG_const_type ]
!341 = metadata !{i32 786478, i32 0, metadata !269, metadata !"operator=", metadata !"operator=", metadata !"_ZNV11ap_int_baseILi9ELb1ELb1EEaSERVKS0_", metadata !36, i32 1545, metadata !342, i1 false, i1 false, i32 0, i32 0, null, i32 256, i1 false, null, null, i32 0, metadata !48, i32 1545} ; [ DW_TAG_subprogram ]
!342 = metadata !{i32 786453, i32 0, metadata !"", i32 0, i32 0, i64 0, i64 0, i64 0, i32 0, null, metadata !343, i32 0, i32 0} ; [ DW_TAG_subroutine_type ]
!343 = metadata !{null, metadata !334, metadata !344}
!344 = metadata !{i32 786448, null, null, null, i32 0, i64 0, i64 0, i64 0, i32 0, metadata !345} ; [ DW_TAG_reference_type ]
!345 = metadata !{i32 786470, null, metadata !"", null, i32 0, i64 0, i64 0, i64 0, i32 0, metadata !335} ; [ DW_TAG_const_type ]
!346 = metadata !{i32 786478, i32 0, metadata !269, metadata !"operator=", metadata !"operator=", metadata !"_ZNV11ap_int_baseILi9ELb1ELb1EEaSERKS0_", metadata !36, i32 1554, metadata !337, i1 false, i1 false, i32 0, i32 0, null, i32 256, i1 false, null, null, i32 0, metadata !48, i32 1554} ; [ DW_TAG_subprogram ]
!347 = metadata !{i32 786478, i32 0, metadata !269, metadata !"operator=", metadata !"operator=", metadata !"_ZN11ap_int_baseILi9ELb1ELb1EEaSERVKS0_", metadata !36, i32 1577, metadata !348, i1 false, i1 false, i32 0, i32 0, null, i32 256, i1 false, null, null, i32 0, metadata !48, i32 1577} ; [ DW_TAG_subprogram ]
!348 = metadata !{i32 786453, i32 0, metadata !"", i32 0, i32 0, i64 0, i64 0, i64 0, i32 0, null, metadata !349, i32 0, i32 0} ; [ DW_TAG_subroutine_type ]
!349 = metadata !{metadata !350, metadata !285, metadata !344}
!350 = metadata !{i32 786448, null, null, null, i32 0, i64 0, i64 0, i64 0, i32 0, metadata !269} ; [ DW_TAG_reference_type ]
!351 = metadata !{i32 786478, i32 0, metadata !269, metadata !"operator=", metadata !"operator=", metadata !"_ZN11ap_int_baseILi9ELb1ELb1EEaSERKS0_", metadata !36, i32 1582, metadata !352, i1 false, i1 false, i32 0, i32 0, null, i32 256, i1 false, null, null, i32 0, metadata !48, i32 1582} ; [ DW_TAG_subprogram ]
!352 = metadata !{i32 786453, i32 0, metadata !"", i32 0, i32 0, i64 0, i64 0, i64 0, i32 0, null, metadata !353, i32 0, i32 0} ; [ DW_TAG_subroutine_type ]
!353 = metadata !{metadata !350, metadata !285, metadata !339}
!354 = metadata !{i32 786478, i32 0, metadata !269, metadata !"operator=", metadata !"operator=", metadata !"_ZN11ap_int_baseILi9ELb1ELb1EEaSEPKc", metadata !36, i32 1586, metadata !355, i1 false, i1 false, i32 0, i32 0, null, i32 256, i1 false, null, null, i32 0, metadata !48, i32 1586} ; [ DW_TAG_subprogram ]
!355 = metadata !{i32 786453, i32 0, metadata !"", i32 0, i32 0, i64 0, i64 0, i64 0, i32 0, null, metadata !356, i32 0, i32 0} ; [ DW_TAG_subroutine_type ]
!356 = metadata !{metadata !350, metadata !285, metadata !128}
!357 = metadata !{i32 786478, i32 0, metadata !269, metadata !"set", metadata !"set", metadata !"_ZN11ap_int_baseILi9ELb1ELb1EE3setEPKca", metadata !36, i32 1594, metadata !358, i1 false, i1 false, i32 0, i32 0, null, i32 256, i1 false, null, null, i32 0, metadata !48, i32 1594} ; [ DW_TAG_subprogram ]
!358 = metadata !{i32 786453, i32 0, metadata !"", i32 0, i32 0, i64 0, i64 0, i64 0, i32 0, null, metadata !359, i32 0, i32 0} ; [ DW_TAG_subroutine_type ]
!359 = metadata !{metadata !350, metadata !285, metadata !128, metadata !79}
!360 = metadata !{i32 786478, i32 0, metadata !269, metadata !"operator=", metadata !"operator=", metadata !"_ZN11ap_int_baseILi9ELb1ELb1EEaSEa", metadata !36, i32 1608, metadata !361, i1 false, i1 false, i32 0, i32 0, null, i32 256, i1 false, null, null, i32 0, metadata !48, i32 1608} ; [ DW_TAG_subprogram ]
!361 = metadata !{i32 786453, i32 0, metadata !"", i32 0, i32 0, i64 0, i64 0, i64 0, i32 0, null, metadata !362, i32 0, i32 0} ; [ DW_TAG_subroutine_type ]
!362 = metadata !{metadata !350, metadata !285, metadata !79}
!363 = metadata !{i32 786478, i32 0, metadata !269, metadata !"operator=", metadata !"operator=", metadata !"_ZN11ap_int_baseILi9ELb1ELb1EEaSEh", metadata !36, i32 1609, metadata !364, i1 false, i1 false, i32 0, i32 0, null, i32 256, i1 false, null, null, i32 0, metadata !48, i32 1609} ; [ DW_TAG_subprogram ]
!364 = metadata !{i32 786453, i32 0, metadata !"", i32 0, i32 0, i64 0, i64 0, i64 0, i32 0, null, metadata !365, i32 0, i32 0} ; [ DW_TAG_subroutine_type ]
!365 = metadata !{metadata !350, metadata !285, metadata !83}
!366 = metadata !{i32 786478, i32 0, metadata !269, metadata !"operator=", metadata !"operator=", metadata !"_ZN11ap_int_baseILi9ELb1ELb1EEaSEs", metadata !36, i32 1610, metadata !367, i1 false, i1 false, i32 0, i32 0, null, i32 256, i1 false, null, null, i32 0, metadata !48, i32 1610} ; [ DW_TAG_subprogram ]
!367 = metadata !{i32 786453, i32 0, metadata !"", i32 0, i32 0, i64 0, i64 0, i64 0, i32 0, null, metadata !368, i32 0, i32 0} ; [ DW_TAG_subroutine_type ]
!368 = metadata !{metadata !350, metadata !285, metadata !87}
!369 = metadata !{i32 786478, i32 0, metadata !269, metadata !"operator=", metadata !"operator=", metadata !"_ZN11ap_int_baseILi9ELb1ELb1EEaSEt", metadata !36, i32 1611, metadata !370, i1 false, i1 false, i32 0, i32 0, null, i32 256, i1 false, null, null, i32 0, metadata !48, i32 1611} ; [ DW_TAG_subprogram ]
!370 = metadata !{i32 786453, i32 0, metadata !"", i32 0, i32 0, i64 0, i64 0, i64 0, i32 0, null, metadata !371, i32 0, i32 0} ; [ DW_TAG_subroutine_type ]
!371 = metadata !{metadata !350, metadata !285, metadata !91}
!372 = metadata !{i32 786478, i32 0, metadata !269, metadata !"operator=", metadata !"operator=", metadata !"_ZN11ap_int_baseILi9ELb1ELb1EEaSEi", metadata !36, i32 1612, metadata !373, i1 false, i1 false, i32 0, i32 0, null, i32 256, i1 false, null, null, i32 0, metadata !48, i32 1612} ; [ DW_TAG_subprogram ]
!373 = metadata !{i32 786453, i32 0, metadata !"", i32 0, i32 0, i64 0, i64 0, i64 0, i32 0, null, metadata !374, i32 0, i32 0} ; [ DW_TAG_subroutine_type ]
!374 = metadata !{metadata !350, metadata !285, metadata !52}
!375 = metadata !{i32 786478, i32 0, metadata !269, metadata !"operator=", metadata !"operator=", metadata !"_ZN11ap_int_baseILi9ELb1ELb1EEaSEj", metadata !36, i32 1613, metadata !376, i1 false, i1 false, i32 0, i32 0, null, i32 256, i1 false, null, null, i32 0, metadata !48, i32 1613} ; [ DW_TAG_subprogram ]
!376 = metadata !{i32 786453, i32 0, metadata !"", i32 0, i32 0, i64 0, i64 0, i64 0, i32 0, null, metadata !377, i32 0, i32 0} ; [ DW_TAG_subroutine_type ]
!377 = metadata !{metadata !350, metadata !285, metadata !98}
!378 = metadata !{i32 786478, i32 0, metadata !269, metadata !"operator=", metadata !"operator=", metadata !"_ZN11ap_int_baseILi9ELb1ELb1EEaSEx", metadata !36, i32 1614, metadata !379, i1 false, i1 false, i32 0, i32 0, null, i32 256, i1 false, null, null, i32 0, metadata !48, i32 1614} ; [ DW_TAG_subprogram ]
!379 = metadata !{i32 786453, i32 0, metadata !"", i32 0, i32 0, i64 0, i64 0, i64 0, i32 0, null, metadata !380, i32 0, i32 0} ; [ DW_TAG_subroutine_type ]
!380 = metadata !{metadata !350, metadata !285, metadata !110}
!381 = metadata !{i32 786478, i32 0, metadata !269, metadata !"operator=", metadata !"operator=", metadata !"_ZN11ap_int_baseILi9ELb1ELb1EEaSEy", metadata !36, i32 1615, metadata !382, i1 false, i1 false, i32 0, i32 0, null, i32 256, i1 false, null, null, i32 0, metadata !48, i32 1615} ; [ DW_TAG_subprogram ]
!382 = metadata !{i32 786453, i32 0, metadata !"", i32 0, i32 0, i64 0, i64 0, i64 0, i32 0, null, metadata !383, i32 0, i32 0} ; [ DW_TAG_subroutine_type ]
!383 = metadata !{metadata !350, metadata !285, metadata !115}
!384 = metadata !{i32 786478, i32 0, metadata !269, metadata !"operator short", metadata !"operator short", metadata !"_ZNK11ap_int_baseILi9ELb1ELb1EEcvsEv", metadata !36, i32 1653, metadata !385, i1 false, i1 false, i32 0, i32 0, null, i32 256, i1 false, null, null, i32 0, metadata !48, i32 1653} ; [ DW_TAG_subprogram ]
!385 = metadata !{i32 786453, i32 0, metadata !"", i32 0, i32 0, i64 0, i64 0, i64 0, i32 0, null, metadata !386, i32 0, i32 0} ; [ DW_TAG_subroutine_type ]
!386 = metadata !{metadata !387, metadata !392}
!387 = metadata !{i32 786454, metadata !269, metadata !"RetType", metadata !36, i32 1402, i64 0, i64 0, i64 0, i32 0, metadata !388} ; [ DW_TAG_typedef ]
!388 = metadata !{i32 786454, metadata !389, metadata !"Type", metadata !36, i32 1373, i64 0, i64 0, i64 0, i32 0, metadata !87} ; [ DW_TAG_typedef ]
!389 = metadata !{i32 786434, null, metadata !"retval<2, true>", metadata !36, i32 1372, i64 8, i64 8, i32 0, i32 0, null, metadata !188, i32 0, null, metadata !390} ; [ DW_TAG_class_type ]
!390 = metadata !{metadata !391, metadata !53}
!391 = metadata !{i32 786480, null, metadata !"_AP_N", metadata !52, i64 2, null, i32 0, i32 0} ; [ DW_TAG_template_value_parameter ]
!392 = metadata !{i32 786447, i32 0, metadata !"", i32 0, i32 0, i64 64, i64 64, i64 0, i32 64, metadata !340} ; [ DW_TAG_pointer_type ]
!393 = metadata !{i32 786478, i32 0, metadata !269, metadata !"to_bool", metadata !"to_bool", metadata !"_ZNK11ap_int_baseILi9ELb1ELb1EE7to_boolEv", metadata !36, i32 1659, metadata !394, i1 false, i1 false, i32 0, i32 0, null, i32 256, i1 false, null, null, i32 0, metadata !48, i32 1659} ; [ DW_TAG_subprogram ]
!394 = metadata !{i32 786453, i32 0, metadata !"", i32 0, i32 0, i64 0, i64 0, i64 0, i32 0, null, metadata !395, i32 0, i32 0} ; [ DW_TAG_subroutine_type ]
!395 = metadata !{metadata !54, metadata !392}
!396 = metadata !{i32 786478, i32 0, metadata !269, metadata !"to_uchar", metadata !"to_uchar", metadata !"_ZNK11ap_int_baseILi9ELb1ELb1EE8to_ucharEv", metadata !36, i32 1660, metadata !397, i1 false, i1 false, i32 0, i32 0, null, i32 256, i1 false, null, null, i32 0, metadata !48, i32 1660} ; [ DW_TAG_subprogram ]
!397 = metadata !{i32 786453, i32 0, metadata !"", i32 0, i32 0, i64 0, i64 0, i64 0, i32 0, null, metadata !398, i32 0, i32 0} ; [ DW_TAG_subroutine_type ]
!398 = metadata !{metadata !83, metadata !392}
!399 = metadata !{i32 786478, i32 0, metadata !269, metadata !"to_char", metadata !"to_char", metadata !"_ZNK11ap_int_baseILi9ELb1ELb1EE7to_charEv", metadata !36, i32 1661, metadata !400, i1 false, i1 false, i32 0, i32 0, null, i32 256, i1 false, null, null, i32 0, metadata !48, i32 1661} ; [ DW_TAG_subprogram ]
!400 = metadata !{i32 786453, i32 0, metadata !"", i32 0, i32 0, i64 0, i64 0, i64 0, i32 0, null, metadata !401, i32 0, i32 0} ; [ DW_TAG_subroutine_type ]
!401 = metadata !{metadata !79, metadata !392}
!402 = metadata !{i32 786478, i32 0, metadata !269, metadata !"to_ushort", metadata !"to_ushort", metadata !"_ZNK11ap_int_baseILi9ELb1ELb1EE9to_ushortEv", metadata !36, i32 1662, metadata !403, i1 false, i1 false, i32 0, i32 0, null, i32 256, i1 false, null, null, i32 0, metadata !48, i32 1662} ; [ DW_TAG_subprogram ]
!403 = metadata !{i32 786453, i32 0, metadata !"", i32 0, i32 0, i64 0, i64 0, i64 0, i32 0, null, metadata !404, i32 0, i32 0} ; [ DW_TAG_subroutine_type ]
!404 = metadata !{metadata !91, metadata !392}
!405 = metadata !{i32 786478, i32 0, metadata !269, metadata !"to_short", metadata !"to_short", metadata !"_ZNK11ap_int_baseILi9ELb1ELb1EE8to_shortEv", metadata !36, i32 1663, metadata !406, i1 false, i1 false, i32 0, i32 0, null, i32 256, i1 false, null, null, i32 0, metadata !48, i32 1663} ; [ DW_TAG_subprogram ]
!406 = metadata !{i32 786453, i32 0, metadata !"", i32 0, i32 0, i64 0, i64 0, i64 0, i32 0, null, metadata !407, i32 0, i32 0} ; [ DW_TAG_subroutine_type ]
!407 = metadata !{metadata !87, metadata !392}
!408 = metadata !{i32 786478, i32 0, metadata !269, metadata !"to_int", metadata !"to_int", metadata !"_ZNK11ap_int_baseILi9ELb1ELb1EE6to_intEv", metadata !36, i32 1664, metadata !409, i1 false, i1 false, i32 0, i32 0, null, i32 256, i1 false, null, null, i32 0, metadata !48, i32 1664} ; [ DW_TAG_subprogram ]
!409 = metadata !{i32 786453, i32 0, metadata !"", i32 0, i32 0, i64 0, i64 0, i64 0, i32 0, null, metadata !410, i32 0, i32 0} ; [ DW_TAG_subroutine_type ]
!410 = metadata !{metadata !52, metadata !392}
!411 = metadata !{i32 786478, i32 0, metadata !269, metadata !"to_uint", metadata !"to_uint", metadata !"_ZNK11ap_int_baseILi9ELb1ELb1EE7to_uintEv", metadata !36, i32 1665, metadata !412, i1 false, i1 false, i32 0, i32 0, null, i32 256, i1 false, null, null, i32 0, metadata !48, i32 1665} ; [ DW_TAG_subprogram ]
!412 = metadata !{i32 786453, i32 0, metadata !"", i32 0, i32 0, i64 0, i64 0, i64 0, i32 0, null, metadata !413, i32 0, i32 0} ; [ DW_TAG_subroutine_type ]
!413 = metadata !{metadata !98, metadata !392}
!414 = metadata !{i32 786478, i32 0, metadata !269, metadata !"to_long", metadata !"to_long", metadata !"_ZNK11ap_int_baseILi9ELb1ELb1EE7to_longEv", metadata !36, i32 1666, metadata !415, i1 false, i1 false, i32 0, i32 0, null, i32 256, i1 false, null, null, i32 0, metadata !48, i32 1666} ; [ DW_TAG_subprogram ]
!415 = metadata !{i32 786453, i32 0, metadata !"", i32 0, i32 0, i64 0, i64 0, i64 0, i32 0, null, metadata !416, i32 0, i32 0} ; [ DW_TAG_subroutine_type ]
!416 = metadata !{metadata !102, metadata !392}
!417 = metadata !{i32 786478, i32 0, metadata !269, metadata !"to_ulong", metadata !"to_ulong", metadata !"_ZNK11ap_int_baseILi9ELb1ELb1EE8to_ulongEv", metadata !36, i32 1667, metadata !418, i1 false, i1 false, i32 0, i32 0, null, i32 256, i1 false, null, null, i32 0, metadata !48, i32 1667} ; [ DW_TAG_subprogram ]
!418 = metadata !{i32 786453, i32 0, metadata !"", i32 0, i32 0, i64 0, i64 0, i64 0, i32 0, null, metadata !419, i32 0, i32 0} ; [ DW_TAG_subroutine_type ]
!419 = metadata !{metadata !106, metadata !392}
!420 = metadata !{i32 786478, i32 0, metadata !269, metadata !"to_int64", metadata !"to_int64", metadata !"_ZNK11ap_int_baseILi9ELb1ELb1EE8to_int64Ev", metadata !36, i32 1668, metadata !421, i1 false, i1 false, i32 0, i32 0, null, i32 256, i1 false, null, null, i32 0, metadata !48, i32 1668} ; [ DW_TAG_subprogram ]
!421 = metadata !{i32 786453, i32 0, metadata !"", i32 0, i32 0, i64 0, i64 0, i64 0, i32 0, null, metadata !422, i32 0, i32 0} ; [ DW_TAG_subroutine_type ]
!422 = metadata !{metadata !110, metadata !392}
!423 = metadata !{i32 786478, i32 0, metadata !269, metadata !"to_uint64", metadata !"to_uint64", metadata !"_ZNK11ap_int_baseILi9ELb1ELb1EE9to_uint64Ev", metadata !36, i32 1669, metadata !424, i1 false, i1 false, i32 0, i32 0, null, i32 256, i1 false, null, null, i32 0, metadata !48, i32 1669} ; [ DW_TAG_subprogram ]
!424 = metadata !{i32 786453, i32 0, metadata !"", i32 0, i32 0, i64 0, i64 0, i64 0, i32 0, null, metadata !425, i32 0, i32 0} ; [ DW_TAG_subroutine_type ]
!425 = metadata !{metadata !115, metadata !392}
!426 = metadata !{i32 786478, i32 0, metadata !269, metadata !"to_double", metadata !"to_double", metadata !"_ZNK11ap_int_baseILi9ELb1ELb1EE9to_doubleEv", metadata !36, i32 1670, metadata !427, i1 false, i1 false, i32 0, i32 0, null, i32 256, i1 false, null, null, i32 0, metadata !48, i32 1670} ; [ DW_TAG_subprogram ]
!427 = metadata !{i32 786453, i32 0, metadata !"", i32 0, i32 0, i64 0, i64 0, i64 0, i32 0, null, metadata !428, i32 0, i32 0} ; [ DW_TAG_subroutine_type ]
!428 = metadata !{metadata !124, metadata !392}
!429 = metadata !{i32 786478, i32 0, metadata !269, metadata !"length", metadata !"length", metadata !"_ZNK11ap_int_baseILi9ELb1ELb1EE6lengthEv", metadata !36, i32 1684, metadata !409, i1 false, i1 false, i32 0, i32 0, null, i32 256, i1 false, null, null, i32 0, metadata !48, i32 1684} ; [ DW_TAG_subprogram ]
!430 = metadata !{i32 786478, i32 0, metadata !269, metadata !"length", metadata !"length", metadata !"_ZNVK11ap_int_baseILi9ELb1ELb1EE6lengthEv", metadata !36, i32 1685, metadata !431, i1 false, i1 false, i32 0, i32 0, null, i32 256, i1 false, null, null, i32 0, metadata !48, i32 1685} ; [ DW_TAG_subprogram ]
!431 = metadata !{i32 786453, i32 0, metadata !"", i32 0, i32 0, i64 0, i64 0, i64 0, i32 0, null, metadata !432, i32 0, i32 0} ; [ DW_TAG_subroutine_type ]
!432 = metadata !{metadata !52, metadata !433}
!433 = metadata !{i32 786447, i32 0, metadata !"", i32 0, i32 0, i64 64, i64 64, i64 0, i32 64, metadata !345} ; [ DW_TAG_pointer_type ]
!434 = metadata !{i32 786478, i32 0, metadata !269, metadata !"reverse", metadata !"reverse", metadata !"_ZN11ap_int_baseILi9ELb1ELb1EE7reverseEv", metadata !36, i32 1690, metadata !435, i1 false, i1 false, i32 0, i32 0, null, i32 256, i1 false, null, null, i32 0, metadata !48, i32 1690} ; [ DW_TAG_subprogram ]
!435 = metadata !{i32 786453, i32 0, metadata !"", i32 0, i32 0, i64 0, i64 0, i64 0, i32 0, null, metadata !436, i32 0, i32 0} ; [ DW_TAG_subroutine_type ]
!436 = metadata !{metadata !350, metadata !285}
!437 = metadata !{i32 786478, i32 0, metadata !269, metadata !"iszero", metadata !"iszero", metadata !"_ZNK11ap_int_baseILi9ELb1ELb1EE6iszeroEv", metadata !36, i32 1696, metadata !394, i1 false, i1 false, i32 0, i32 0, null, i32 256, i1 false, null, null, i32 0, metadata !48, i32 1696} ; [ DW_TAG_subprogram ]
!438 = metadata !{i32 786478, i32 0, metadata !269, metadata !"is_zero", metadata !"is_zero", metadata !"_ZNK11ap_int_baseILi9ELb1ELb1EE7is_zeroEv", metadata !36, i32 1701, metadata !394, i1 false, i1 false, i32 0, i32 0, null, i32 256, i1 false, null, null, i32 0, metadata !48, i32 1701} ; [ DW_TAG_subprogram ]
!439 = metadata !{i32 786478, i32 0, metadata !269, metadata !"sign", metadata !"sign", metadata !"_ZNK11ap_int_baseILi9ELb1ELb1EE4signEv", metadata !36, i32 1706, metadata !394, i1 false, i1 false, i32 0, i32 0, null, i32 256, i1 false, null, null, i32 0, metadata !48, i32 1706} ; [ DW_TAG_subprogram ]
!440 = metadata !{i32 786478, i32 0, metadata !269, metadata !"clear", metadata !"clear", metadata !"_ZN11ap_int_baseILi9ELb1ELb1EE5clearEi", metadata !36, i32 1714, metadata !302, i1 false, i1 false, i32 0, i32 0, null, i32 256, i1 false, null, null, i32 0, metadata !48, i32 1714} ; [ DW_TAG_subprogram ]
!441 = metadata !{i32 786478, i32 0, metadata !269, metadata !"invert", metadata !"invert", metadata !"_ZN11ap_int_baseILi9ELb1ELb1EE6invertEi", metadata !36, i32 1720, metadata !302, i1 false, i1 false, i32 0, i32 0, null, i32 256, i1 false, null, null, i32 0, metadata !48, i32 1720} ; [ DW_TAG_subprogram ]
!442 = metadata !{i32 786478, i32 0, metadata !269, metadata !"test", metadata !"test", metadata !"_ZNK11ap_int_baseILi9ELb1ELb1EE4testEi", metadata !36, i32 1728, metadata !443, i1 false, i1 false, i32 0, i32 0, null, i32 256, i1 false, null, null, i32 0, metadata !48, i32 1728} ; [ DW_TAG_subprogram ]
!443 = metadata !{i32 786453, i32 0, metadata !"", i32 0, i32 0, i64 0, i64 0, i64 0, i32 0, null, metadata !444, i32 0, i32 0} ; [ DW_TAG_subroutine_type ]
!444 = metadata !{metadata !54, metadata !392, metadata !52}
!445 = metadata !{i32 786478, i32 0, metadata !269, metadata !"set", metadata !"set", metadata !"_ZN11ap_int_baseILi9ELb1ELb1EE3setEi", metadata !36, i32 1734, metadata !302, i1 false, i1 false, i32 0, i32 0, null, i32 256, i1 false, null, null, i32 0, metadata !48, i32 1734} ; [ DW_TAG_subprogram ]
!446 = metadata !{i32 786478, i32 0, metadata !269, metadata !"set", metadata !"set", metadata !"_ZN11ap_int_baseILi9ELb1ELb1EE3setEib", metadata !36, i32 1740, metadata !447, i1 false, i1 false, i32 0, i32 0, null, i32 256, i1 false, null, null, i32 0, metadata !48, i32 1740} ; [ DW_TAG_subprogram ]
!447 = metadata !{i32 786453, i32 0, metadata !"", i32 0, i32 0, i64 0, i64 0, i64 0, i32 0, null, metadata !448, i32 0, i32 0} ; [ DW_TAG_subroutine_type ]
!448 = metadata !{null, metadata !285, metadata !52, metadata !54}
!449 = metadata !{i32 786478, i32 0, metadata !269, metadata !"lrotate", metadata !"lrotate", metadata !"_ZN11ap_int_baseILi9ELb1ELb1EE7lrotateEi", metadata !36, i32 1747, metadata !302, i1 false, i1 false, i32 0, i32 0, null, i32 256, i1 false, null, null, i32 0, metadata !48, i32 1747} ; [ DW_TAG_subprogram ]
!450 = metadata !{i32 786478, i32 0, metadata !269, metadata !"rrotate", metadata !"rrotate", metadata !"_ZN11ap_int_baseILi9ELb1ELb1EE7rrotateEi", metadata !36, i32 1756, metadata !302, i1 false, i1 false, i32 0, i32 0, null, i32 256, i1 false, null, null, i32 0, metadata !48, i32 1756} ; [ DW_TAG_subprogram ]
!451 = metadata !{i32 786478, i32 0, metadata !269, metadata !"set_bit", metadata !"set_bit", metadata !"_ZN11ap_int_baseILi9ELb1ELb1EE7set_bitEib", metadata !36, i32 1764, metadata !447, i1 false, i1 false, i32 0, i32 0, null, i32 256, i1 false, null, null, i32 0, metadata !48, i32 1764} ; [ DW_TAG_subprogram ]
!452 = metadata !{i32 786478, i32 0, metadata !269, metadata !"get_bit", metadata !"get_bit", metadata !"_ZNK11ap_int_baseILi9ELb1ELb1EE7get_bitEi", metadata !36, i32 1769, metadata !443, i1 false, i1 false, i32 0, i32 0, null, i32 256, i1 false, null, null, i32 0, metadata !48, i32 1769} ; [ DW_TAG_subprogram ]
!453 = metadata !{i32 786478, i32 0, metadata !269, metadata !"b_not", metadata !"b_not", metadata !"_ZN11ap_int_baseILi9ELb1ELb1EE5b_notEv", metadata !36, i32 1774, metadata !283, i1 false, i1 false, i32 0, i32 0, null, i32 256, i1 false, null, null, i32 0, metadata !48, i32 1774} ; [ DW_TAG_subprogram ]
!454 = metadata !{i32 786478, i32 0, metadata !269, metadata !"countLeadingZeros", metadata !"countLeadingZeros", metadata !"_ZN11ap_int_baseILi9ELb1ELb1EE17countLeadingZerosEv", metadata !36, i32 1781, metadata !455, i1 false, i1 false, i32 0, i32 0, null, i32 256, i1 false, null, null, i32 0, metadata !48, i32 1781} ; [ DW_TAG_subprogram ]
!455 = metadata !{i32 786453, i32 0, metadata !"", i32 0, i32 0, i64 0, i64 0, i64 0, i32 0, null, metadata !456, i32 0, i32 0} ; [ DW_TAG_subroutine_type ]
!456 = metadata !{metadata !52, metadata !285}
!457 = metadata !{i32 786478, i32 0, metadata !269, metadata !"operator++", metadata !"operator++", metadata !"_ZN11ap_int_baseILi9ELb1ELb1EEppEv", metadata !36, i32 1838, metadata !435, i1 false, i1 false, i32 0, i32 0, null, i32 256, i1 false, null, null, i32 0, metadata !48, i32 1838} ; [ DW_TAG_subprogram ]
!458 = metadata !{i32 786478, i32 0, metadata !269, metadata !"operator--", metadata !"operator--", metadata !"_ZN11ap_int_baseILi9ELb1ELb1EEmmEv", metadata !36, i32 1842, metadata !435, i1 false, i1 false, i32 0, i32 0, null, i32 256, i1 false, null, null, i32 0, metadata !48, i32 1842} ; [ DW_TAG_subprogram ]
!459 = metadata !{i32 786478, i32 0, metadata !269, metadata !"operator++", metadata !"operator++", metadata !"_ZN11ap_int_baseILi9ELb1ELb1EEppEi", metadata !36, i32 1850, metadata !460, i1 false, i1 false, i32 0, i32 0, null, i32 256, i1 false, null, null, i32 0, metadata !48, i32 1850} ; [ DW_TAG_subprogram ]
!460 = metadata !{i32 786453, i32 0, metadata !"", i32 0, i32 0, i64 0, i64 0, i64 0, i32 0, null, metadata !461, i32 0, i32 0} ; [ DW_TAG_subroutine_type ]
!461 = metadata !{metadata !340, metadata !285, metadata !52}
!462 = metadata !{i32 786478, i32 0, metadata !269, metadata !"operator--", metadata !"operator--", metadata !"_ZN11ap_int_baseILi9ELb1ELb1EEmmEi", metadata !36, i32 1855, metadata !460, i1 false, i1 false, i32 0, i32 0, null, i32 256, i1 false, null, null, i32 0, metadata !48, i32 1855} ; [ DW_TAG_subprogram ]
!463 = metadata !{i32 786478, i32 0, metadata !269, metadata !"operator+", metadata !"operator+", metadata !"_ZNK11ap_int_baseILi9ELb1ELb1EEpsEv", metadata !36, i32 1864, metadata !464, i1 false, i1 false, i32 0, i32 0, null, i32 256, i1 false, null, null, i32 0, metadata !48, i32 1864} ; [ DW_TAG_subprogram ]
!464 = metadata !{i32 786453, i32 0, metadata !"", i32 0, i32 0, i64 0, i64 0, i64 0, i32 0, null, metadata !465, i32 0, i32 0} ; [ DW_TAG_subroutine_type ]
!465 = metadata !{metadata !269, metadata !392}
!466 = metadata !{i32 786478, i32 0, metadata !269, metadata !"operator!", metadata !"operator!", metadata !"_ZNK11ap_int_baseILi9ELb1ELb1EEntEv", metadata !36, i32 1870, metadata !394, i1 false, i1 false, i32 0, i32 0, null, i32 256, i1 false, null, null, i32 0, metadata !48, i32 1870} ; [ DW_TAG_subprogram ]
!467 = metadata !{i32 786478, i32 0, metadata !269, metadata !"operator-", metadata !"operator-", metadata !"_ZNK11ap_int_baseILi9ELb1ELb1EEngEv", metadata !36, i32 1875, metadata !468, i1 false, i1 false, i32 0, i32 0, null, i32 256, i1 false, null, null, i32 0, metadata !48, i32 1875} ; [ DW_TAG_subprogram ]
!468 = metadata !{i32 786453, i32 0, metadata !"", i32 0, i32 0, i64 0, i64 0, i64 0, i32 0, null, metadata !469, i32 0, i32 0} ; [ DW_TAG_subroutine_type ]
!469 = metadata !{metadata !470, metadata !392}
!470 = metadata !{i32 786434, null, metadata !"ap_int_base<10, true, true>", metadata !36, i32 650, i32 0, i32 0, i32 0, i32 4, null, null, i32 0} ; [ DW_TAG_class_type ]
!471 = metadata !{i32 786478, i32 0, metadata !269, metadata !"range", metadata !"range", metadata !"_ZN11ap_int_baseILi9ELb1ELb1EE5rangeEii", metadata !36, i32 2005, metadata !472, i1 false, i1 false, i32 0, i32 0, null, i32 256, i1 false, null, null, i32 0, metadata !48, i32 2005} ; [ DW_TAG_subprogram ]
!472 = metadata !{i32 786453, i32 0, metadata !"", i32 0, i32 0, i64 0, i64 0, i64 0, i32 0, null, metadata !473, i32 0, i32 0} ; [ DW_TAG_subroutine_type ]
!473 = metadata !{metadata !474, metadata !285, metadata !52, metadata !52}
!474 = metadata !{i32 786434, null, metadata !"ap_range_ref<9, true>", metadata !36, i32 923, i32 0, i32 0, i32 0, i32 4, null, null, i32 0} ; [ DW_TAG_class_type ]
!475 = metadata !{i32 786478, i32 0, metadata !269, metadata !"operator()", metadata !"operator()", metadata !"_ZN11ap_int_baseILi9ELb1ELb1EEclEii", metadata !36, i32 2011, metadata !472, i1 false, i1 false, i32 0, i32 0, null, i32 256, i1 false, null, null, i32 0, metadata !48, i32 2011} ; [ DW_TAG_subprogram ]
!476 = metadata !{i32 786478, i32 0, metadata !269, metadata !"range", metadata !"range", metadata !"_ZNK11ap_int_baseILi9ELb1ELb1EE5rangeEii", metadata !36, i32 2017, metadata !477, i1 false, i1 false, i32 0, i32 0, null, i32 256, i1 false, null, null, i32 0, metadata !48, i32 2017} ; [ DW_TAG_subprogram ]
!477 = metadata !{i32 786453, i32 0, metadata !"", i32 0, i32 0, i64 0, i64 0, i64 0, i32 0, null, metadata !478, i32 0, i32 0} ; [ DW_TAG_subroutine_type ]
!478 = metadata !{metadata !474, metadata !392, metadata !52, metadata !52}
!479 = metadata !{i32 786478, i32 0, metadata !269, metadata !"operator()", metadata !"operator()", metadata !"_ZNK11ap_int_baseILi9ELb1ELb1EEclEii", metadata !36, i32 2023, metadata !477, i1 false, i1 false, i32 0, i32 0, null, i32 256, i1 false, null, null, i32 0, metadata !48, i32 2023} ; [ DW_TAG_subprogram ]
!480 = metadata !{i32 786478, i32 0, metadata !269, metadata !"operator[]", metadata !"operator[]", metadata !"_ZN11ap_int_baseILi9ELb1ELb1EEixEi", metadata !36, i32 2042, metadata !481, i1 false, i1 false, i32 0, i32 0, null, i32 256, i1 false, null, null, i32 0, metadata !48, i32 2042} ; [ DW_TAG_subprogram ]
!481 = metadata !{i32 786453, i32 0, metadata !"", i32 0, i32 0, i64 0, i64 0, i64 0, i32 0, null, metadata !482, i32 0, i32 0} ; [ DW_TAG_subroutine_type ]
!482 = metadata !{metadata !483, metadata !285, metadata !52}
!483 = metadata !{i32 786434, null, metadata !"ap_bit_ref<9, true>", metadata !36, i32 1193, i64 128, i64 64, i32 0, i32 0, null, metadata !484, i32 0, null, metadata !517} ; [ DW_TAG_class_type ]
!484 = metadata !{metadata !485, metadata !486, metadata !487, metadata !493, metadata !497, metadata !501, metadata !502, metadata !506, metadata !509, metadata !510, metadata !513, metadata !514}
!485 = metadata !{i32 786445, metadata !483, metadata !"d_bv", metadata !36, i32 1194, i64 64, i64 64, i64 0, i32 0, metadata !350} ; [ DW_TAG_member ]
!486 = metadata !{i32 786445, metadata !483, metadata !"d_index", metadata !36, i32 1195, i64 32, i64 32, i64 64, i32 0, metadata !52} ; [ DW_TAG_member ]
!487 = metadata !{i32 786478, i32 0, metadata !483, metadata !"ap_bit_ref", metadata !"ap_bit_ref", metadata !"", metadata !36, i32 1198, metadata !488, i1 false, i1 false, i32 0, i32 0, null, i32 256, i1 false, null, null, i32 0, metadata !48, i32 1198} ; [ DW_TAG_subprogram ]
!488 = metadata !{i32 786453, i32 0, metadata !"", i32 0, i32 0, i64 0, i64 0, i64 0, i32 0, null, metadata !489, i32 0, i32 0} ; [ DW_TAG_subroutine_type ]
!489 = metadata !{null, metadata !490, metadata !491}
!490 = metadata !{i32 786447, i32 0, metadata !"", i32 0, i32 0, i64 64, i64 64, i64 0, i32 64, metadata !483} ; [ DW_TAG_pointer_type ]
!491 = metadata !{i32 786448, null, null, null, i32 0, i64 0, i64 0, i64 0, i32 0, metadata !492} ; [ DW_TAG_reference_type ]
!492 = metadata !{i32 786470, null, metadata !"", null, i32 0, i64 0, i64 0, i64 0, i32 0, metadata !483} ; [ DW_TAG_const_type ]
!493 = metadata !{i32 786478, i32 0, metadata !483, metadata !"ap_bit_ref", metadata !"ap_bit_ref", metadata !"", metadata !36, i32 1201, metadata !494, i1 false, i1 false, i32 0, i32 0, null, i32 256, i1 false, null, null, i32 0, metadata !48, i32 1201} ; [ DW_TAG_subprogram ]
!494 = metadata !{i32 786453, i32 0, metadata !"", i32 0, i32 0, i64 0, i64 0, i64 0, i32 0, null, metadata !495, i32 0, i32 0} ; [ DW_TAG_subroutine_type ]
!495 = metadata !{null, metadata !490, metadata !496, metadata !52}
!496 = metadata !{i32 786447, null, metadata !"", null, i32 0, i64 64, i64 64, i64 0, i32 0, metadata !269} ; [ DW_TAG_pointer_type ]
!497 = metadata !{i32 786478, i32 0, metadata !483, metadata !"operator _Bool", metadata !"operator _Bool", metadata !"_ZNK10ap_bit_refILi9ELb1EEcvbEv", metadata !36, i32 1203, metadata !498, i1 false, i1 false, i32 0, i32 0, null, i32 256, i1 false, null, null, i32 0, metadata !48, i32 1203} ; [ DW_TAG_subprogram ]
!498 = metadata !{i32 786453, i32 0, metadata !"", i32 0, i32 0, i64 0, i64 0, i64 0, i32 0, null, metadata !499, i32 0, i32 0} ; [ DW_TAG_subroutine_type ]
!499 = metadata !{metadata !54, metadata !500}
!500 = metadata !{i32 786447, i32 0, metadata !"", i32 0, i32 0, i64 64, i64 64, i64 0, i32 64, metadata !492} ; [ DW_TAG_pointer_type ]
!501 = metadata !{i32 786478, i32 0, metadata !483, metadata !"to_bool", metadata !"to_bool", metadata !"_ZNK10ap_bit_refILi9ELb1EE7to_boolEv", metadata !36, i32 1204, metadata !498, i1 false, i1 false, i32 0, i32 0, null, i32 256, i1 false, null, null, i32 0, metadata !48, i32 1204} ; [ DW_TAG_subprogram ]
!502 = metadata !{i32 786478, i32 0, metadata !483, metadata !"operator=", metadata !"operator=", metadata !"_ZN10ap_bit_refILi9ELb1EEaSEy", metadata !36, i32 1206, metadata !503, i1 false, i1 false, i32 0, i32 0, null, i32 256, i1 false, null, null, i32 0, metadata !48, i32 1206} ; [ DW_TAG_subprogram ]
!503 = metadata !{i32 786453, i32 0, metadata !"", i32 0, i32 0, i64 0, i64 0, i64 0, i32 0, null, metadata !504, i32 0, i32 0} ; [ DW_TAG_subroutine_type ]
!504 = metadata !{metadata !505, metadata !490, metadata !116}
!505 = metadata !{i32 786448, null, null, null, i32 0, i64 0, i64 0, i64 0, i32 0, metadata !483} ; [ DW_TAG_reference_type ]
!506 = metadata !{i32 786478, i32 0, metadata !483, metadata !"operator=", metadata !"operator=", metadata !"_ZN10ap_bit_refILi9ELb1EEaSERKS0_", metadata !36, i32 1226, metadata !507, i1 false, i1 false, i32 0, i32 0, null, i32 256, i1 false, null, null, i32 0, metadata !48, i32 1226} ; [ DW_TAG_subprogram ]
!507 = metadata !{i32 786453, i32 0, metadata !"", i32 0, i32 0, i64 0, i64 0, i64 0, i32 0, null, metadata !508, i32 0, i32 0} ; [ DW_TAG_subroutine_type ]
!508 = metadata !{metadata !505, metadata !490, metadata !491}
!509 = metadata !{i32 786478, i32 0, metadata !483, metadata !"get", metadata !"get", metadata !"_ZNK10ap_bit_refILi9ELb1EE3getEv", metadata !36, i32 1334, metadata !498, i1 false, i1 false, i32 0, i32 0, null, i32 256, i1 false, null, null, i32 0, metadata !48, i32 1334} ; [ DW_TAG_subprogram ]
!510 = metadata !{i32 786478, i32 0, metadata !483, metadata !"get", metadata !"get", metadata !"_ZN10ap_bit_refILi9ELb1EE3getEv", metadata !36, i32 1338, metadata !511, i1 false, i1 false, i32 0, i32 0, null, i32 256, i1 false, null, null, i32 0, metadata !48, i32 1338} ; [ DW_TAG_subprogram ]
!511 = metadata !{i32 786453, i32 0, metadata !"", i32 0, i32 0, i64 0, i64 0, i64 0, i32 0, null, metadata !512, i32 0, i32 0} ; [ DW_TAG_subroutine_type ]
!512 = metadata !{metadata !54, metadata !490}
!513 = metadata !{i32 786478, i32 0, metadata !483, metadata !"operator~", metadata !"operator~", metadata !"_ZNK10ap_bit_refILi9ELb1EEcoEv", metadata !36, i32 1347, metadata !498, i1 false, i1 false, i32 0, i32 0, null, i32 256, i1 false, null, null, i32 0, metadata !48, i32 1347} ; [ DW_TAG_subprogram ]
!514 = metadata !{i32 786478, i32 0, metadata !483, metadata !"length", metadata !"length", metadata !"_ZNK10ap_bit_refILi9ELb1EE6lengthEv", metadata !36, i32 1352, metadata !515, i1 false, i1 false, i32 0, i32 0, null, i32 256, i1 false, null, null, i32 0, metadata !48, i32 1352} ; [ DW_TAG_subprogram ]
!515 = metadata !{i32 786453, i32 0, metadata !"", i32 0, i32 0, i64 0, i64 0, i64 0, i32 0, null, metadata !516, i32 0, i32 0} ; [ DW_TAG_subroutine_type ]
!516 = metadata !{metadata !52, metadata !500}
!517 = metadata !{metadata !518, metadata !53}
!518 = metadata !{i32 786480, null, metadata !"_AP_W", metadata !52, i64 9, null, i32 0, i32 0} ; [ DW_TAG_template_value_parameter ]
!519 = metadata !{i32 786478, i32 0, metadata !269, metadata !"operator[]", metadata !"operator[]", metadata !"_ZNK11ap_int_baseILi9ELb1ELb1EEixEi", metadata !36, i32 2056, metadata !443, i1 false, i1 false, i32 0, i32 0, null, i32 256, i1 false, null, null, i32 0, metadata !48, i32 2056} ; [ DW_TAG_subprogram ]
!520 = metadata !{i32 786478, i32 0, metadata !269, metadata !"bit", metadata !"bit", metadata !"_ZN11ap_int_baseILi9ELb1ELb1EE3bitEi", metadata !36, i32 2070, metadata !481, i1 false, i1 false, i32 0, i32 0, null, i32 256, i1 false, null, null, i32 0, metadata !48, i32 2070} ; [ DW_TAG_subprogram ]
!521 = metadata !{i32 786478, i32 0, metadata !269, metadata !"bit", metadata !"bit", metadata !"_ZNK11ap_int_baseILi9ELb1ELb1EE3bitEi", metadata !36, i32 2084, metadata !443, i1 false, i1 false, i32 0, i32 0, null, i32 256, i1 false, null, null, i32 0, metadata !48, i32 2084} ; [ DW_TAG_subprogram ]
!522 = metadata !{i32 786478, i32 0, metadata !269, metadata !"and_reduce", metadata !"and_reduce", metadata !"_ZN11ap_int_baseILi9ELb1ELb1EE10and_reduceEv", metadata !36, i32 2264, metadata !523, i1 false, i1 false, i32 0, i32 0, null, i32 256, i1 false, null, null, i32 0, metadata !48, i32 2264} ; [ DW_TAG_subprogram ]
!523 = metadata !{i32 786453, i32 0, metadata !"", i32 0, i32 0, i64 0, i64 0, i64 0, i32 0, null, metadata !524, i32 0, i32 0} ; [ DW_TAG_subroutine_type ]
!524 = metadata !{metadata !54, metadata !285}
!525 = metadata !{i32 786478, i32 0, metadata !269, metadata !"nand_reduce", metadata !"nand_reduce", metadata !"_ZN11ap_int_baseILi9ELb1ELb1EE11nand_reduceEv", metadata !36, i32 2267, metadata !523, i1 false, i1 false, i32 0, i32 0, null, i32 256, i1 false, null, null, i32 0, metadata !48, i32 2267} ; [ DW_TAG_subprogram ]
!526 = metadata !{i32 786478, i32 0, metadata !269, metadata !"or_reduce", metadata !"or_reduce", metadata !"_ZN11ap_int_baseILi9ELb1ELb1EE9or_reduceEv", metadata !36, i32 2270, metadata !523, i1 false, i1 false, i32 0, i32 0, null, i32 256, i1 false, null, null, i32 0, metadata !48, i32 2270} ; [ DW_TAG_subprogram ]
!527 = metadata !{i32 786478, i32 0, metadata !269, metadata !"nor_reduce", metadata !"nor_reduce", metadata !"_ZN11ap_int_baseILi9ELb1ELb1EE10nor_reduceEv", metadata !36, i32 2273, metadata !523, i1 false, i1 false, i32 0, i32 0, null, i32 256, i1 false, null, null, i32 0, metadata !48, i32 2273} ; [ DW_TAG_subprogram ]
!528 = metadata !{i32 786478, i32 0, metadata !269, metadata !"xor_reduce", metadata !"xor_reduce", metadata !"_ZN11ap_int_baseILi9ELb1ELb1EE10xor_reduceEv", metadata !36, i32 2276, metadata !523, i1 false, i1 false, i32 0, i32 0, null, i32 256, i1 false, null, null, i32 0, metadata !48, i32 2276} ; [ DW_TAG_subprogram ]
!529 = metadata !{i32 786478, i32 0, metadata !269, metadata !"xnor_reduce", metadata !"xnor_reduce", metadata !"_ZN11ap_int_baseILi9ELb1ELb1EE11xnor_reduceEv", metadata !36, i32 2279, metadata !523, i1 false, i1 false, i32 0, i32 0, null, i32 256, i1 false, null, null, i32 0, metadata !48, i32 2279} ; [ DW_TAG_subprogram ]
!530 = metadata !{i32 786478, i32 0, metadata !269, metadata !"and_reduce", metadata !"and_reduce", metadata !"_ZNK11ap_int_baseILi9ELb1ELb1EE10and_reduceEv", metadata !36, i32 2283, metadata !394, i1 false, i1 false, i32 0, i32 0, null, i32 256, i1 false, null, null, i32 0, metadata !48, i32 2283} ; [ DW_TAG_subprogram ]
!531 = metadata !{i32 786478, i32 0, metadata !269, metadata !"nand_reduce", metadata !"nand_reduce", metadata !"_ZNK11ap_int_baseILi9ELb1ELb1EE11nand_reduceEv", metadata !36, i32 2286, metadata !394, i1 false, i1 false, i32 0, i32 0, null, i32 256, i1 false, null, null, i32 0, metadata !48, i32 2286} ; [ DW_TAG_subprogram ]
!532 = metadata !{i32 786478, i32 0, metadata !269, metadata !"or_reduce", metadata !"or_reduce", metadata !"_ZNK11ap_int_baseILi9ELb1ELb1EE9or_reduceEv", metadata !36, i32 2289, metadata !394, i1 false, i1 false, i32 0, i32 0, null, i32 256, i1 false, null, null, i32 0, metadata !48, i32 2289} ; [ DW_TAG_subprogram ]
!533 = metadata !{i32 786478, i32 0, metadata !269, metadata !"nor_reduce", metadata !"nor_reduce", metadata !"_ZNK11ap_int_baseILi9ELb1ELb1EE10nor_reduceEv", metadata !36, i32 2292, metadata !394, i1 false, i1 false, i32 0, i32 0, null, i32 256, i1 false, null, null, i32 0, metadata !48, i32 2292} ; [ DW_TAG_subprogram ]
!534 = metadata !{i32 786478, i32 0, metadata !269, metadata !"xor_reduce", metadata !"xor_reduce", metadata !"_ZNK11ap_int_baseILi9ELb1ELb1EE10xor_reduceEv", metadata !36, i32 2295, metadata !394, i1 false, i1 false, i32 0, i32 0, null, i32 256, i1 false, null, null, i32 0, metadata !48, i32 2295} ; [ DW_TAG_subprogram ]
!535 = metadata !{i32 786478, i32 0, metadata !269, metadata !"xnor_reduce", metadata !"xnor_reduce", metadata !"_ZNK11ap_int_baseILi9ELb1ELb1EE11xnor_reduceEv", metadata !36, i32 2298, metadata !394, i1 false, i1 false, i32 0, i32 0, null, i32 256, i1 false, null, null, i32 0, metadata !48, i32 2298} ; [ DW_TAG_subprogram ]
!536 = metadata !{i32 786478, i32 0, metadata !269, metadata !"to_string", metadata !"to_string", metadata !"_ZNK11ap_int_baseILi9ELb1ELb1EE9to_stringEPci8BaseModeb", metadata !36, i32 2305, metadata !537, i1 false, i1 false, i32 0, i32 0, null, i32 256, i1 false, null, null, i32 0, metadata !48, i32 2305} ; [ DW_TAG_subprogram ]
!537 = metadata !{i32 786453, i32 0, metadata !"", i32 0, i32 0, i64 0, i64 0, i64 0, i32 0, null, metadata !538, i32 0, i32 0} ; [ DW_TAG_subroutine_type ]
!538 = metadata !{null, metadata !392, metadata !539, metadata !52, metadata !540, metadata !54}
!539 = metadata !{i32 786447, null, metadata !"", null, i32 0, i64 64, i64 64, i64 0, i32 0, metadata !130} ; [ DW_TAG_pointer_type ]
!540 = metadata !{i32 786436, null, metadata !"BaseMode", metadata !36, i32 602, i64 5, i64 8, i32 0, i32 0, null, metadata !541, i32 0, i32 0} ; [ DW_TAG_enumeration_type ]
!541 = metadata !{metadata !542, metadata !543, metadata !544, metadata !545}
!542 = metadata !{i32 786472, metadata !"SC_BIN", i64 2} ; [ DW_TAG_enumerator ]
!543 = metadata !{i32 786472, metadata !"SC_OCT", i64 8} ; [ DW_TAG_enumerator ]
!544 = metadata !{i32 786472, metadata !"SC_DEC", i64 10} ; [ DW_TAG_enumerator ]
!545 = metadata !{i32 786472, metadata !"SC_HEX", i64 16} ; [ DW_TAG_enumerator ]
!546 = metadata !{i32 786478, i32 0, metadata !269, metadata !"to_string", metadata !"to_string", metadata !"_ZNK11ap_int_baseILi9ELb1ELb1EE9to_stringE8BaseModeb", metadata !36, i32 2332, metadata !547, i1 false, i1 false, i32 0, i32 0, null, i32 256, i1 false, null, null, i32 0, metadata !48, i32 2332} ; [ DW_TAG_subprogram ]
!547 = metadata !{i32 786453, i32 0, metadata !"", i32 0, i32 0, i64 0, i64 0, i64 0, i32 0, null, metadata !548, i32 0, i32 0} ; [ DW_TAG_subroutine_type ]
!548 = metadata !{metadata !539, metadata !392, metadata !540, metadata !54}
!549 = metadata !{i32 786478, i32 0, metadata !269, metadata !"to_string", metadata !"to_string", metadata !"_ZNK11ap_int_baseILi9ELb1ELb1EE9to_stringEab", metadata !36, i32 2336, metadata !550, i1 false, i1 false, i32 0, i32 0, null, i32 256, i1 false, null, null, i32 0, metadata !48, i32 2336} ; [ DW_TAG_subprogram ]
!550 = metadata !{i32 786453, i32 0, metadata !"", i32 0, i32 0, i64 0, i64 0, i64 0, i32 0, null, metadata !551, i32 0, i32 0} ; [ DW_TAG_subroutine_type ]
!551 = metadata !{metadata !539, metadata !392, metadata !79, metadata !54}
!552 = metadata !{metadata !518, metadata !53, metadata !553}
!553 = metadata !{i32 786480, null, metadata !"_AP_C", metadata !54, i64 1, null, i32 0, i32 0} ; [ DW_TAG_template_value_parameter ]
!554 = metadata !{i32 786478, i32 0, metadata !35, metadata !"operator<<<8>", metadata !"operator<<<8>", metadata !"_ZNK11ap_int_baseILi8ELb1ELb1EElsILi8EEES0_RKS_IXT_ELb1EXleT_Li64EEE", metadata !36, i32 1884, metadata !555, i1 false, i1 false, i32 0, i32 0, null, i32 256, i1 false, null, metadata !557, i32 0, metadata !48, i32 1884} ; [ DW_TAG_subprogram ]
!555 = metadata !{i32 786453, i32 0, metadata !"", i32 0, i32 0, i64 0, i64 0, i64 0, i32 0, null, metadata !556, i32 0, i32 0} ; [ DW_TAG_subroutine_type ]
!556 = metadata !{metadata !35, metadata !191, metadata !62}
!557 = metadata !{metadata !65}
!558 = metadata !{i32 786478, i32 0, metadata !35, metadata !"range", metadata !"range", metadata !"_ZN11ap_int_baseILi8ELb1ELb1EE5rangeEii", metadata !36, i32 2005, metadata !559, i1 false, i1 false, i32 0, i32 0, null, i32 256, i1 false, null, null, i32 0, metadata !48, i32 2005} ; [ DW_TAG_subprogram ]
!559 = metadata !{i32 786453, i32 0, metadata !"", i32 0, i32 0, i64 0, i64 0, i64 0, i32 0, null, metadata !560, i32 0, i32 0} ; [ DW_TAG_subroutine_type ]
!560 = metadata !{metadata !561, metadata !58, metadata !52, metadata !52}
!561 = metadata !{i32 786434, null, metadata !"ap_range_ref<8, true>", metadata !36, i32 923, i32 0, i32 0, i32 0, i32 4, null, null, i32 0} ; [ DW_TAG_class_type ]
!562 = metadata !{i32 786478, i32 0, metadata !35, metadata !"operator()", metadata !"operator()", metadata !"_ZN11ap_int_baseILi8ELb1ELb1EEclEii", metadata !36, i32 2011, metadata !559, i1 false, i1 false, i32 0, i32 0, null, i32 256, i1 false, null, null, i32 0, metadata !48, i32 2011} ; [ DW_TAG_subprogram ]
!563 = metadata !{i32 786478, i32 0, metadata !35, metadata !"range", metadata !"range", metadata !"_ZNK11ap_int_baseILi8ELb1ELb1EE5rangeEii", metadata !36, i32 2017, metadata !564, i1 false, i1 false, i32 0, i32 0, null, i32 256, i1 false, null, null, i32 0, metadata !48, i32 2017} ; [ DW_TAG_subprogram ]
!564 = metadata !{i32 786453, i32 0, metadata !"", i32 0, i32 0, i64 0, i64 0, i64 0, i32 0, null, metadata !565, i32 0, i32 0} ; [ DW_TAG_subroutine_type ]
!565 = metadata !{metadata !561, metadata !191, metadata !52, metadata !52}
!566 = metadata !{i32 786478, i32 0, metadata !35, metadata !"operator()", metadata !"operator()", metadata !"_ZNK11ap_int_baseILi8ELb1ELb1EEclEii", metadata !36, i32 2023, metadata !564, i1 false, i1 false, i32 0, i32 0, null, i32 256, i1 false, null, null, i32 0, metadata !48, i32 2023} ; [ DW_TAG_subprogram ]
!567 = metadata !{i32 786478, i32 0, metadata !35, metadata !"operator[]", metadata !"operator[]", metadata !"_ZN11ap_int_baseILi8ELb1ELb1EEixEi", metadata !36, i32 2042, metadata !568, i1 false, i1 false, i32 0, i32 0, null, i32 256, i1 false, null, null, i32 0, metadata !48, i32 2042} ; [ DW_TAG_subprogram ]
!568 = metadata !{i32 786453, i32 0, metadata !"", i32 0, i32 0, i64 0, i64 0, i64 0, i32 0, null, metadata !569, i32 0, i32 0} ; [ DW_TAG_subroutine_type ]
!569 = metadata !{metadata !570, metadata !58, metadata !52}
!570 = metadata !{i32 786434, null, metadata !"ap_bit_ref<8, true>", metadata !36, i32 1193, i64 128, i64 64, i32 0, i32 0, null, metadata !571, i32 0, null, metadata !604} ; [ DW_TAG_class_type ]
!571 = metadata !{metadata !572, metadata !573, metadata !574, metadata !580, metadata !584, metadata !588, metadata !589, metadata !593, metadata !596, metadata !597, metadata !600, metadata !601}
!572 = metadata !{i32 786445, metadata !570, metadata !"d_bv", metadata !36, i32 1194, i64 64, i64 64, i64 0, i32 0, metadata !148} ; [ DW_TAG_member ]
!573 = metadata !{i32 786445, metadata !570, metadata !"d_index", metadata !36, i32 1195, i64 32, i64 32, i64 64, i32 0, metadata !52} ; [ DW_TAG_member ]
!574 = metadata !{i32 786478, i32 0, metadata !570, metadata !"ap_bit_ref", metadata !"ap_bit_ref", metadata !"", metadata !36, i32 1198, metadata !575, i1 false, i1 false, i32 0, i32 0, null, i32 256, i1 false, null, null, i32 0, metadata !48, i32 1198} ; [ DW_TAG_subprogram ]
!575 = metadata !{i32 786453, i32 0, metadata !"", i32 0, i32 0, i64 0, i64 0, i64 0, i32 0, null, metadata !576, i32 0, i32 0} ; [ DW_TAG_subroutine_type ]
!576 = metadata !{null, metadata !577, metadata !578}
!577 = metadata !{i32 786447, i32 0, metadata !"", i32 0, i32 0, i64 64, i64 64, i64 0, i32 64, metadata !570} ; [ DW_TAG_pointer_type ]
!578 = metadata !{i32 786448, null, null, null, i32 0, i64 0, i64 0, i64 0, i32 0, metadata !579} ; [ DW_TAG_reference_type ]
!579 = metadata !{i32 786470, null, metadata !"", null, i32 0, i64 0, i64 0, i64 0, i32 0, metadata !570} ; [ DW_TAG_const_type ]
!580 = metadata !{i32 786478, i32 0, metadata !570, metadata !"ap_bit_ref", metadata !"ap_bit_ref", metadata !"", metadata !36, i32 1201, metadata !581, i1 false, i1 false, i32 0, i32 0, null, i32 256, i1 false, null, null, i32 0, metadata !48, i32 1201} ; [ DW_TAG_subprogram ]
!581 = metadata !{i32 786453, i32 0, metadata !"", i32 0, i32 0, i64 0, i64 0, i64 0, i32 0, null, metadata !582, i32 0, i32 0} ; [ DW_TAG_subroutine_type ]
!582 = metadata !{null, metadata !577, metadata !583, metadata !52}
!583 = metadata !{i32 786447, null, metadata !"", null, i32 0, i64 64, i64 64, i64 0, i32 0, metadata !35} ; [ DW_TAG_pointer_type ]
!584 = metadata !{i32 786478, i32 0, metadata !570, metadata !"operator _Bool", metadata !"operator _Bool", metadata !"_ZNK10ap_bit_refILi8ELb1EEcvbEv", metadata !36, i32 1203, metadata !585, i1 false, i1 false, i32 0, i32 0, null, i32 256, i1 false, null, null, i32 0, metadata !48, i32 1203} ; [ DW_TAG_subprogram ]
!585 = metadata !{i32 786453, i32 0, metadata !"", i32 0, i32 0, i64 0, i64 0, i64 0, i32 0, null, metadata !586, i32 0, i32 0} ; [ DW_TAG_subroutine_type ]
!586 = metadata !{metadata !54, metadata !587}
!587 = metadata !{i32 786447, i32 0, metadata !"", i32 0, i32 0, i64 64, i64 64, i64 0, i32 64, metadata !579} ; [ DW_TAG_pointer_type ]
!588 = metadata !{i32 786478, i32 0, metadata !570, metadata !"to_bool", metadata !"to_bool", metadata !"_ZNK10ap_bit_refILi8ELb1EE7to_boolEv", metadata !36, i32 1204, metadata !585, i1 false, i1 false, i32 0, i32 0, null, i32 256, i1 false, null, null, i32 0, metadata !48, i32 1204} ; [ DW_TAG_subprogram ]
!589 = metadata !{i32 786478, i32 0, metadata !570, metadata !"operator=", metadata !"operator=", metadata !"_ZN10ap_bit_refILi8ELb1EEaSEy", metadata !36, i32 1206, metadata !590, i1 false, i1 false, i32 0, i32 0, null, i32 256, i1 false, null, null, i32 0, metadata !48, i32 1206} ; [ DW_TAG_subprogram ]
!590 = metadata !{i32 786453, i32 0, metadata !"", i32 0, i32 0, i64 0, i64 0, i64 0, i32 0, null, metadata !591, i32 0, i32 0} ; [ DW_TAG_subroutine_type ]
!591 = metadata !{metadata !592, metadata !577, metadata !116}
!592 = metadata !{i32 786448, null, null, null, i32 0, i64 0, i64 0, i64 0, i32 0, metadata !570} ; [ DW_TAG_reference_type ]
!593 = metadata !{i32 786478, i32 0, metadata !570, metadata !"operator=", metadata !"operator=", metadata !"_ZN10ap_bit_refILi8ELb1EEaSERKS0_", metadata !36, i32 1226, metadata !594, i1 false, i1 false, i32 0, i32 0, null, i32 256, i1 false, null, null, i32 0, metadata !48, i32 1226} ; [ DW_TAG_subprogram ]
!594 = metadata !{i32 786453, i32 0, metadata !"", i32 0, i32 0, i64 0, i64 0, i64 0, i32 0, null, metadata !595, i32 0, i32 0} ; [ DW_TAG_subroutine_type ]
!595 = metadata !{metadata !592, metadata !577, metadata !578}
!596 = metadata !{i32 786478, i32 0, metadata !570, metadata !"get", metadata !"get", metadata !"_ZNK10ap_bit_refILi8ELb1EE3getEv", metadata !36, i32 1334, metadata !585, i1 false, i1 false, i32 0, i32 0, null, i32 256, i1 false, null, null, i32 0, metadata !48, i32 1334} ; [ DW_TAG_subprogram ]
!597 = metadata !{i32 786478, i32 0, metadata !570, metadata !"get", metadata !"get", metadata !"_ZN10ap_bit_refILi8ELb1EE3getEv", metadata !36, i32 1338, metadata !598, i1 false, i1 false, i32 0, i32 0, null, i32 256, i1 false, null, null, i32 0, metadata !48, i32 1338} ; [ DW_TAG_subprogram ]
!598 = metadata !{i32 786453, i32 0, metadata !"", i32 0, i32 0, i64 0, i64 0, i64 0, i32 0, null, metadata !599, i32 0, i32 0} ; [ DW_TAG_subroutine_type ]
!599 = metadata !{metadata !54, metadata !577}
!600 = metadata !{i32 786478, i32 0, metadata !570, metadata !"operator~", metadata !"operator~", metadata !"_ZNK10ap_bit_refILi8ELb1EEcoEv", metadata !36, i32 1347, metadata !585, i1 false, i1 false, i32 0, i32 0, null, i32 256, i1 false, null, null, i32 0, metadata !48, i32 1347} ; [ DW_TAG_subprogram ]
!601 = metadata !{i32 786478, i32 0, metadata !570, metadata !"length", metadata !"length", metadata !"_ZNK10ap_bit_refILi8ELb1EE6lengthEv", metadata !36, i32 1352, metadata !602, i1 false, i1 false, i32 0, i32 0, null, i32 256, i1 false, null, null, i32 0, metadata !48, i32 1352} ; [ DW_TAG_subprogram ]
!602 = metadata !{i32 786453, i32 0, metadata !"", i32 0, i32 0, i64 0, i64 0, i64 0, i32 0, null, metadata !603, i32 0, i32 0} ; [ DW_TAG_subroutine_type ]
!603 = metadata !{metadata !52, metadata !587}
!604 = metadata !{metadata !605, metadata !53}
!605 = metadata !{i32 786480, null, metadata !"_AP_W", metadata !52, i64 8, null, i32 0, i32 0} ; [ DW_TAG_template_value_parameter ]
!606 = metadata !{i32 786478, i32 0, metadata !35, metadata !"operator[]", metadata !"operator[]", metadata !"_ZNK11ap_int_baseILi8ELb1ELb1EEixEi", metadata !36, i32 2056, metadata !242, i1 false, i1 false, i32 0, i32 0, null, i32 256, i1 false, null, null, i32 0, metadata !48, i32 2056} ; [ DW_TAG_subprogram ]
!607 = metadata !{i32 786478, i32 0, metadata !35, metadata !"bit", metadata !"bit", metadata !"_ZN11ap_int_baseILi8ELb1ELb1EE3bitEi", metadata !36, i32 2070, metadata !568, i1 false, i1 false, i32 0, i32 0, null, i32 256, i1 false, null, null, i32 0, metadata !48, i32 2070} ; [ DW_TAG_subprogram ]
!608 = metadata !{i32 786478, i32 0, metadata !35, metadata !"bit", metadata !"bit", metadata !"_ZNK11ap_int_baseILi8ELb1ELb1EE3bitEi", metadata !36, i32 2084, metadata !242, i1 false, i1 false, i32 0, i32 0, null, i32 256, i1 false, null, null, i32 0, metadata !48, i32 2084} ; [ DW_TAG_subprogram ]
!609 = metadata !{i32 786478, i32 0, metadata !35, metadata !"and_reduce", metadata !"and_reduce", metadata !"_ZN11ap_int_baseILi8ELb1ELb1EE10and_reduceEv", metadata !36, i32 2264, metadata !610, i1 false, i1 false, i32 0, i32 0, null, i32 256, i1 false, null, null, i32 0, metadata !48, i32 2264} ; [ DW_TAG_subprogram ]
!610 = metadata !{i32 786453, i32 0, metadata !"", i32 0, i32 0, i64 0, i64 0, i64 0, i32 0, null, metadata !611, i32 0, i32 0} ; [ DW_TAG_subroutine_type ]
!611 = metadata !{metadata !54, metadata !58}
!612 = metadata !{i32 786478, i32 0, metadata !35, metadata !"nand_reduce", metadata !"nand_reduce", metadata !"_ZN11ap_int_baseILi8ELb1ELb1EE11nand_reduceEv", metadata !36, i32 2267, metadata !610, i1 false, i1 false, i32 0, i32 0, null, i32 256, i1 false, null, null, i32 0, metadata !48, i32 2267} ; [ DW_TAG_subprogram ]
!613 = metadata !{i32 786478, i32 0, metadata !35, metadata !"or_reduce", metadata !"or_reduce", metadata !"_ZN11ap_int_baseILi8ELb1ELb1EE9or_reduceEv", metadata !36, i32 2270, metadata !610, i1 false, i1 false, i32 0, i32 0, null, i32 256, i1 false, null, null, i32 0, metadata !48, i32 2270} ; [ DW_TAG_subprogram ]
!614 = metadata !{i32 786478, i32 0, metadata !35, metadata !"nor_reduce", metadata !"nor_reduce", metadata !"_ZN11ap_int_baseILi8ELb1ELb1EE10nor_reduceEv", metadata !36, i32 2273, metadata !610, i1 false, i1 false, i32 0, i32 0, null, i32 256, i1 false, null, null, i32 0, metadata !48, i32 2273} ; [ DW_TAG_subprogram ]
!615 = metadata !{i32 786478, i32 0, metadata !35, metadata !"xor_reduce", metadata !"xor_reduce", metadata !"_ZN11ap_int_baseILi8ELb1ELb1EE10xor_reduceEv", metadata !36, i32 2276, metadata !610, i1 false, i1 false, i32 0, i32 0, null, i32 256, i1 false, null, null, i32 0, metadata !48, i32 2276} ; [ DW_TAG_subprogram ]
!616 = metadata !{i32 786478, i32 0, metadata !35, metadata !"xnor_reduce", metadata !"xnor_reduce", metadata !"_ZN11ap_int_baseILi8ELb1ELb1EE11xnor_reduceEv", metadata !36, i32 2279, metadata !610, i1 false, i1 false, i32 0, i32 0, null, i32 256, i1 false, null, null, i32 0, metadata !48, i32 2279} ; [ DW_TAG_subprogram ]
!617 = metadata !{i32 786478, i32 0, metadata !35, metadata !"and_reduce", metadata !"and_reduce", metadata !"_ZNK11ap_int_baseILi8ELb1ELb1EE10and_reduceEv", metadata !36, i32 2283, metadata !193, i1 false, i1 false, i32 0, i32 0, null, i32 256, i1 false, null, null, i32 0, metadata !48, i32 2283} ; [ DW_TAG_subprogram ]
!618 = metadata !{i32 786478, i32 0, metadata !35, metadata !"nand_reduce", metadata !"nand_reduce", metadata !"_ZNK11ap_int_baseILi8ELb1ELb1EE11nand_reduceEv", metadata !36, i32 2286, metadata !193, i1 false, i1 false, i32 0, i32 0, null, i32 256, i1 false, null, null, i32 0, metadata !48, i32 2286} ; [ DW_TAG_subprogram ]
!619 = metadata !{i32 786478, i32 0, metadata !35, metadata !"or_reduce", metadata !"or_reduce", metadata !"_ZNK11ap_int_baseILi8ELb1ELb1EE9or_reduceEv", metadata !36, i32 2289, metadata !193, i1 false, i1 false, i32 0, i32 0, null, i32 256, i1 false, null, null, i32 0, metadata !48, i32 2289} ; [ DW_TAG_subprogram ]
!620 = metadata !{i32 786478, i32 0, metadata !35, metadata !"nor_reduce", metadata !"nor_reduce", metadata !"_ZNK11ap_int_baseILi8ELb1ELb1EE10nor_reduceEv", metadata !36, i32 2292, metadata !193, i1 false, i1 false, i32 0, i32 0, null, i32 256, i1 false, null, null, i32 0, metadata !48, i32 2292} ; [ DW_TAG_subprogram ]
!621 = metadata !{i32 786478, i32 0, metadata !35, metadata !"xor_reduce", metadata !"xor_reduce", metadata !"_ZNK11ap_int_baseILi8ELb1ELb1EE10xor_reduceEv", metadata !36, i32 2295, metadata !193, i1 false, i1 false, i32 0, i32 0, null, i32 256, i1 false, null, null, i32 0, metadata !48, i32 2295} ; [ DW_TAG_subprogram ]
!622 = metadata !{i32 786478, i32 0, metadata !35, metadata !"xnor_reduce", metadata !"xnor_reduce", metadata !"_ZNK11ap_int_baseILi8ELb1ELb1EE11xnor_reduceEv", metadata !36, i32 2298, metadata !193, i1 false, i1 false, i32 0, i32 0, null, i32 256, i1 false, null, null, i32 0, metadata !48, i32 2298} ; [ DW_TAG_subprogram ]
!623 = metadata !{i32 786478, i32 0, metadata !35, metadata !"to_string", metadata !"to_string", metadata !"_ZNK11ap_int_baseILi8ELb1ELb1EE9to_stringEPci8BaseModeb", metadata !36, i32 2305, metadata !624, i1 false, i1 false, i32 0, i32 0, null, i32 256, i1 false, null, null, i32 0, metadata !48, i32 2305} ; [ DW_TAG_subprogram ]
!624 = metadata !{i32 786453, i32 0, metadata !"", i32 0, i32 0, i64 0, i64 0, i64 0, i32 0, null, metadata !625, i32 0, i32 0} ; [ DW_TAG_subroutine_type ]
!625 = metadata !{null, metadata !191, metadata !539, metadata !52, metadata !540, metadata !54}
!626 = metadata !{i32 786478, i32 0, metadata !35, metadata !"to_string", metadata !"to_string", metadata !"_ZNK11ap_int_baseILi8ELb1ELb1EE9to_stringE8BaseModeb", metadata !36, i32 2332, metadata !627, i1 false, i1 false, i32 0, i32 0, null, i32 256, i1 false, null, null, i32 0, metadata !48, i32 2332} ; [ DW_TAG_subprogram ]
!627 = metadata !{i32 786453, i32 0, metadata !"", i32 0, i32 0, i64 0, i64 0, i64 0, i32 0, null, metadata !628, i32 0, i32 0} ; [ DW_TAG_subroutine_type ]
!628 = metadata !{metadata !539, metadata !191, metadata !540, metadata !54}
!629 = metadata !{i32 786478, i32 0, metadata !35, metadata !"to_string", metadata !"to_string", metadata !"_ZNK11ap_int_baseILi8ELb1ELb1EE9to_stringEab", metadata !36, i32 2336, metadata !630, i1 false, i1 false, i32 0, i32 0, null, i32 256, i1 false, null, null, i32 0, metadata !48, i32 2336} ; [ DW_TAG_subprogram ]
!630 = metadata !{i32 786453, i32 0, metadata !"", i32 0, i32 0, i64 0, i64 0, i64 0, i32 0, null, metadata !631, i32 0, i32 0} ; [ DW_TAG_subroutine_type ]
!631 = metadata !{metadata !539, metadata !191, metadata !79, metadata !54}
!632 = metadata !{i32 786478, i32 0, metadata !35, metadata !"~ap_int_base", metadata !"~ap_int_base", metadata !"", metadata !36, i32 1397, metadata !56, i1 false, i1 false, i32 0, i32 0, null, i32 320, i1 false, null, null, i32 0, metadata !48, i32 1397} ; [ DW_TAG_subprogram ]
!633 = metadata !{metadata !605, metadata !53, metadata !553}
!634 = metadata !{i32 786478, i32 0, metadata !31, metadata !"ap_int", metadata !"ap_int", metadata !"", metadata !32, i32 76, metadata !635, i1 false, i1 false, i32 0, i32 0, null, i32 256, i1 false, null, null, i32 0, metadata !48, i32 76} ; [ DW_TAG_subprogram ]
!635 = metadata !{i32 786453, i32 0, metadata !"", i32 0, i32 0, i64 0, i64 0, i64 0, i32 0, null, metadata !636, i32 0, i32 0} ; [ DW_TAG_subroutine_type ]
!636 = metadata !{null, metadata !637}
!637 = metadata !{i32 786447, i32 0, metadata !"", i32 0, i32 0, i64 64, i64 64, i64 0, i32 64, metadata !31} ; [ DW_TAG_pointer_type ]
!638 = metadata !{i32 786478, i32 0, metadata !31, metadata !"ap_int<8, true>", metadata !"ap_int<8, true>", metadata !"", metadata !32, i32 120, metadata !639, i1 false, i1 false, i32 0, i32 0, null, i32 256, i1 false, null, metadata !64, i32 0, metadata !48, i32 120} ; [ DW_TAG_subprogram ]
!639 = metadata !{i32 786453, i32 0, metadata !"", i32 0, i32 0, i64 0, i64 0, i64 0, i32 0, null, metadata !640, i32 0, i32 0} ; [ DW_TAG_subroutine_type ]
!640 = metadata !{null, metadata !637, metadata !62}
!641 = metadata !{i32 786478, i32 0, metadata !31, metadata !"ap_int", metadata !"ap_int", metadata !"", metadata !32, i32 139, metadata !642, i1 false, i1 false, i32 0, i32 0, null, i32 256, i1 false, null, null, i32 0, metadata !48, i32 139} ; [ DW_TAG_subprogram ]
!642 = metadata !{i32 786453, i32 0, metadata !"", i32 0, i32 0, i64 0, i64 0, i64 0, i32 0, null, metadata !643, i32 0, i32 0} ; [ DW_TAG_subroutine_type ]
!643 = metadata !{null, metadata !637, metadata !54}
!644 = metadata !{i32 786478, i32 0, metadata !31, metadata !"ap_int", metadata !"ap_int", metadata !"", metadata !32, i32 140, metadata !645, i1 false, i1 false, i32 0, i32 0, null, i32 256, i1 false, null, null, i32 0, metadata !48, i32 140} ; [ DW_TAG_subprogram ]
!645 = metadata !{i32 786453, i32 0, metadata !"", i32 0, i32 0, i64 0, i64 0, i64 0, i32 0, null, metadata !646, i32 0, i32 0} ; [ DW_TAG_subroutine_type ]
!646 = metadata !{null, metadata !637, metadata !79}
!647 = metadata !{i32 786478, i32 0, metadata !31, metadata !"ap_int", metadata !"ap_int", metadata !"", metadata !32, i32 141, metadata !648, i1 false, i1 false, i32 0, i32 0, null, i32 256, i1 false, null, null, i32 0, metadata !48, i32 141} ; [ DW_TAG_subprogram ]
!648 = metadata !{i32 786453, i32 0, metadata !"", i32 0, i32 0, i64 0, i64 0, i64 0, i32 0, null, metadata !649, i32 0, i32 0} ; [ DW_TAG_subroutine_type ]
!649 = metadata !{null, metadata !637, metadata !83}
!650 = metadata !{i32 786478, i32 0, metadata !31, metadata !"ap_int", metadata !"ap_int", metadata !"", metadata !32, i32 142, metadata !651, i1 false, i1 false, i32 0, i32 0, null, i32 256, i1 false, null, null, i32 0, metadata !48, i32 142} ; [ DW_TAG_subprogram ]
!651 = metadata !{i32 786453, i32 0, metadata !"", i32 0, i32 0, i64 0, i64 0, i64 0, i32 0, null, metadata !652, i32 0, i32 0} ; [ DW_TAG_subroutine_type ]
!652 = metadata !{null, metadata !637, metadata !87}
!653 = metadata !{i32 786478, i32 0, metadata !31, metadata !"ap_int", metadata !"ap_int", metadata !"", metadata !32, i32 143, metadata !654, i1 false, i1 false, i32 0, i32 0, null, i32 256, i1 false, null, null, i32 0, metadata !48, i32 143} ; [ DW_TAG_subprogram ]
!654 = metadata !{i32 786453, i32 0, metadata !"", i32 0, i32 0, i64 0, i64 0, i64 0, i32 0, null, metadata !655, i32 0, i32 0} ; [ DW_TAG_subroutine_type ]
!655 = metadata !{null, metadata !637, metadata !91}
!656 = metadata !{i32 786478, i32 0, metadata !31, metadata !"ap_int", metadata !"ap_int", metadata !"", metadata !32, i32 144, metadata !657, i1 false, i1 false, i32 0, i32 0, null, i32 256, i1 false, null, null, i32 0, metadata !48, i32 144} ; [ DW_TAG_subprogram ]
!657 = metadata !{i32 786453, i32 0, metadata !"", i32 0, i32 0, i64 0, i64 0, i64 0, i32 0, null, metadata !658, i32 0, i32 0} ; [ DW_TAG_subroutine_type ]
!658 = metadata !{null, metadata !637, metadata !52}
!659 = metadata !{i32 786478, i32 0, metadata !31, metadata !"ap_int", metadata !"ap_int", metadata !"", metadata !32, i32 145, metadata !660, i1 false, i1 false, i32 0, i32 0, null, i32 256, i1 false, null, null, i32 0, metadata !48, i32 145} ; [ DW_TAG_subprogram ]
!660 = metadata !{i32 786453, i32 0, metadata !"", i32 0, i32 0, i64 0, i64 0, i64 0, i32 0, null, metadata !661, i32 0, i32 0} ; [ DW_TAG_subroutine_type ]
!661 = metadata !{null, metadata !637, metadata !98}
!662 = metadata !{i32 786478, i32 0, metadata !31, metadata !"ap_int", metadata !"ap_int", metadata !"", metadata !32, i32 146, metadata !663, i1 false, i1 false, i32 0, i32 0, null, i32 256, i1 false, null, null, i32 0, metadata !48, i32 146} ; [ DW_TAG_subprogram ]
!663 = metadata !{i32 786453, i32 0, metadata !"", i32 0, i32 0, i64 0, i64 0, i64 0, i32 0, null, metadata !664, i32 0, i32 0} ; [ DW_TAG_subroutine_type ]
!664 = metadata !{null, metadata !637, metadata !102}
!665 = metadata !{i32 786478, i32 0, metadata !31, metadata !"ap_int", metadata !"ap_int", metadata !"", metadata !32, i32 147, metadata !666, i1 false, i1 false, i32 0, i32 0, null, i32 256, i1 false, null, null, i32 0, metadata !48, i32 147} ; [ DW_TAG_subprogram ]
!666 = metadata !{i32 786453, i32 0, metadata !"", i32 0, i32 0, i64 0, i64 0, i64 0, i32 0, null, metadata !667, i32 0, i32 0} ; [ DW_TAG_subroutine_type ]
!667 = metadata !{null, metadata !637, metadata !106}
!668 = metadata !{i32 786478, i32 0, metadata !31, metadata !"ap_int", metadata !"ap_int", metadata !"", metadata !32, i32 148, metadata !669, i1 false, i1 false, i32 0, i32 0, null, i32 256, i1 false, null, null, i32 0, metadata !48, i32 148} ; [ DW_TAG_subprogram ]
!669 = metadata !{i32 786453, i32 0, metadata !"", i32 0, i32 0, i64 0, i64 0, i64 0, i32 0, null, metadata !670, i32 0, i32 0} ; [ DW_TAG_subroutine_type ]
!670 = metadata !{null, metadata !637, metadata !116}
!671 = metadata !{i32 786478, i32 0, metadata !31, metadata !"ap_int", metadata !"ap_int", metadata !"", metadata !32, i32 149, metadata !672, i1 false, i1 false, i32 0, i32 0, null, i32 256, i1 false, null, null, i32 0, metadata !48, i32 149} ; [ DW_TAG_subprogram ]
!672 = metadata !{i32 786453, i32 0, metadata !"", i32 0, i32 0, i64 0, i64 0, i64 0, i32 0, null, metadata !673, i32 0, i32 0} ; [ DW_TAG_subroutine_type ]
!673 = metadata !{null, metadata !637, metadata !111}
!674 = metadata !{i32 786478, i32 0, metadata !31, metadata !"ap_int", metadata !"ap_int", metadata !"", metadata !32, i32 150, metadata !675, i1 false, i1 false, i32 0, i32 0, null, i32 256, i1 false, null, null, i32 0, metadata !48, i32 150} ; [ DW_TAG_subprogram ]
!675 = metadata !{i32 786453, i32 0, metadata !"", i32 0, i32 0, i64 0, i64 0, i64 0, i32 0, null, metadata !676, i32 0, i32 0} ; [ DW_TAG_subroutine_type ]
!676 = metadata !{null, metadata !637, metadata !120}
!677 = metadata !{i32 786478, i32 0, metadata !31, metadata !"ap_int", metadata !"ap_int", metadata !"", metadata !32, i32 151, metadata !678, i1 false, i1 false, i32 0, i32 0, null, i32 256, i1 false, null, null, i32 0, metadata !48, i32 151} ; [ DW_TAG_subprogram ]
!678 = metadata !{i32 786453, i32 0, metadata !"", i32 0, i32 0, i64 0, i64 0, i64 0, i32 0, null, metadata !679, i32 0, i32 0} ; [ DW_TAG_subroutine_type ]
!679 = metadata !{null, metadata !637, metadata !124}
!680 = metadata !{i32 786478, i32 0, metadata !31, metadata !"ap_int", metadata !"ap_int", metadata !"", metadata !32, i32 153, metadata !681, i1 false, i1 false, i32 0, i32 0, null, i32 256, i1 false, null, null, i32 0, metadata !48, i32 153} ; [ DW_TAG_subprogram ]
!681 = metadata !{i32 786453, i32 0, metadata !"", i32 0, i32 0, i64 0, i64 0, i64 0, i32 0, null, metadata !682, i32 0, i32 0} ; [ DW_TAG_subroutine_type ]
!682 = metadata !{null, metadata !637, metadata !128}
!683 = metadata !{i32 786478, i32 0, metadata !31, metadata !"ap_int", metadata !"ap_int", metadata !"", metadata !32, i32 154, metadata !684, i1 false, i1 false, i32 0, i32 0, null, i32 256, i1 false, null, null, i32 0, metadata !48, i32 154} ; [ DW_TAG_subprogram ]
!684 = metadata !{i32 786453, i32 0, metadata !"", i32 0, i32 0, i64 0, i64 0, i64 0, i32 0, null, metadata !685, i32 0, i32 0} ; [ DW_TAG_subroutine_type ]
!685 = metadata !{null, metadata !637, metadata !128, metadata !79}
!686 = metadata !{i32 786478, i32 0, metadata !31, metadata !"operator=", metadata !"operator=", metadata !"_ZNV6ap_intILi8EEaSERKS0_", metadata !32, i32 158, metadata !687, i1 false, i1 false, i32 0, i32 0, null, i32 256, i1 false, null, null, i32 0, metadata !48, i32 158} ; [ DW_TAG_subprogram ]
!687 = metadata !{i32 786453, i32 0, metadata !"", i32 0, i32 0, i64 0, i64 0, i64 0, i32 0, null, metadata !688, i32 0, i32 0} ; [ DW_TAG_subroutine_type ]
!688 = metadata !{null, metadata !689, metadata !691}
!689 = metadata !{i32 786447, i32 0, metadata !"", i32 0, i32 0, i64 64, i64 64, i64 0, i32 64, metadata !690} ; [ DW_TAG_pointer_type ]
!690 = metadata !{i32 786485, null, metadata !"", null, i32 0, i64 0, i64 0, i64 0, i32 0, metadata !31} ; [ DW_TAG_volatile_type ]
!691 = metadata !{i32 786448, null, null, null, i32 0, i64 0, i64 0, i64 0, i32 0, metadata !692} ; [ DW_TAG_reference_type ]
!692 = metadata !{i32 786470, null, metadata !"", null, i32 0, i64 0, i64 0, i64 0, i32 0, metadata !31} ; [ DW_TAG_const_type ]
!693 = metadata !{i32 786478, i32 0, metadata !31, metadata !"operator=", metadata !"operator=", metadata !"_ZNV6ap_intILi8EEaSERVKS0_", metadata !32, i32 162, metadata !694, i1 false, i1 false, i32 0, i32 0, null, i32 256, i1 false, null, null, i32 0, metadata !48, i32 162} ; [ DW_TAG_subprogram ]
!694 = metadata !{i32 786453, i32 0, metadata !"", i32 0, i32 0, i64 0, i64 0, i64 0, i32 0, null, metadata !695, i32 0, i32 0} ; [ DW_TAG_subroutine_type ]
!695 = metadata !{null, metadata !689, metadata !696}
!696 = metadata !{i32 786448, null, null, null, i32 0, i64 0, i64 0, i64 0, i32 0, metadata !697} ; [ DW_TAG_reference_type ]
!697 = metadata !{i32 786470, null, metadata !"", null, i32 0, i64 0, i64 0, i64 0, i32 0, metadata !690} ; [ DW_TAG_const_type ]
!698 = metadata !{i32 786478, i32 0, metadata !31, metadata !"operator=", metadata !"operator=", metadata !"_ZN6ap_intILi8EEaSERVKS0_", metadata !32, i32 166, metadata !699, i1 false, i1 false, i32 0, i32 0, null, i32 256, i1 false, null, null, i32 0, metadata !48, i32 166} ; [ DW_TAG_subprogram ]
!699 = metadata !{i32 786453, i32 0, metadata !"", i32 0, i32 0, i64 0, i64 0, i64 0, i32 0, null, metadata !700, i32 0, i32 0} ; [ DW_TAG_subroutine_type ]
!700 = metadata !{metadata !701, metadata !637, metadata !696}
!701 = metadata !{i32 786448, null, null, null, i32 0, i64 0, i64 0, i64 0, i32 0, metadata !31} ; [ DW_TAG_reference_type ]
!702 = metadata !{i32 786478, i32 0, metadata !31, metadata !"operator=", metadata !"operator=", metadata !"_ZN6ap_intILi8EEaSERKS0_", metadata !32, i32 171, metadata !703, i1 false, i1 false, i32 0, i32 0, null, i32 256, i1 false, null, null, i32 0, metadata !48, i32 171} ; [ DW_TAG_subprogram ]
!703 = metadata !{i32 786453, i32 0, metadata !"", i32 0, i32 0, i64 0, i64 0, i64 0, i32 0, null, metadata !704, i32 0, i32 0} ; [ DW_TAG_subroutine_type ]
!704 = metadata !{metadata !701, metadata !637, metadata !691}
!705 = metadata !{i32 786478, i32 0, metadata !31, metadata !"~ap_int", metadata !"~ap_int", metadata !"", metadata !32, i32 73, metadata !635, i1 false, i1 false, i32 0, i32 0, null, i32 320, i1 false, null, null, i32 0, metadata !48, i32 73} ; [ DW_TAG_subprogram ]
!706 = metadata !{metadata !605}
!707 = metadata !{i32 786447, null, metadata !"", null, i32 0, i64 64, i64 64, i64 0, i32 0, metadata !708} ; [ DW_TAG_pointer_type ]
!708 = metadata !{i32 786454, null, metadata !"pixel", metadata !26, i32 28, i64 0, i64 0, i64 0, i32 0, metadata !709} ; [ DW_TAG_typedef ]
!709 = metadata !{i32 786434, null, metadata !"ap_uint<8>", metadata !32, i32 180, i64 8, i64 8, i32 0, i32 0, null, metadata !710, i32 0, null, metadata !706} ; [ DW_TAG_class_type ]
!710 = metadata !{metadata !711, metadata !966, metadata !970, metadata !975, metadata !981, metadata !1529, metadata !1532, metadata !1535, metadata !1538, metadata !1541, metadata !1544, metadata !1547, metadata !1550, metadata !1553, metadata !1556, metadata !1559, metadata !1562, metadata !1565, metadata !1568, metadata !1571, metadata !1574, metadata !1577, metadata !1581, metadata !1584, metadata !1588, metadata !1591, metadata !1592}
!711 = metadata !{i32 786460, metadata !709, null, metadata !32, i32 0, i64 0, i64 0, i64 0, i32 0, metadata !712} ; [ DW_TAG_inheritance ]
!712 = metadata !{i32 786434, null, metadata !"ap_int_base<8, false, true>", metadata !36, i32 1397, i64 8, i64 8, i32 0, i32 0, null, metadata !713, i32 0, null, metadata !965} ; [ DW_TAG_class_type ]
!713 = metadata !{metadata !714, metadata !730, metadata !734, metadata !741, metadata !747, metadata !750, metadata !753, metadata !756, metadata !759, metadata !762, metadata !765, metadata !768, metadata !771, metadata !774, metadata !777, metadata !780, metadata !783, metadata !786, metadata !789, metadata !792, metadata !796, metadata !799, metadata !802, metadata !803, metadata !807, metadata !810, metadata !813, metadata !816, metadata !819, metadata !822, metadata !825, metadata !828, metadata !831, metadata !834, metadata !837, metadata !840, metadata !848, metadata !851, metadata !854, metadata !857, metadata !860, metadata !863, metadata !866, metadata !869, metadata !872, metadata !875, metadata !878, metadata !881, metadata !884, metadata !885, metadata !889, metadata !892, metadata !893, metadata !894, metadata !895, metadata !896, metadata !897, metadata !900, metadata !901, metadata !904, metadata !905, metadata !906, metadata !907, metadata !908, metadata !909, metadata !912, metadata !913, metadata !914, metadata !917, metadata !918, metadata !921, metadata !922, metadata !925, metadata !929, metadata !930, metadata !933, metadata !934, metadata !938, metadata !939, metadata !940, metadata !941, metadata !944, metadata !945, metadata !946, metadata !947, metadata !948, metadata !949, metadata !950, metadata !951, metadata !952, metadata !953, metadata !954, metadata !955, metadata !958, metadata !961, metadata !964}
!714 = metadata !{i32 786460, metadata !712, null, metadata !36, i32 0, i64 0, i64 0, i64 0, i32 0, metadata !715} ; [ DW_TAG_inheritance ]
!715 = metadata !{i32 786434, null, metadata !"ssdm_int<8 + 1024 * 0, false>", metadata !40, i32 10, i64 8, i64 8, i32 0, i32 0, null, metadata !716, i32 0, null, metadata !728} ; [ DW_TAG_class_type ]
!716 = metadata !{metadata !717, metadata !719, metadata !723}
!717 = metadata !{i32 786445, metadata !715, metadata !"V", metadata !40, i32 10, i64 8, i64 8, i64 0, i32 0, metadata !718} ; [ DW_TAG_member ]
!718 = metadata !{i32 786468, null, metadata !"uint8", null, i32 0, i64 8, i64 8, i64 0, i32 0, i32 7} ; [ DW_TAG_base_type ]
!719 = metadata !{i32 786478, i32 0, metadata !715, metadata !"ssdm_int", metadata !"ssdm_int", metadata !"", metadata !40, i32 10, metadata !720, i1 false, i1 false, i32 0, i32 0, null, i32 256, i1 false, null, null, i32 0, metadata !48, i32 10} ; [ DW_TAG_subprogram ]
!720 = metadata !{i32 786453, i32 0, metadata !"", i32 0, i32 0, i64 0, i64 0, i64 0, i32 0, null, metadata !721, i32 0, i32 0} ; [ DW_TAG_subroutine_type ]
!721 = metadata !{null, metadata !722}
!722 = metadata !{i32 786447, i32 0, metadata !"", i32 0, i32 0, i64 64, i64 64, i64 0, i32 64, metadata !715} ; [ DW_TAG_pointer_type ]
!723 = metadata !{i32 786478, i32 0, metadata !715, metadata !"ssdm_int", metadata !"ssdm_int", metadata !"", metadata !40, i32 10, metadata !724, i1 false, i1 false, i32 0, i32 0, null, i32 320, i1 false, null, null, i32 0, metadata !48, i32 10} ; [ DW_TAG_subprogram ]
!724 = metadata !{i32 786453, i32 0, metadata !"", i32 0, i32 0, i64 0, i64 0, i64 0, i32 0, null, metadata !725, i32 0, i32 0} ; [ DW_TAG_subroutine_type ]
!725 = metadata !{null, metadata !722, metadata !726}
!726 = metadata !{i32 786448, null, null, null, i32 0, i64 0, i64 0, i64 0, i32 0, metadata !727} ; [ DW_TAG_reference_type ]
!727 = metadata !{i32 786470, null, metadata !"", null, i32 0, i64 0, i64 0, i64 0, i32 0, metadata !715} ; [ DW_TAG_const_type ]
!728 = metadata !{metadata !51, metadata !729}
!729 = metadata !{i32 786480, null, metadata !"_AP_S", metadata !54, i64 0, null, i32 0, i32 0} ; [ DW_TAG_template_value_parameter ]
!730 = metadata !{i32 786478, i32 0, metadata !712, metadata !"ap_int_base", metadata !"ap_int_base", metadata !"", metadata !36, i32 1438, metadata !731, i1 false, i1 false, i32 0, i32 0, null, i32 256, i1 false, null, null, i32 0, metadata !48, i32 1438} ; [ DW_TAG_subprogram ]
!731 = metadata !{i32 786453, i32 0, metadata !"", i32 0, i32 0, i64 0, i64 0, i64 0, i32 0, null, metadata !732, i32 0, i32 0} ; [ DW_TAG_subroutine_type ]
!732 = metadata !{null, metadata !733}
!733 = metadata !{i32 786447, i32 0, metadata !"", i32 0, i32 0, i64 64, i64 64, i64 0, i32 64, metadata !712} ; [ DW_TAG_pointer_type ]
!734 = metadata !{i32 786478, i32 0, metadata !712, metadata !"ap_int_base<8, false>", metadata !"ap_int_base<8, false>", metadata !"", metadata !36, i32 1450, metadata !735, i1 false, i1 false, i32 0, i32 0, null, i32 256, i1 false, null, metadata !739, i32 0, metadata !48, i32 1450} ; [ DW_TAG_subprogram ]
!735 = metadata !{i32 786453, i32 0, metadata !"", i32 0, i32 0, i64 0, i64 0, i64 0, i32 0, null, metadata !736, i32 0, i32 0} ; [ DW_TAG_subroutine_type ]
!736 = metadata !{null, metadata !733, metadata !737}
!737 = metadata !{i32 786448, null, null, null, i32 0, i64 0, i64 0, i64 0, i32 0, metadata !738} ; [ DW_TAG_reference_type ]
!738 = metadata !{i32 786470, null, metadata !"", null, i32 0, i64 0, i64 0, i64 0, i32 0, metadata !712} ; [ DW_TAG_const_type ]
!739 = metadata !{metadata !65, metadata !740}
!740 = metadata !{i32 786480, null, metadata !"_AP_S2", metadata !54, i64 0, null, i32 0, i32 0} ; [ DW_TAG_template_value_parameter ]
!741 = metadata !{i32 786478, i32 0, metadata !712, metadata !"ap_int_base<8, false>", metadata !"ap_int_base<8, false>", metadata !"", metadata !36, i32 1453, metadata !742, i1 false, i1 false, i32 0, i32 0, null, i32 256, i1 false, null, metadata !739, i32 0, metadata !48, i32 1453} ; [ DW_TAG_subprogram ]
!742 = metadata !{i32 786453, i32 0, metadata !"", i32 0, i32 0, i64 0, i64 0, i64 0, i32 0, null, metadata !743, i32 0, i32 0} ; [ DW_TAG_subroutine_type ]
!743 = metadata !{null, metadata !733, metadata !744}
!744 = metadata !{i32 786448, null, null, null, i32 0, i64 0, i64 0, i64 0, i32 0, metadata !745} ; [ DW_TAG_reference_type ]
!745 = metadata !{i32 786470, null, metadata !"", null, i32 0, i64 0, i64 0, i64 0, i32 0, metadata !746} ; [ DW_TAG_const_type ]
!746 = metadata !{i32 786485, null, metadata !"", null, i32 0, i64 0, i64 0, i64 0, i32 0, metadata !712} ; [ DW_TAG_volatile_type ]
!747 = metadata !{i32 786478, i32 0, metadata !712, metadata !"ap_int_base", metadata !"ap_int_base", metadata !"", metadata !36, i32 1460, metadata !748, i1 false, i1 false, i32 0, i32 0, null, i32 384, i1 false, null, null, i32 0, metadata !48, i32 1460} ; [ DW_TAG_subprogram ]
!748 = metadata !{i32 786453, i32 0, metadata !"", i32 0, i32 0, i64 0, i64 0, i64 0, i32 0, null, metadata !749, i32 0, i32 0} ; [ DW_TAG_subroutine_type ]
!749 = metadata !{null, metadata !733, metadata !54}
!750 = metadata !{i32 786478, i32 0, metadata !712, metadata !"ap_int_base", metadata !"ap_int_base", metadata !"", metadata !36, i32 1461, metadata !751, i1 false, i1 false, i32 0, i32 0, null, i32 384, i1 false, null, null, i32 0, metadata !48, i32 1461} ; [ DW_TAG_subprogram ]
!751 = metadata !{i32 786453, i32 0, metadata !"", i32 0, i32 0, i64 0, i64 0, i64 0, i32 0, null, metadata !752, i32 0, i32 0} ; [ DW_TAG_subroutine_type ]
!752 = metadata !{null, metadata !733, metadata !79}
!753 = metadata !{i32 786478, i32 0, metadata !712, metadata !"ap_int_base", metadata !"ap_int_base", metadata !"", metadata !36, i32 1462, metadata !754, i1 false, i1 false, i32 0, i32 0, null, i32 384, i1 false, null, null, i32 0, metadata !48, i32 1462} ; [ DW_TAG_subprogram ]
!754 = metadata !{i32 786453, i32 0, metadata !"", i32 0, i32 0, i64 0, i64 0, i64 0, i32 0, null, metadata !755, i32 0, i32 0} ; [ DW_TAG_subroutine_type ]
!755 = metadata !{null, metadata !733, metadata !83}
!756 = metadata !{i32 786478, i32 0, metadata !712, metadata !"ap_int_base", metadata !"ap_int_base", metadata !"", metadata !36, i32 1463, metadata !757, i1 false, i1 false, i32 0, i32 0, null, i32 384, i1 false, null, null, i32 0, metadata !48, i32 1463} ; [ DW_TAG_subprogram ]
!757 = metadata !{i32 786453, i32 0, metadata !"", i32 0, i32 0, i64 0, i64 0, i64 0, i32 0, null, metadata !758, i32 0, i32 0} ; [ DW_TAG_subroutine_type ]
!758 = metadata !{null, metadata !733, metadata !87}
!759 = metadata !{i32 786478, i32 0, metadata !712, metadata !"ap_int_base", metadata !"ap_int_base", metadata !"", metadata !36, i32 1464, metadata !760, i1 false, i1 false, i32 0, i32 0, null, i32 384, i1 false, null, null, i32 0, metadata !48, i32 1464} ; [ DW_TAG_subprogram ]
!760 = metadata !{i32 786453, i32 0, metadata !"", i32 0, i32 0, i64 0, i64 0, i64 0, i32 0, null, metadata !761, i32 0, i32 0} ; [ DW_TAG_subroutine_type ]
!761 = metadata !{null, metadata !733, metadata !91}
!762 = metadata !{i32 786478, i32 0, metadata !712, metadata !"ap_int_base", metadata !"ap_int_base", metadata !"", metadata !36, i32 1465, metadata !763, i1 false, i1 false, i32 0, i32 0, null, i32 384, i1 false, null, null, i32 0, metadata !48, i32 1465} ; [ DW_TAG_subprogram ]
!763 = metadata !{i32 786453, i32 0, metadata !"", i32 0, i32 0, i64 0, i64 0, i64 0, i32 0, null, metadata !764, i32 0, i32 0} ; [ DW_TAG_subroutine_type ]
!764 = metadata !{null, metadata !733, metadata !52}
!765 = metadata !{i32 786478, i32 0, metadata !712, metadata !"ap_int_base", metadata !"ap_int_base", metadata !"", metadata !36, i32 1466, metadata !766, i1 false, i1 false, i32 0, i32 0, null, i32 384, i1 false, null, null, i32 0, metadata !48, i32 1466} ; [ DW_TAG_subprogram ]
!766 = metadata !{i32 786453, i32 0, metadata !"", i32 0, i32 0, i64 0, i64 0, i64 0, i32 0, null, metadata !767, i32 0, i32 0} ; [ DW_TAG_subroutine_type ]
!767 = metadata !{null, metadata !733, metadata !98}
!768 = metadata !{i32 786478, i32 0, metadata !712, metadata !"ap_int_base", metadata !"ap_int_base", metadata !"", metadata !36, i32 1467, metadata !769, i1 false, i1 false, i32 0, i32 0, null, i32 384, i1 false, null, null, i32 0, metadata !48, i32 1467} ; [ DW_TAG_subprogram ]
!769 = metadata !{i32 786453, i32 0, metadata !"", i32 0, i32 0, i64 0, i64 0, i64 0, i32 0, null, metadata !770, i32 0, i32 0} ; [ DW_TAG_subroutine_type ]
!770 = metadata !{null, metadata !733, metadata !102}
!771 = metadata !{i32 786478, i32 0, metadata !712, metadata !"ap_int_base", metadata !"ap_int_base", metadata !"", metadata !36, i32 1468, metadata !772, i1 false, i1 false, i32 0, i32 0, null, i32 384, i1 false, null, null, i32 0, metadata !48, i32 1468} ; [ DW_TAG_subprogram ]
!772 = metadata !{i32 786453, i32 0, metadata !"", i32 0, i32 0, i64 0, i64 0, i64 0, i32 0, null, metadata !773, i32 0, i32 0} ; [ DW_TAG_subroutine_type ]
!773 = metadata !{null, metadata !733, metadata !106}
!774 = metadata !{i32 786478, i32 0, metadata !712, metadata !"ap_int_base", metadata !"ap_int_base", metadata !"", metadata !36, i32 1469, metadata !775, i1 false, i1 false, i32 0, i32 0, null, i32 384, i1 false, null, null, i32 0, metadata !48, i32 1469} ; [ DW_TAG_subprogram ]
!775 = metadata !{i32 786453, i32 0, metadata !"", i32 0, i32 0, i64 0, i64 0, i64 0, i32 0, null, metadata !776, i32 0, i32 0} ; [ DW_TAG_subroutine_type ]
!776 = metadata !{null, metadata !733, metadata !110}
!777 = metadata !{i32 786478, i32 0, metadata !712, metadata !"ap_int_base", metadata !"ap_int_base", metadata !"", metadata !36, i32 1470, metadata !778, i1 false, i1 false, i32 0, i32 0, null, i32 384, i1 false, null, null, i32 0, metadata !48, i32 1470} ; [ DW_TAG_subprogram ]
!778 = metadata !{i32 786453, i32 0, metadata !"", i32 0, i32 0, i64 0, i64 0, i64 0, i32 0, null, metadata !779, i32 0, i32 0} ; [ DW_TAG_subroutine_type ]
!779 = metadata !{null, metadata !733, metadata !115}
!780 = metadata !{i32 786478, i32 0, metadata !712, metadata !"ap_int_base", metadata !"ap_int_base", metadata !"", metadata !36, i32 1471, metadata !781, i1 false, i1 false, i32 0, i32 0, null, i32 384, i1 false, null, null, i32 0, metadata !48, i32 1471} ; [ DW_TAG_subprogram ]
!781 = metadata !{i32 786453, i32 0, metadata !"", i32 0, i32 0, i64 0, i64 0, i64 0, i32 0, null, metadata !782, i32 0, i32 0} ; [ DW_TAG_subroutine_type ]
!782 = metadata !{null, metadata !733, metadata !120}
!783 = metadata !{i32 786478, i32 0, metadata !712, metadata !"ap_int_base", metadata !"ap_int_base", metadata !"", metadata !36, i32 1472, metadata !784, i1 false, i1 false, i32 0, i32 0, null, i32 384, i1 false, null, null, i32 0, metadata !48, i32 1472} ; [ DW_TAG_subprogram ]
!784 = metadata !{i32 786453, i32 0, metadata !"", i32 0, i32 0, i64 0, i64 0, i64 0, i32 0, null, metadata !785, i32 0, i32 0} ; [ DW_TAG_subroutine_type ]
!785 = metadata !{null, metadata !733, metadata !124}
!786 = metadata !{i32 786478, i32 0, metadata !712, metadata !"ap_int_base", metadata !"ap_int_base", metadata !"", metadata !36, i32 1499, metadata !787, i1 false, i1 false, i32 0, i32 0, null, i32 256, i1 false, null, null, i32 0, metadata !48, i32 1499} ; [ DW_TAG_subprogram ]
!787 = metadata !{i32 786453, i32 0, metadata !"", i32 0, i32 0, i64 0, i64 0, i64 0, i32 0, null, metadata !788, i32 0, i32 0} ; [ DW_TAG_subroutine_type ]
!788 = metadata !{null, metadata !733, metadata !128}
!789 = metadata !{i32 786478, i32 0, metadata !712, metadata !"ap_int_base", metadata !"ap_int_base", metadata !"", metadata !36, i32 1506, metadata !790, i1 false, i1 false, i32 0, i32 0, null, i32 256, i1 false, null, null, i32 0, metadata !48, i32 1506} ; [ DW_TAG_subprogram ]
!790 = metadata !{i32 786453, i32 0, metadata !"", i32 0, i32 0, i64 0, i64 0, i64 0, i32 0, null, metadata !791, i32 0, i32 0} ; [ DW_TAG_subroutine_type ]
!791 = metadata !{null, metadata !733, metadata !128, metadata !79}
!792 = metadata !{i32 786478, i32 0, metadata !712, metadata !"read", metadata !"read", metadata !"_ZNV11ap_int_baseILi8ELb0ELb1EE4readEv", metadata !36, i32 1527, metadata !793, i1 false, i1 false, i32 0, i32 0, null, i32 256, i1 false, null, null, i32 0, metadata !48, i32 1527} ; [ DW_TAG_subprogram ]
!793 = metadata !{i32 786453, i32 0, metadata !"", i32 0, i32 0, i64 0, i64 0, i64 0, i32 0, null, metadata !794, i32 0, i32 0} ; [ DW_TAG_subroutine_type ]
!794 = metadata !{metadata !712, metadata !795}
!795 = metadata !{i32 786447, i32 0, metadata !"", i32 0, i32 0, i64 64, i64 64, i64 0, i32 64, metadata !746} ; [ DW_TAG_pointer_type ]
!796 = metadata !{i32 786478, i32 0, metadata !712, metadata !"write", metadata !"write", metadata !"_ZNV11ap_int_baseILi8ELb0ELb1EE5writeERKS0_", metadata !36, i32 1533, metadata !797, i1 false, i1 false, i32 0, i32 0, null, i32 256, i1 false, null, null, i32 0, metadata !48, i32 1533} ; [ DW_TAG_subprogram ]
!797 = metadata !{i32 786453, i32 0, metadata !"", i32 0, i32 0, i64 0, i64 0, i64 0, i32 0, null, metadata !798, i32 0, i32 0} ; [ DW_TAG_subroutine_type ]
!798 = metadata !{null, metadata !795, metadata !737}
!799 = metadata !{i32 786478, i32 0, metadata !712, metadata !"operator=", metadata !"operator=", metadata !"_ZNV11ap_int_baseILi8ELb0ELb1EEaSERVKS0_", metadata !36, i32 1545, metadata !800, i1 false, i1 false, i32 0, i32 0, null, i32 256, i1 false, null, null, i32 0, metadata !48, i32 1545} ; [ DW_TAG_subprogram ]
!800 = metadata !{i32 786453, i32 0, metadata !"", i32 0, i32 0, i64 0, i64 0, i64 0, i32 0, null, metadata !801, i32 0, i32 0} ; [ DW_TAG_subroutine_type ]
!801 = metadata !{null, metadata !795, metadata !744}
!802 = metadata !{i32 786478, i32 0, metadata !712, metadata !"operator=", metadata !"operator=", metadata !"_ZNV11ap_int_baseILi8ELb0ELb1EEaSERKS0_", metadata !36, i32 1554, metadata !797, i1 false, i1 false, i32 0, i32 0, null, i32 256, i1 false, null, null, i32 0, metadata !48, i32 1554} ; [ DW_TAG_subprogram ]
!803 = metadata !{i32 786478, i32 0, metadata !712, metadata !"operator=", metadata !"operator=", metadata !"_ZN11ap_int_baseILi8ELb0ELb1EEaSERVKS0_", metadata !36, i32 1577, metadata !804, i1 false, i1 false, i32 0, i32 0, null, i32 256, i1 false, null, null, i32 0, metadata !48, i32 1577} ; [ DW_TAG_subprogram ]
!804 = metadata !{i32 786453, i32 0, metadata !"", i32 0, i32 0, i64 0, i64 0, i64 0, i32 0, null, metadata !805, i32 0, i32 0} ; [ DW_TAG_subroutine_type ]
!805 = metadata !{metadata !806, metadata !733, metadata !744}
!806 = metadata !{i32 786448, null, null, null, i32 0, i64 0, i64 0, i64 0, i32 0, metadata !712} ; [ DW_TAG_reference_type ]
!807 = metadata !{i32 786478, i32 0, metadata !712, metadata !"operator=", metadata !"operator=", metadata !"_ZN11ap_int_baseILi8ELb0ELb1EEaSERKS0_", metadata !36, i32 1582, metadata !808, i1 false, i1 false, i32 0, i32 0, null, i32 256, i1 false, null, null, i32 0, metadata !48, i32 1582} ; [ DW_TAG_subprogram ]
!808 = metadata !{i32 786453, i32 0, metadata !"", i32 0, i32 0, i64 0, i64 0, i64 0, i32 0, null, metadata !809, i32 0, i32 0} ; [ DW_TAG_subroutine_type ]
!809 = metadata !{metadata !806, metadata !733, metadata !737}
!810 = metadata !{i32 786478, i32 0, metadata !712, metadata !"operator=", metadata !"operator=", metadata !"_ZN11ap_int_baseILi8ELb0ELb1EEaSEPKc", metadata !36, i32 1586, metadata !811, i1 false, i1 false, i32 0, i32 0, null, i32 256, i1 false, null, null, i32 0, metadata !48, i32 1586} ; [ DW_TAG_subprogram ]
!811 = metadata !{i32 786453, i32 0, metadata !"", i32 0, i32 0, i64 0, i64 0, i64 0, i32 0, null, metadata !812, i32 0, i32 0} ; [ DW_TAG_subroutine_type ]
!812 = metadata !{metadata !806, metadata !733, metadata !128}
!813 = metadata !{i32 786478, i32 0, metadata !712, metadata !"set", metadata !"set", metadata !"_ZN11ap_int_baseILi8ELb0ELb1EE3setEPKca", metadata !36, i32 1594, metadata !814, i1 false, i1 false, i32 0, i32 0, null, i32 256, i1 false, null, null, i32 0, metadata !48, i32 1594} ; [ DW_TAG_subprogram ]
!814 = metadata !{i32 786453, i32 0, metadata !"", i32 0, i32 0, i64 0, i64 0, i64 0, i32 0, null, metadata !815, i32 0, i32 0} ; [ DW_TAG_subroutine_type ]
!815 = metadata !{metadata !806, metadata !733, metadata !128, metadata !79}
!816 = metadata !{i32 786478, i32 0, metadata !712, metadata !"operator=", metadata !"operator=", metadata !"_ZN11ap_int_baseILi8ELb0ELb1EEaSEa", metadata !36, i32 1608, metadata !817, i1 false, i1 false, i32 0, i32 0, null, i32 256, i1 false, null, null, i32 0, metadata !48, i32 1608} ; [ DW_TAG_subprogram ]
!817 = metadata !{i32 786453, i32 0, metadata !"", i32 0, i32 0, i64 0, i64 0, i64 0, i32 0, null, metadata !818, i32 0, i32 0} ; [ DW_TAG_subroutine_type ]
!818 = metadata !{metadata !806, metadata !733, metadata !79}
!819 = metadata !{i32 786478, i32 0, metadata !712, metadata !"operator=", metadata !"operator=", metadata !"_ZN11ap_int_baseILi8ELb0ELb1EEaSEh", metadata !36, i32 1609, metadata !820, i1 false, i1 false, i32 0, i32 0, null, i32 256, i1 false, null, null, i32 0, metadata !48, i32 1609} ; [ DW_TAG_subprogram ]
!820 = metadata !{i32 786453, i32 0, metadata !"", i32 0, i32 0, i64 0, i64 0, i64 0, i32 0, null, metadata !821, i32 0, i32 0} ; [ DW_TAG_subroutine_type ]
!821 = metadata !{metadata !806, metadata !733, metadata !83}
!822 = metadata !{i32 786478, i32 0, metadata !712, metadata !"operator=", metadata !"operator=", metadata !"_ZN11ap_int_baseILi8ELb0ELb1EEaSEs", metadata !36, i32 1610, metadata !823, i1 false, i1 false, i32 0, i32 0, null, i32 256, i1 false, null, null, i32 0, metadata !48, i32 1610} ; [ DW_TAG_subprogram ]
!823 = metadata !{i32 786453, i32 0, metadata !"", i32 0, i32 0, i64 0, i64 0, i64 0, i32 0, null, metadata !824, i32 0, i32 0} ; [ DW_TAG_subroutine_type ]
!824 = metadata !{metadata !806, metadata !733, metadata !87}
!825 = metadata !{i32 786478, i32 0, metadata !712, metadata !"operator=", metadata !"operator=", metadata !"_ZN11ap_int_baseILi8ELb0ELb1EEaSEt", metadata !36, i32 1611, metadata !826, i1 false, i1 false, i32 0, i32 0, null, i32 256, i1 false, null, null, i32 0, metadata !48, i32 1611} ; [ DW_TAG_subprogram ]
!826 = metadata !{i32 786453, i32 0, metadata !"", i32 0, i32 0, i64 0, i64 0, i64 0, i32 0, null, metadata !827, i32 0, i32 0} ; [ DW_TAG_subroutine_type ]
!827 = metadata !{metadata !806, metadata !733, metadata !91}
!828 = metadata !{i32 786478, i32 0, metadata !712, metadata !"operator=", metadata !"operator=", metadata !"_ZN11ap_int_baseILi8ELb0ELb1EEaSEi", metadata !36, i32 1612, metadata !829, i1 false, i1 false, i32 0, i32 0, null, i32 256, i1 false, null, null, i32 0, metadata !48, i32 1612} ; [ DW_TAG_subprogram ]
!829 = metadata !{i32 786453, i32 0, metadata !"", i32 0, i32 0, i64 0, i64 0, i64 0, i32 0, null, metadata !830, i32 0, i32 0} ; [ DW_TAG_subroutine_type ]
!830 = metadata !{metadata !806, metadata !733, metadata !52}
!831 = metadata !{i32 786478, i32 0, metadata !712, metadata !"operator=", metadata !"operator=", metadata !"_ZN11ap_int_baseILi8ELb0ELb1EEaSEj", metadata !36, i32 1613, metadata !832, i1 false, i1 false, i32 0, i32 0, null, i32 256, i1 false, null, null, i32 0, metadata !48, i32 1613} ; [ DW_TAG_subprogram ]
!832 = metadata !{i32 786453, i32 0, metadata !"", i32 0, i32 0, i64 0, i64 0, i64 0, i32 0, null, metadata !833, i32 0, i32 0} ; [ DW_TAG_subroutine_type ]
!833 = metadata !{metadata !806, metadata !733, metadata !98}
!834 = metadata !{i32 786478, i32 0, metadata !712, metadata !"operator=", metadata !"operator=", metadata !"_ZN11ap_int_baseILi8ELb0ELb1EEaSEx", metadata !36, i32 1614, metadata !835, i1 false, i1 false, i32 0, i32 0, null, i32 256, i1 false, null, null, i32 0, metadata !48, i32 1614} ; [ DW_TAG_subprogram ]
!835 = metadata !{i32 786453, i32 0, metadata !"", i32 0, i32 0, i64 0, i64 0, i64 0, i32 0, null, metadata !836, i32 0, i32 0} ; [ DW_TAG_subroutine_type ]
!836 = metadata !{metadata !806, metadata !733, metadata !110}
!837 = metadata !{i32 786478, i32 0, metadata !712, metadata !"operator=", metadata !"operator=", metadata !"_ZN11ap_int_baseILi8ELb0ELb1EEaSEy", metadata !36, i32 1615, metadata !838, i1 false, i1 false, i32 0, i32 0, null, i32 256, i1 false, null, null, i32 0, metadata !48, i32 1615} ; [ DW_TAG_subprogram ]
!838 = metadata !{i32 786453, i32 0, metadata !"", i32 0, i32 0, i64 0, i64 0, i64 0, i32 0, null, metadata !839, i32 0, i32 0} ; [ DW_TAG_subroutine_type ]
!839 = metadata !{metadata !806, metadata !733, metadata !115}
!840 = metadata !{i32 786478, i32 0, metadata !712, metadata !"operator unsigned char", metadata !"operator unsigned char", metadata !"_ZNK11ap_int_baseILi8ELb0ELb1EEcvhEv", metadata !36, i32 1653, metadata !841, i1 false, i1 false, i32 0, i32 0, null, i32 256, i1 false, null, null, i32 0, metadata !48, i32 1653} ; [ DW_TAG_subprogram ]
!841 = metadata !{i32 786453, i32 0, metadata !"", i32 0, i32 0, i64 0, i64 0, i64 0, i32 0, null, metadata !842, i32 0, i32 0} ; [ DW_TAG_subroutine_type ]
!842 = metadata !{metadata !843, metadata !847}
!843 = metadata !{i32 786454, metadata !712, metadata !"RetType", metadata !36, i32 1402, i64 0, i64 0, i64 0, i32 0, metadata !844} ; [ DW_TAG_typedef ]
!844 = metadata !{i32 786454, metadata !845, metadata !"Type", metadata !36, i32 1370, i64 0, i64 0, i64 0, i32 0, metadata !83} ; [ DW_TAG_typedef ]
!845 = metadata !{i32 786434, null, metadata !"retval<1, false>", metadata !36, i32 1369, i64 8, i64 8, i32 0, i32 0, null, metadata !188, i32 0, null, metadata !846} ; [ DW_TAG_class_type ]
!846 = metadata !{metadata !190, metadata !729}
!847 = metadata !{i32 786447, i32 0, metadata !"", i32 0, i32 0, i64 64, i64 64, i64 0, i32 64, metadata !738} ; [ DW_TAG_pointer_type ]
!848 = metadata !{i32 786478, i32 0, metadata !712, metadata !"to_bool", metadata !"to_bool", metadata !"_ZNK11ap_int_baseILi8ELb0ELb1EE7to_boolEv", metadata !36, i32 1659, metadata !849, i1 false, i1 false, i32 0, i32 0, null, i32 256, i1 false, null, null, i32 0, metadata !48, i32 1659} ; [ DW_TAG_subprogram ]
!849 = metadata !{i32 786453, i32 0, metadata !"", i32 0, i32 0, i64 0, i64 0, i64 0, i32 0, null, metadata !850, i32 0, i32 0} ; [ DW_TAG_subroutine_type ]
!850 = metadata !{metadata !54, metadata !847}
!851 = metadata !{i32 786478, i32 0, metadata !712, metadata !"to_uchar", metadata !"to_uchar", metadata !"_ZNK11ap_int_baseILi8ELb0ELb1EE8to_ucharEv", metadata !36, i32 1660, metadata !852, i1 false, i1 false, i32 0, i32 0, null, i32 256, i1 false, null, null, i32 0, metadata !48, i32 1660} ; [ DW_TAG_subprogram ]
!852 = metadata !{i32 786453, i32 0, metadata !"", i32 0, i32 0, i64 0, i64 0, i64 0, i32 0, null, metadata !853, i32 0, i32 0} ; [ DW_TAG_subroutine_type ]
!853 = metadata !{metadata !83, metadata !847}
!854 = metadata !{i32 786478, i32 0, metadata !712, metadata !"to_char", metadata !"to_char", metadata !"_ZNK11ap_int_baseILi8ELb0ELb1EE7to_charEv", metadata !36, i32 1661, metadata !855, i1 false, i1 false, i32 0, i32 0, null, i32 256, i1 false, null, null, i32 0, metadata !48, i32 1661} ; [ DW_TAG_subprogram ]
!855 = metadata !{i32 786453, i32 0, metadata !"", i32 0, i32 0, i64 0, i64 0, i64 0, i32 0, null, metadata !856, i32 0, i32 0} ; [ DW_TAG_subroutine_type ]
!856 = metadata !{metadata !79, metadata !847}
!857 = metadata !{i32 786478, i32 0, metadata !712, metadata !"to_ushort", metadata !"to_ushort", metadata !"_ZNK11ap_int_baseILi8ELb0ELb1EE9to_ushortEv", metadata !36, i32 1662, metadata !858, i1 false, i1 false, i32 0, i32 0, null, i32 256, i1 false, null, null, i32 0, metadata !48, i32 1662} ; [ DW_TAG_subprogram ]
!858 = metadata !{i32 786453, i32 0, metadata !"", i32 0, i32 0, i64 0, i64 0, i64 0, i32 0, null, metadata !859, i32 0, i32 0} ; [ DW_TAG_subroutine_type ]
!859 = metadata !{metadata !91, metadata !847}
!860 = metadata !{i32 786478, i32 0, metadata !712, metadata !"to_short", metadata !"to_short", metadata !"_ZNK11ap_int_baseILi8ELb0ELb1EE8to_shortEv", metadata !36, i32 1663, metadata !861, i1 false, i1 false, i32 0, i32 0, null, i32 256, i1 false, null, null, i32 0, metadata !48, i32 1663} ; [ DW_TAG_subprogram ]
!861 = metadata !{i32 786453, i32 0, metadata !"", i32 0, i32 0, i64 0, i64 0, i64 0, i32 0, null, metadata !862, i32 0, i32 0} ; [ DW_TAG_subroutine_type ]
!862 = metadata !{metadata !87, metadata !847}
!863 = metadata !{i32 786478, i32 0, metadata !712, metadata !"to_int", metadata !"to_int", metadata !"_ZNK11ap_int_baseILi8ELb0ELb1EE6to_intEv", metadata !36, i32 1664, metadata !864, i1 false, i1 false, i32 0, i32 0, null, i32 256, i1 false, null, null, i32 0, metadata !48, i32 1664} ; [ DW_TAG_subprogram ]
!864 = metadata !{i32 786453, i32 0, metadata !"", i32 0, i32 0, i64 0, i64 0, i64 0, i32 0, null, metadata !865, i32 0, i32 0} ; [ DW_TAG_subroutine_type ]
!865 = metadata !{metadata !52, metadata !847}
!866 = metadata !{i32 786478, i32 0, metadata !712, metadata !"to_uint", metadata !"to_uint", metadata !"_ZNK11ap_int_baseILi8ELb0ELb1EE7to_uintEv", metadata !36, i32 1665, metadata !867, i1 false, i1 false, i32 0, i32 0, null, i32 256, i1 false, null, null, i32 0, metadata !48, i32 1665} ; [ DW_TAG_subprogram ]
!867 = metadata !{i32 786453, i32 0, metadata !"", i32 0, i32 0, i64 0, i64 0, i64 0, i32 0, null, metadata !868, i32 0, i32 0} ; [ DW_TAG_subroutine_type ]
!868 = metadata !{metadata !98, metadata !847}
!869 = metadata !{i32 786478, i32 0, metadata !712, metadata !"to_long", metadata !"to_long", metadata !"_ZNK11ap_int_baseILi8ELb0ELb1EE7to_longEv", metadata !36, i32 1666, metadata !870, i1 false, i1 false, i32 0, i32 0, null, i32 256, i1 false, null, null, i32 0, metadata !48, i32 1666} ; [ DW_TAG_subprogram ]
!870 = metadata !{i32 786453, i32 0, metadata !"", i32 0, i32 0, i64 0, i64 0, i64 0, i32 0, null, metadata !871, i32 0, i32 0} ; [ DW_TAG_subroutine_type ]
!871 = metadata !{metadata !102, metadata !847}
!872 = metadata !{i32 786478, i32 0, metadata !712, metadata !"to_ulong", metadata !"to_ulong", metadata !"_ZNK11ap_int_baseILi8ELb0ELb1EE8to_ulongEv", metadata !36, i32 1667, metadata !873, i1 false, i1 false, i32 0, i32 0, null, i32 256, i1 false, null, null, i32 0, metadata !48, i32 1667} ; [ DW_TAG_subprogram ]
!873 = metadata !{i32 786453, i32 0, metadata !"", i32 0, i32 0, i64 0, i64 0, i64 0, i32 0, null, metadata !874, i32 0, i32 0} ; [ DW_TAG_subroutine_type ]
!874 = metadata !{metadata !106, metadata !847}
!875 = metadata !{i32 786478, i32 0, metadata !712, metadata !"to_int64", metadata !"to_int64", metadata !"_ZNK11ap_int_baseILi8ELb0ELb1EE8to_int64Ev", metadata !36, i32 1668, metadata !876, i1 false, i1 false, i32 0, i32 0, null, i32 256, i1 false, null, null, i32 0, metadata !48, i32 1668} ; [ DW_TAG_subprogram ]
!876 = metadata !{i32 786453, i32 0, metadata !"", i32 0, i32 0, i64 0, i64 0, i64 0, i32 0, null, metadata !877, i32 0, i32 0} ; [ DW_TAG_subroutine_type ]
!877 = metadata !{metadata !110, metadata !847}
!878 = metadata !{i32 786478, i32 0, metadata !712, metadata !"to_uint64", metadata !"to_uint64", metadata !"_ZNK11ap_int_baseILi8ELb0ELb1EE9to_uint64Ev", metadata !36, i32 1669, metadata !879, i1 false, i1 false, i32 0, i32 0, null, i32 256, i1 false, null, null, i32 0, metadata !48, i32 1669} ; [ DW_TAG_subprogram ]
!879 = metadata !{i32 786453, i32 0, metadata !"", i32 0, i32 0, i64 0, i64 0, i64 0, i32 0, null, metadata !880, i32 0, i32 0} ; [ DW_TAG_subroutine_type ]
!880 = metadata !{metadata !115, metadata !847}
!881 = metadata !{i32 786478, i32 0, metadata !712, metadata !"to_double", metadata !"to_double", metadata !"_ZNK11ap_int_baseILi8ELb0ELb1EE9to_doubleEv", metadata !36, i32 1670, metadata !882, i1 false, i1 false, i32 0, i32 0, null, i32 256, i1 false, null, null, i32 0, metadata !48, i32 1670} ; [ DW_TAG_subprogram ]
!882 = metadata !{i32 786453, i32 0, metadata !"", i32 0, i32 0, i64 0, i64 0, i64 0, i32 0, null, metadata !883, i32 0, i32 0} ; [ DW_TAG_subroutine_type ]
!883 = metadata !{metadata !124, metadata !847}
!884 = metadata !{i32 786478, i32 0, metadata !712, metadata !"length", metadata !"length", metadata !"_ZNK11ap_int_baseILi8ELb0ELb1EE6lengthEv", metadata !36, i32 1684, metadata !864, i1 false, i1 false, i32 0, i32 0, null, i32 256, i1 false, null, null, i32 0, metadata !48, i32 1684} ; [ DW_TAG_subprogram ]
!885 = metadata !{i32 786478, i32 0, metadata !712, metadata !"length", metadata !"length", metadata !"_ZNVK11ap_int_baseILi8ELb0ELb1EE6lengthEv", metadata !36, i32 1685, metadata !886, i1 false, i1 false, i32 0, i32 0, null, i32 256, i1 false, null, null, i32 0, metadata !48, i32 1685} ; [ DW_TAG_subprogram ]
!886 = metadata !{i32 786453, i32 0, metadata !"", i32 0, i32 0, i64 0, i64 0, i64 0, i32 0, null, metadata !887, i32 0, i32 0} ; [ DW_TAG_subroutine_type ]
!887 = metadata !{metadata !52, metadata !888}
!888 = metadata !{i32 786447, i32 0, metadata !"", i32 0, i32 0, i64 64, i64 64, i64 0, i32 64, metadata !745} ; [ DW_TAG_pointer_type ]
!889 = metadata !{i32 786478, i32 0, metadata !712, metadata !"reverse", metadata !"reverse", metadata !"_ZN11ap_int_baseILi8ELb0ELb1EE7reverseEv", metadata !36, i32 1690, metadata !890, i1 false, i1 false, i32 0, i32 0, null, i32 256, i1 false, null, null, i32 0, metadata !48, i32 1690} ; [ DW_TAG_subprogram ]
!890 = metadata !{i32 786453, i32 0, metadata !"", i32 0, i32 0, i64 0, i64 0, i64 0, i32 0, null, metadata !891, i32 0, i32 0} ; [ DW_TAG_subroutine_type ]
!891 = metadata !{metadata !806, metadata !733}
!892 = metadata !{i32 786478, i32 0, metadata !712, metadata !"iszero", metadata !"iszero", metadata !"_ZNK11ap_int_baseILi8ELb0ELb1EE6iszeroEv", metadata !36, i32 1696, metadata !849, i1 false, i1 false, i32 0, i32 0, null, i32 256, i1 false, null, null, i32 0, metadata !48, i32 1696} ; [ DW_TAG_subprogram ]
!893 = metadata !{i32 786478, i32 0, metadata !712, metadata !"is_zero", metadata !"is_zero", metadata !"_ZNK11ap_int_baseILi8ELb0ELb1EE7is_zeroEv", metadata !36, i32 1701, metadata !849, i1 false, i1 false, i32 0, i32 0, null, i32 256, i1 false, null, null, i32 0, metadata !48, i32 1701} ; [ DW_TAG_subprogram ]
!894 = metadata !{i32 786478, i32 0, metadata !712, metadata !"sign", metadata !"sign", metadata !"_ZNK11ap_int_baseILi8ELb0ELb1EE4signEv", metadata !36, i32 1706, metadata !849, i1 false, i1 false, i32 0, i32 0, null, i32 256, i1 false, null, null, i32 0, metadata !48, i32 1706} ; [ DW_TAG_subprogram ]
!895 = metadata !{i32 786478, i32 0, metadata !712, metadata !"clear", metadata !"clear", metadata !"_ZN11ap_int_baseILi8ELb0ELb1EE5clearEi", metadata !36, i32 1714, metadata !763, i1 false, i1 false, i32 0, i32 0, null, i32 256, i1 false, null, null, i32 0, metadata !48, i32 1714} ; [ DW_TAG_subprogram ]
!896 = metadata !{i32 786478, i32 0, metadata !712, metadata !"invert", metadata !"invert", metadata !"_ZN11ap_int_baseILi8ELb0ELb1EE6invertEi", metadata !36, i32 1720, metadata !763, i1 false, i1 false, i32 0, i32 0, null, i32 256, i1 false, null, null, i32 0, metadata !48, i32 1720} ; [ DW_TAG_subprogram ]
!897 = metadata !{i32 786478, i32 0, metadata !712, metadata !"test", metadata !"test", metadata !"_ZNK11ap_int_baseILi8ELb0ELb1EE4testEi", metadata !36, i32 1728, metadata !898, i1 false, i1 false, i32 0, i32 0, null, i32 256, i1 false, null, null, i32 0, metadata !48, i32 1728} ; [ DW_TAG_subprogram ]
!898 = metadata !{i32 786453, i32 0, metadata !"", i32 0, i32 0, i64 0, i64 0, i64 0, i32 0, null, metadata !899, i32 0, i32 0} ; [ DW_TAG_subroutine_type ]
!899 = metadata !{metadata !54, metadata !847, metadata !52}
!900 = metadata !{i32 786478, i32 0, metadata !712, metadata !"set", metadata !"set", metadata !"_ZN11ap_int_baseILi8ELb0ELb1EE3setEi", metadata !36, i32 1734, metadata !763, i1 false, i1 false, i32 0, i32 0, null, i32 256, i1 false, null, null, i32 0, metadata !48, i32 1734} ; [ DW_TAG_subprogram ]
!901 = metadata !{i32 786478, i32 0, metadata !712, metadata !"set", metadata !"set", metadata !"_ZN11ap_int_baseILi8ELb0ELb1EE3setEib", metadata !36, i32 1740, metadata !902, i1 false, i1 false, i32 0, i32 0, null, i32 256, i1 false, null, null, i32 0, metadata !48, i32 1740} ; [ DW_TAG_subprogram ]
!902 = metadata !{i32 786453, i32 0, metadata !"", i32 0, i32 0, i64 0, i64 0, i64 0, i32 0, null, metadata !903, i32 0, i32 0} ; [ DW_TAG_subroutine_type ]
!903 = metadata !{null, metadata !733, metadata !52, metadata !54}
!904 = metadata !{i32 786478, i32 0, metadata !712, metadata !"lrotate", metadata !"lrotate", metadata !"_ZN11ap_int_baseILi8ELb0ELb1EE7lrotateEi", metadata !36, i32 1747, metadata !763, i1 false, i1 false, i32 0, i32 0, null, i32 256, i1 false, null, null, i32 0, metadata !48, i32 1747} ; [ DW_TAG_subprogram ]
!905 = metadata !{i32 786478, i32 0, metadata !712, metadata !"rrotate", metadata !"rrotate", metadata !"_ZN11ap_int_baseILi8ELb0ELb1EE7rrotateEi", metadata !36, i32 1756, metadata !763, i1 false, i1 false, i32 0, i32 0, null, i32 256, i1 false, null, null, i32 0, metadata !48, i32 1756} ; [ DW_TAG_subprogram ]
!906 = metadata !{i32 786478, i32 0, metadata !712, metadata !"set_bit", metadata !"set_bit", metadata !"_ZN11ap_int_baseILi8ELb0ELb1EE7set_bitEib", metadata !36, i32 1764, metadata !902, i1 false, i1 false, i32 0, i32 0, null, i32 256, i1 false, null, null, i32 0, metadata !48, i32 1764} ; [ DW_TAG_subprogram ]
!907 = metadata !{i32 786478, i32 0, metadata !712, metadata !"get_bit", metadata !"get_bit", metadata !"_ZNK11ap_int_baseILi8ELb0ELb1EE7get_bitEi", metadata !36, i32 1769, metadata !898, i1 false, i1 false, i32 0, i32 0, null, i32 256, i1 false, null, null, i32 0, metadata !48, i32 1769} ; [ DW_TAG_subprogram ]
!908 = metadata !{i32 786478, i32 0, metadata !712, metadata !"b_not", metadata !"b_not", metadata !"_ZN11ap_int_baseILi8ELb0ELb1EE5b_notEv", metadata !36, i32 1774, metadata !731, i1 false, i1 false, i32 0, i32 0, null, i32 256, i1 false, null, null, i32 0, metadata !48, i32 1774} ; [ DW_TAG_subprogram ]
!909 = metadata !{i32 786478, i32 0, metadata !712, metadata !"countLeadingZeros", metadata !"countLeadingZeros", metadata !"_ZN11ap_int_baseILi8ELb0ELb1EE17countLeadingZerosEv", metadata !36, i32 1781, metadata !910, i1 false, i1 false, i32 0, i32 0, null, i32 256, i1 false, null, null, i32 0, metadata !48, i32 1781} ; [ DW_TAG_subprogram ]
!910 = metadata !{i32 786453, i32 0, metadata !"", i32 0, i32 0, i64 0, i64 0, i64 0, i32 0, null, metadata !911, i32 0, i32 0} ; [ DW_TAG_subroutine_type ]
!911 = metadata !{metadata !52, metadata !733}
!912 = metadata !{i32 786478, i32 0, metadata !712, metadata !"operator++", metadata !"operator++", metadata !"_ZN11ap_int_baseILi8ELb0ELb1EEppEv", metadata !36, i32 1838, metadata !890, i1 false, i1 false, i32 0, i32 0, null, i32 256, i1 false, null, null, i32 0, metadata !48, i32 1838} ; [ DW_TAG_subprogram ]
!913 = metadata !{i32 786478, i32 0, metadata !712, metadata !"operator--", metadata !"operator--", metadata !"_ZN11ap_int_baseILi8ELb0ELb1EEmmEv", metadata !36, i32 1842, metadata !890, i1 false, i1 false, i32 0, i32 0, null, i32 256, i1 false, null, null, i32 0, metadata !48, i32 1842} ; [ DW_TAG_subprogram ]
!914 = metadata !{i32 786478, i32 0, metadata !712, metadata !"operator++", metadata !"operator++", metadata !"_ZN11ap_int_baseILi8ELb0ELb1EEppEi", metadata !36, i32 1850, metadata !915, i1 false, i1 false, i32 0, i32 0, null, i32 256, i1 false, null, null, i32 0, metadata !48, i32 1850} ; [ DW_TAG_subprogram ]
!915 = metadata !{i32 786453, i32 0, metadata !"", i32 0, i32 0, i64 0, i64 0, i64 0, i32 0, null, metadata !916, i32 0, i32 0} ; [ DW_TAG_subroutine_type ]
!916 = metadata !{metadata !738, metadata !733, metadata !52}
!917 = metadata !{i32 786478, i32 0, metadata !712, metadata !"operator--", metadata !"operator--", metadata !"_ZN11ap_int_baseILi8ELb0ELb1EEmmEi", metadata !36, i32 1855, metadata !915, i1 false, i1 false, i32 0, i32 0, null, i32 256, i1 false, null, null, i32 0, metadata !48, i32 1855} ; [ DW_TAG_subprogram ]
!918 = metadata !{i32 786478, i32 0, metadata !712, metadata !"operator+", metadata !"operator+", metadata !"_ZNK11ap_int_baseILi8ELb0ELb1EEpsEv", metadata !36, i32 1864, metadata !919, i1 false, i1 false, i32 0, i32 0, null, i32 256, i1 false, null, null, i32 0, metadata !48, i32 1864} ; [ DW_TAG_subprogram ]
!919 = metadata !{i32 786453, i32 0, metadata !"", i32 0, i32 0, i64 0, i64 0, i64 0, i32 0, null, metadata !920, i32 0, i32 0} ; [ DW_TAG_subroutine_type ]
!920 = metadata !{metadata !712, metadata !847}
!921 = metadata !{i32 786478, i32 0, metadata !712, metadata !"operator!", metadata !"operator!", metadata !"_ZNK11ap_int_baseILi8ELb0ELb1EEntEv", metadata !36, i32 1870, metadata !849, i1 false, i1 false, i32 0, i32 0, null, i32 256, i1 false, null, null, i32 0, metadata !48, i32 1870} ; [ DW_TAG_subprogram ]
!922 = metadata !{i32 786478, i32 0, metadata !712, metadata !"operator-", metadata !"operator-", metadata !"_ZNK11ap_int_baseILi8ELb0ELb1EEngEv", metadata !36, i32 1875, metadata !923, i1 false, i1 false, i32 0, i32 0, null, i32 256, i1 false, null, null, i32 0, metadata !48, i32 1875} ; [ DW_TAG_subprogram ]
!923 = metadata !{i32 786453, i32 0, metadata !"", i32 0, i32 0, i64 0, i64 0, i64 0, i32 0, null, metadata !924, i32 0, i32 0} ; [ DW_TAG_subroutine_type ]
!924 = metadata !{metadata !269, metadata !847}
!925 = metadata !{i32 786478, i32 0, metadata !712, metadata !"range", metadata !"range", metadata !"_ZN11ap_int_baseILi8ELb0ELb1EE5rangeEii", metadata !36, i32 2005, metadata !926, i1 false, i1 false, i32 0, i32 0, null, i32 256, i1 false, null, null, i32 0, metadata !48, i32 2005} ; [ DW_TAG_subprogram ]
!926 = metadata !{i32 786453, i32 0, metadata !"", i32 0, i32 0, i64 0, i64 0, i64 0, i32 0, null, metadata !927, i32 0, i32 0} ; [ DW_TAG_subroutine_type ]
!927 = metadata !{metadata !928, metadata !733, metadata !52, metadata !52}
!928 = metadata !{i32 786434, null, metadata !"ap_range_ref<8, false>", metadata !36, i32 923, i32 0, i32 0, i32 0, i32 4, null, null, i32 0} ; [ DW_TAG_class_type ]
!929 = metadata !{i32 786478, i32 0, metadata !712, metadata !"operator()", metadata !"operator()", metadata !"_ZN11ap_int_baseILi8ELb0ELb1EEclEii", metadata !36, i32 2011, metadata !926, i1 false, i1 false, i32 0, i32 0, null, i32 256, i1 false, null, null, i32 0, metadata !48, i32 2011} ; [ DW_TAG_subprogram ]
!930 = metadata !{i32 786478, i32 0, metadata !712, metadata !"range", metadata !"range", metadata !"_ZNK11ap_int_baseILi8ELb0ELb1EE5rangeEii", metadata !36, i32 2017, metadata !931, i1 false, i1 false, i32 0, i32 0, null, i32 256, i1 false, null, null, i32 0, metadata !48, i32 2017} ; [ DW_TAG_subprogram ]
!931 = metadata !{i32 786453, i32 0, metadata !"", i32 0, i32 0, i64 0, i64 0, i64 0, i32 0, null, metadata !932, i32 0, i32 0} ; [ DW_TAG_subroutine_type ]
!932 = metadata !{metadata !928, metadata !847, metadata !52, metadata !52}
!933 = metadata !{i32 786478, i32 0, metadata !712, metadata !"operator()", metadata !"operator()", metadata !"_ZNK11ap_int_baseILi8ELb0ELb1EEclEii", metadata !36, i32 2023, metadata !931, i1 false, i1 false, i32 0, i32 0, null, i32 256, i1 false, null, null, i32 0, metadata !48, i32 2023} ; [ DW_TAG_subprogram ]
!934 = metadata !{i32 786478, i32 0, metadata !712, metadata !"operator[]", metadata !"operator[]", metadata !"_ZN11ap_int_baseILi8ELb0ELb1EEixEi", metadata !36, i32 2042, metadata !935, i1 false, i1 false, i32 0, i32 0, null, i32 256, i1 false, null, null, i32 0, metadata !48, i32 2042} ; [ DW_TAG_subprogram ]
!935 = metadata !{i32 786453, i32 0, metadata !"", i32 0, i32 0, i64 0, i64 0, i64 0, i32 0, null, metadata !936, i32 0, i32 0} ; [ DW_TAG_subroutine_type ]
!936 = metadata !{metadata !937, metadata !733, metadata !52}
!937 = metadata !{i32 786434, null, metadata !"ap_bit_ref<8, false>", metadata !36, i32 1193, i32 0, i32 0, i32 0, i32 4, null, null, i32 0} ; [ DW_TAG_class_type ]
!938 = metadata !{i32 786478, i32 0, metadata !712, metadata !"operator[]", metadata !"operator[]", metadata !"_ZNK11ap_int_baseILi8ELb0ELb1EEixEi", metadata !36, i32 2056, metadata !898, i1 false, i1 false, i32 0, i32 0, null, i32 256, i1 false, null, null, i32 0, metadata !48, i32 2056} ; [ DW_TAG_subprogram ]
!939 = metadata !{i32 786478, i32 0, metadata !712, metadata !"bit", metadata !"bit", metadata !"_ZN11ap_int_baseILi8ELb0ELb1EE3bitEi", metadata !36, i32 2070, metadata !935, i1 false, i1 false, i32 0, i32 0, null, i32 256, i1 false, null, null, i32 0, metadata !48, i32 2070} ; [ DW_TAG_subprogram ]
!940 = metadata !{i32 786478, i32 0, metadata !712, metadata !"bit", metadata !"bit", metadata !"_ZNK11ap_int_baseILi8ELb0ELb1EE3bitEi", metadata !36, i32 2084, metadata !898, i1 false, i1 false, i32 0, i32 0, null, i32 256, i1 false, null, null, i32 0, metadata !48, i32 2084} ; [ DW_TAG_subprogram ]
!941 = metadata !{i32 786478, i32 0, metadata !712, metadata !"and_reduce", metadata !"and_reduce", metadata !"_ZN11ap_int_baseILi8ELb0ELb1EE10and_reduceEv", metadata !36, i32 2264, metadata !942, i1 false, i1 false, i32 0, i32 0, null, i32 256, i1 false, null, null, i32 0, metadata !48, i32 2264} ; [ DW_TAG_subprogram ]
!942 = metadata !{i32 786453, i32 0, metadata !"", i32 0, i32 0, i64 0, i64 0, i64 0, i32 0, null, metadata !943, i32 0, i32 0} ; [ DW_TAG_subroutine_type ]
!943 = metadata !{metadata !54, metadata !733}
!944 = metadata !{i32 786478, i32 0, metadata !712, metadata !"nand_reduce", metadata !"nand_reduce", metadata !"_ZN11ap_int_baseILi8ELb0ELb1EE11nand_reduceEv", metadata !36, i32 2267, metadata !942, i1 false, i1 false, i32 0, i32 0, null, i32 256, i1 false, null, null, i32 0, metadata !48, i32 2267} ; [ DW_TAG_subprogram ]
!945 = metadata !{i32 786478, i32 0, metadata !712, metadata !"or_reduce", metadata !"or_reduce", metadata !"_ZN11ap_int_baseILi8ELb0ELb1EE9or_reduceEv", metadata !36, i32 2270, metadata !942, i1 false, i1 false, i32 0, i32 0, null, i32 256, i1 false, null, null, i32 0, metadata !48, i32 2270} ; [ DW_TAG_subprogram ]
!946 = metadata !{i32 786478, i32 0, metadata !712, metadata !"nor_reduce", metadata !"nor_reduce", metadata !"_ZN11ap_int_baseILi8ELb0ELb1EE10nor_reduceEv", metadata !36, i32 2273, metadata !942, i1 false, i1 false, i32 0, i32 0, null, i32 256, i1 false, null, null, i32 0, metadata !48, i32 2273} ; [ DW_TAG_subprogram ]
!947 = metadata !{i32 786478, i32 0, metadata !712, metadata !"xor_reduce", metadata !"xor_reduce", metadata !"_ZN11ap_int_baseILi8ELb0ELb1EE10xor_reduceEv", metadata !36, i32 2276, metadata !942, i1 false, i1 false, i32 0, i32 0, null, i32 256, i1 false, null, null, i32 0, metadata !48, i32 2276} ; [ DW_TAG_subprogram ]
!948 = metadata !{i32 786478, i32 0, metadata !712, metadata !"xnor_reduce", metadata !"xnor_reduce", metadata !"_ZN11ap_int_baseILi8ELb0ELb1EE11xnor_reduceEv", metadata !36, i32 2279, metadata !942, i1 false, i1 false, i32 0, i32 0, null, i32 256, i1 false, null, null, i32 0, metadata !48, i32 2279} ; [ DW_TAG_subprogram ]
!949 = metadata !{i32 786478, i32 0, metadata !712, metadata !"and_reduce", metadata !"and_reduce", metadata !"_ZNK11ap_int_baseILi8ELb0ELb1EE10and_reduceEv", metadata !36, i32 2283, metadata !849, i1 false, i1 false, i32 0, i32 0, null, i32 256, i1 false, null, null, i32 0, metadata !48, i32 2283} ; [ DW_TAG_subprogram ]
!950 = metadata !{i32 786478, i32 0, metadata !712, metadata !"nand_reduce", metadata !"nand_reduce", metadata !"_ZNK11ap_int_baseILi8ELb0ELb1EE11nand_reduceEv", metadata !36, i32 2286, metadata !849, i1 false, i1 false, i32 0, i32 0, null, i32 256, i1 false, null, null, i32 0, metadata !48, i32 2286} ; [ DW_TAG_subprogram ]
!951 = metadata !{i32 786478, i32 0, metadata !712, metadata !"or_reduce", metadata !"or_reduce", metadata !"_ZNK11ap_int_baseILi8ELb0ELb1EE9or_reduceEv", metadata !36, i32 2289, metadata !849, i1 false, i1 false, i32 0, i32 0, null, i32 256, i1 false, null, null, i32 0, metadata !48, i32 2289} ; [ DW_TAG_subprogram ]
!952 = metadata !{i32 786478, i32 0, metadata !712, metadata !"nor_reduce", metadata !"nor_reduce", metadata !"_ZNK11ap_int_baseILi8ELb0ELb1EE10nor_reduceEv", metadata !36, i32 2292, metadata !849, i1 false, i1 false, i32 0, i32 0, null, i32 256, i1 false, null, null, i32 0, metadata !48, i32 2292} ; [ DW_TAG_subprogram ]
!953 = metadata !{i32 786478, i32 0, metadata !712, metadata !"xor_reduce", metadata !"xor_reduce", metadata !"_ZNK11ap_int_baseILi8ELb0ELb1EE10xor_reduceEv", metadata !36, i32 2295, metadata !849, i1 false, i1 false, i32 0, i32 0, null, i32 256, i1 false, null, null, i32 0, metadata !48, i32 2295} ; [ DW_TAG_subprogram ]
!954 = metadata !{i32 786478, i32 0, metadata !712, metadata !"xnor_reduce", metadata !"xnor_reduce", metadata !"_ZNK11ap_int_baseILi8ELb0ELb1EE11xnor_reduceEv", metadata !36, i32 2298, metadata !849, i1 false, i1 false, i32 0, i32 0, null, i32 256, i1 false, null, null, i32 0, metadata !48, i32 2298} ; [ DW_TAG_subprogram ]
!955 = metadata !{i32 786478, i32 0, metadata !712, metadata !"to_string", metadata !"to_string", metadata !"_ZNK11ap_int_baseILi8ELb0ELb1EE9to_stringEPci8BaseModeb", metadata !36, i32 2305, metadata !956, i1 false, i1 false, i32 0, i32 0, null, i32 256, i1 false, null, null, i32 0, metadata !48, i32 2305} ; [ DW_TAG_subprogram ]
!956 = metadata !{i32 786453, i32 0, metadata !"", i32 0, i32 0, i64 0, i64 0, i64 0, i32 0, null, metadata !957, i32 0, i32 0} ; [ DW_TAG_subroutine_type ]
!957 = metadata !{null, metadata !847, metadata !539, metadata !52, metadata !540, metadata !54}
!958 = metadata !{i32 786478, i32 0, metadata !712, metadata !"to_string", metadata !"to_string", metadata !"_ZNK11ap_int_baseILi8ELb0ELb1EE9to_stringE8BaseModeb", metadata !36, i32 2332, metadata !959, i1 false, i1 false, i32 0, i32 0, null, i32 256, i1 false, null, null, i32 0, metadata !48, i32 2332} ; [ DW_TAG_subprogram ]
!959 = metadata !{i32 786453, i32 0, metadata !"", i32 0, i32 0, i64 0, i64 0, i64 0, i32 0, null, metadata !960, i32 0, i32 0} ; [ DW_TAG_subroutine_type ]
!960 = metadata !{metadata !539, metadata !847, metadata !540, metadata !54}
!961 = metadata !{i32 786478, i32 0, metadata !712, metadata !"to_string", metadata !"to_string", metadata !"_ZNK11ap_int_baseILi8ELb0ELb1EE9to_stringEab", metadata !36, i32 2336, metadata !962, i1 false, i1 false, i32 0, i32 0, null, i32 256, i1 false, null, null, i32 0, metadata !48, i32 2336} ; [ DW_TAG_subprogram ]
!962 = metadata !{i32 786453, i32 0, metadata !"", i32 0, i32 0, i64 0, i64 0, i64 0, i32 0, null, metadata !963, i32 0, i32 0} ; [ DW_TAG_subroutine_type ]
!963 = metadata !{metadata !539, metadata !847, metadata !79, metadata !54}
!964 = metadata !{i32 786478, i32 0, metadata !712, metadata !"ap_int_base", metadata !"ap_int_base", metadata !"", metadata !36, i32 1397, metadata !735, i1 false, i1 false, i32 0, i32 0, null, i32 320, i1 false, null, null, i32 0, metadata !48, i32 1397} ; [ DW_TAG_subprogram ]
!965 = metadata !{metadata !605, metadata !729, metadata !553}
!966 = metadata !{i32 786478, i32 0, metadata !709, metadata !"ap_uint", metadata !"ap_uint", metadata !"", metadata !32, i32 183, metadata !967, i1 false, i1 false, i32 0, i32 0, null, i32 256, i1 false, null, null, i32 0, metadata !48, i32 183} ; [ DW_TAG_subprogram ]
!967 = metadata !{i32 786453, i32 0, metadata !"", i32 0, i32 0, i64 0, i64 0, i64 0, i32 0, null, metadata !968, i32 0, i32 0} ; [ DW_TAG_subroutine_type ]
!968 = metadata !{null, metadata !969}
!969 = metadata !{i32 786447, i32 0, metadata !"", i32 0, i32 0, i64 64, i64 64, i64 0, i32 64, metadata !709} ; [ DW_TAG_pointer_type ]
!970 = metadata !{i32 786478, i32 0, metadata !709, metadata !"ap_uint<8>", metadata !"ap_uint<8>", metadata !"", metadata !32, i32 185, metadata !971, i1 false, i1 false, i32 0, i32 0, null, i32 256, i1 false, null, metadata !557, i32 0, metadata !48, i32 185} ; [ DW_TAG_subprogram ]
!971 = metadata !{i32 786453, i32 0, metadata !"", i32 0, i32 0, i64 0, i64 0, i64 0, i32 0, null, metadata !972, i32 0, i32 0} ; [ DW_TAG_subroutine_type ]
!972 = metadata !{null, metadata !969, metadata !973}
!973 = metadata !{i32 786448, null, null, null, i32 0, i64 0, i64 0, i64 0, i32 0, metadata !974} ; [ DW_TAG_reference_type ]
!974 = metadata !{i32 786470, null, metadata !"", null, i32 0, i64 0, i64 0, i64 0, i32 0, metadata !709} ; [ DW_TAG_const_type ]
!975 = metadata !{i32 786478, i32 0, metadata !709, metadata !"ap_uint<8>", metadata !"ap_uint<8>", metadata !"", metadata !32, i32 191, metadata !976, i1 false, i1 false, i32 0, i32 0, null, i32 256, i1 false, null, metadata !557, i32 0, metadata !48, i32 191} ; [ DW_TAG_subprogram ]
!976 = metadata !{i32 786453, i32 0, metadata !"", i32 0, i32 0, i64 0, i64 0, i64 0, i32 0, null, metadata !977, i32 0, i32 0} ; [ DW_TAG_subroutine_type ]
!977 = metadata !{null, metadata !969, metadata !978}
!978 = metadata !{i32 786448, null, null, null, i32 0, i64 0, i64 0, i64 0, i32 0, metadata !979} ; [ DW_TAG_reference_type ]
!979 = metadata !{i32 786470, null, metadata !"", null, i32 0, i64 0, i64 0, i64 0, i32 0, metadata !980} ; [ DW_TAG_const_type ]
!980 = metadata !{i32 786485, null, metadata !"", null, i32 0, i64 0, i64 0, i64 0, i32 0, metadata !709} ; [ DW_TAG_volatile_type ]
!981 = metadata !{i32 786478, i32 0, metadata !709, metadata !"ap_uint<24, true>", metadata !"ap_uint<24, true>", metadata !"", metadata !32, i32 197, metadata !982, i1 false, i1 false, i32 0, i32 0, null, i32 256, i1 false, null, metadata !1527, i32 0, metadata !48, i32 197} ; [ DW_TAG_subprogram ]
!982 = metadata !{i32 786453, i32 0, metadata !"", i32 0, i32 0, i64 0, i64 0, i64 0, i32 0, null, metadata !983, i32 0, i32 0} ; [ DW_TAG_subroutine_type ]
!983 = metadata !{null, metadata !969, metadata !984}
!984 = metadata !{i32 786448, null, null, null, i32 0, i64 0, i64 0, i64 0, i32 0, metadata !985} ; [ DW_TAG_reference_type ]
!985 = metadata !{i32 786470, null, metadata !"", null, i32 0, i64 0, i64 0, i64 0, i32 0, metadata !986} ; [ DW_TAG_const_type ]
!986 = metadata !{i32 786434, null, metadata !"ap_range_ref<24, true>", metadata !36, i32 923, i64 128, i64 64, i32 0, i32 0, null, metadata !987, i32 0, null, metadata !1526} ; [ DW_TAG_class_type ]
!987 = metadata !{metadata !988, metadata !1232, metadata !1233, metadata !1234, metadata !1238, metadata !1242, metadata !1485, metadata !1488, metadata !1492, metadata !1495, metadata !1499, metadata !1502, metadata !1503, metadata !1506, metadata !1509, metadata !1512, metadata !1515, metadata !1518, metadata !1521, metadata !1522, metadata !1523}
!988 = metadata !{i32 786445, metadata !986, metadata !"d_bv", metadata !36, i32 924, i64 64, i64 64, i64 0, i32 0, metadata !989} ; [ DW_TAG_member ]
!989 = metadata !{i32 786448, null, null, null, i32 0, i64 0, i64 0, i64 0, i32 0, metadata !990} ; [ DW_TAG_reference_type ]
!990 = metadata !{i32 786434, null, metadata !"ap_int_base<24, true, true>", metadata !36, i32 1397, i64 32, i64 32, i32 0, i32 0, null, metadata !991, i32 0, null, metadata !1230} ; [ DW_TAG_class_type ]
!991 = metadata !{metadata !992, metadata !1003, metadata !1007, metadata !1010, metadata !1013, metadata !1016, metadata !1019, metadata !1022, metadata !1025, metadata !1028, metadata !1031, metadata !1034, metadata !1037, metadata !1040, metadata !1043, metadata !1046, metadata !1049, metadata !1052, metadata !1057, metadata !1062, metadata !1067, metadata !1068, metadata !1071, metadata !1074, metadata !1077, metadata !1080, metadata !1083, metadata !1086, metadata !1089, metadata !1092, metadata !1095, metadata !1098, metadata !1101, metadata !1104, metadata !1113, metadata !1116, metadata !1119, metadata !1122, metadata !1125, metadata !1128, metadata !1131, metadata !1134, metadata !1137, metadata !1140, metadata !1143, metadata !1146, metadata !1149, metadata !1150, metadata !1154, metadata !1157, metadata !1158, metadata !1159, metadata !1160, metadata !1161, metadata !1162, metadata !1165, metadata !1166, metadata !1169, metadata !1170, metadata !1171, metadata !1172, metadata !1173, metadata !1174, metadata !1177, metadata !1178, metadata !1179, metadata !1182, metadata !1183, metadata !1186, metadata !1187, metadata !1191, metadata !1194, metadata !1195, metadata !1198, metadata !1199, metadata !1203, metadata !1204, metadata !1205, metadata !1206, metadata !1209, metadata !1210, metadata !1211, metadata !1212, metadata !1213, metadata !1214, metadata !1215, metadata !1216, metadata !1217, metadata !1218, metadata !1219, metadata !1220, metadata !1223, metadata !1226, metadata !1229}
!992 = metadata !{i32 786460, metadata !990, null, metadata !36, i32 0, i64 0, i64 0, i64 0, i32 0, metadata !993} ; [ DW_TAG_inheritance ]
!993 = metadata !{i32 786434, null, metadata !"ssdm_int<24 + 1024 * 0, true>", metadata !40, i32 26, i64 32, i64 32, i32 0, i32 0, null, metadata !994, i32 0, null, metadata !1001} ; [ DW_TAG_class_type ]
!994 = metadata !{metadata !995, metadata !997}
!995 = metadata !{i32 786445, metadata !993, metadata !"V", metadata !40, i32 26, i64 24, i64 32, i64 0, i32 0, metadata !996} ; [ DW_TAG_member ]
!996 = metadata !{i32 786468, null, metadata !"int24", null, i32 0, i64 24, i64 32, i64 0, i32 0, i32 5} ; [ DW_TAG_base_type ]
!997 = metadata !{i32 786478, i32 0, metadata !993, metadata !"ssdm_int", metadata !"ssdm_int", metadata !"", metadata !40, i32 26, metadata !998, i1 false, i1 false, i32 0, i32 0, null, i32 256, i1 false, null, null, i32 0, metadata !48, i32 26} ; [ DW_TAG_subprogram ]
!998 = metadata !{i32 786453, i32 0, metadata !"", i32 0, i32 0, i64 0, i64 0, i64 0, i32 0, null, metadata !999, i32 0, i32 0} ; [ DW_TAG_subroutine_type ]
!999 = metadata !{null, metadata !1000}
!1000 = metadata !{i32 786447, i32 0, metadata !"", i32 0, i32 0, i64 64, i64 64, i64 0, i32 64, metadata !993} ; [ DW_TAG_pointer_type ]
!1001 = metadata !{metadata !1002, metadata !53}
!1002 = metadata !{i32 786480, null, metadata !"_AP_N", metadata !52, i64 24, null, i32 0, i32 0} ; [ DW_TAG_template_value_parameter ]
!1003 = metadata !{i32 786478, i32 0, metadata !990, metadata !"ap_int_base", metadata !"ap_int_base", metadata !"", metadata !36, i32 1438, metadata !1004, i1 false, i1 false, i32 0, i32 0, null, i32 256, i1 false, null, null, i32 0, metadata !48, i32 1438} ; [ DW_TAG_subprogram ]
!1004 = metadata !{i32 786453, i32 0, metadata !"", i32 0, i32 0, i64 0, i64 0, i64 0, i32 0, null, metadata !1005, i32 0, i32 0} ; [ DW_TAG_subroutine_type ]
!1005 = metadata !{null, metadata !1006}
!1006 = metadata !{i32 786447, i32 0, metadata !"", i32 0, i32 0, i64 64, i64 64, i64 0, i32 64, metadata !990} ; [ DW_TAG_pointer_type ]
!1007 = metadata !{i32 786478, i32 0, metadata !990, metadata !"ap_int_base", metadata !"ap_int_base", metadata !"", metadata !36, i32 1460, metadata !1008, i1 false, i1 false, i32 0, i32 0, null, i32 384, i1 false, null, null, i32 0, metadata !48, i32 1460} ; [ DW_TAG_subprogram ]
!1008 = metadata !{i32 786453, i32 0, metadata !"", i32 0, i32 0, i64 0, i64 0, i64 0, i32 0, null, metadata !1009, i32 0, i32 0} ; [ DW_TAG_subroutine_type ]
!1009 = metadata !{null, metadata !1006, metadata !54}
!1010 = metadata !{i32 786478, i32 0, metadata !990, metadata !"ap_int_base", metadata !"ap_int_base", metadata !"", metadata !36, i32 1461, metadata !1011, i1 false, i1 false, i32 0, i32 0, null, i32 384, i1 false, null, null, i32 0, metadata !48, i32 1461} ; [ DW_TAG_subprogram ]
!1011 = metadata !{i32 786453, i32 0, metadata !"", i32 0, i32 0, i64 0, i64 0, i64 0, i32 0, null, metadata !1012, i32 0, i32 0} ; [ DW_TAG_subroutine_type ]
!1012 = metadata !{null, metadata !1006, metadata !79}
!1013 = metadata !{i32 786478, i32 0, metadata !990, metadata !"ap_int_base", metadata !"ap_int_base", metadata !"", metadata !36, i32 1462, metadata !1014, i1 false, i1 false, i32 0, i32 0, null, i32 384, i1 false, null, null, i32 0, metadata !48, i32 1462} ; [ DW_TAG_subprogram ]
!1014 = metadata !{i32 786453, i32 0, metadata !"", i32 0, i32 0, i64 0, i64 0, i64 0, i32 0, null, metadata !1015, i32 0, i32 0} ; [ DW_TAG_subroutine_type ]
!1015 = metadata !{null, metadata !1006, metadata !83}
!1016 = metadata !{i32 786478, i32 0, metadata !990, metadata !"ap_int_base", metadata !"ap_int_base", metadata !"", metadata !36, i32 1463, metadata !1017, i1 false, i1 false, i32 0, i32 0, null, i32 384, i1 false, null, null, i32 0, metadata !48, i32 1463} ; [ DW_TAG_subprogram ]
!1017 = metadata !{i32 786453, i32 0, metadata !"", i32 0, i32 0, i64 0, i64 0, i64 0, i32 0, null, metadata !1018, i32 0, i32 0} ; [ DW_TAG_subroutine_type ]
!1018 = metadata !{null, metadata !1006, metadata !87}
!1019 = metadata !{i32 786478, i32 0, metadata !990, metadata !"ap_int_base", metadata !"ap_int_base", metadata !"", metadata !36, i32 1464, metadata !1020, i1 false, i1 false, i32 0, i32 0, null, i32 384, i1 false, null, null, i32 0, metadata !48, i32 1464} ; [ DW_TAG_subprogram ]
!1020 = metadata !{i32 786453, i32 0, metadata !"", i32 0, i32 0, i64 0, i64 0, i64 0, i32 0, null, metadata !1021, i32 0, i32 0} ; [ DW_TAG_subroutine_type ]
!1021 = metadata !{null, metadata !1006, metadata !91}
!1022 = metadata !{i32 786478, i32 0, metadata !990, metadata !"ap_int_base", metadata !"ap_int_base", metadata !"", metadata !36, i32 1465, metadata !1023, i1 false, i1 false, i32 0, i32 0, null, i32 384, i1 false, null, null, i32 0, metadata !48, i32 1465} ; [ DW_TAG_subprogram ]
!1023 = metadata !{i32 786453, i32 0, metadata !"", i32 0, i32 0, i64 0, i64 0, i64 0, i32 0, null, metadata !1024, i32 0, i32 0} ; [ DW_TAG_subroutine_type ]
!1024 = metadata !{null, metadata !1006, metadata !52}
!1025 = metadata !{i32 786478, i32 0, metadata !990, metadata !"ap_int_base", metadata !"ap_int_base", metadata !"", metadata !36, i32 1466, metadata !1026, i1 false, i1 false, i32 0, i32 0, null, i32 384, i1 false, null, null, i32 0, metadata !48, i32 1466} ; [ DW_TAG_subprogram ]
!1026 = metadata !{i32 786453, i32 0, metadata !"", i32 0, i32 0, i64 0, i64 0, i64 0, i32 0, null, metadata !1027, i32 0, i32 0} ; [ DW_TAG_subroutine_type ]
!1027 = metadata !{null, metadata !1006, metadata !98}
!1028 = metadata !{i32 786478, i32 0, metadata !990, metadata !"ap_int_base", metadata !"ap_int_base", metadata !"", metadata !36, i32 1467, metadata !1029, i1 false, i1 false, i32 0, i32 0, null, i32 384, i1 false, null, null, i32 0, metadata !48, i32 1467} ; [ DW_TAG_subprogram ]
!1029 = metadata !{i32 786453, i32 0, metadata !"", i32 0, i32 0, i64 0, i64 0, i64 0, i32 0, null, metadata !1030, i32 0, i32 0} ; [ DW_TAG_subroutine_type ]
!1030 = metadata !{null, metadata !1006, metadata !102}
!1031 = metadata !{i32 786478, i32 0, metadata !990, metadata !"ap_int_base", metadata !"ap_int_base", metadata !"", metadata !36, i32 1468, metadata !1032, i1 false, i1 false, i32 0, i32 0, null, i32 384, i1 false, null, null, i32 0, metadata !48, i32 1468} ; [ DW_TAG_subprogram ]
!1032 = metadata !{i32 786453, i32 0, metadata !"", i32 0, i32 0, i64 0, i64 0, i64 0, i32 0, null, metadata !1033, i32 0, i32 0} ; [ DW_TAG_subroutine_type ]
!1033 = metadata !{null, metadata !1006, metadata !106}
!1034 = metadata !{i32 786478, i32 0, metadata !990, metadata !"ap_int_base", metadata !"ap_int_base", metadata !"", metadata !36, i32 1469, metadata !1035, i1 false, i1 false, i32 0, i32 0, null, i32 384, i1 false, null, null, i32 0, metadata !48, i32 1469} ; [ DW_TAG_subprogram ]
!1035 = metadata !{i32 786453, i32 0, metadata !"", i32 0, i32 0, i64 0, i64 0, i64 0, i32 0, null, metadata !1036, i32 0, i32 0} ; [ DW_TAG_subroutine_type ]
!1036 = metadata !{null, metadata !1006, metadata !110}
!1037 = metadata !{i32 786478, i32 0, metadata !990, metadata !"ap_int_base", metadata !"ap_int_base", metadata !"", metadata !36, i32 1470, metadata !1038, i1 false, i1 false, i32 0, i32 0, null, i32 384, i1 false, null, null, i32 0, metadata !48, i32 1470} ; [ DW_TAG_subprogram ]
!1038 = metadata !{i32 786453, i32 0, metadata !"", i32 0, i32 0, i64 0, i64 0, i64 0, i32 0, null, metadata !1039, i32 0, i32 0} ; [ DW_TAG_subroutine_type ]
!1039 = metadata !{null, metadata !1006, metadata !115}
!1040 = metadata !{i32 786478, i32 0, metadata !990, metadata !"ap_int_base", metadata !"ap_int_base", metadata !"", metadata !36, i32 1471, metadata !1041, i1 false, i1 false, i32 0, i32 0, null, i32 384, i1 false, null, null, i32 0, metadata !48, i32 1471} ; [ DW_TAG_subprogram ]
!1041 = metadata !{i32 786453, i32 0, metadata !"", i32 0, i32 0, i64 0, i64 0, i64 0, i32 0, null, metadata !1042, i32 0, i32 0} ; [ DW_TAG_subroutine_type ]
!1042 = metadata !{null, metadata !1006, metadata !120}
!1043 = metadata !{i32 786478, i32 0, metadata !990, metadata !"ap_int_base", metadata !"ap_int_base", metadata !"", metadata !36, i32 1472, metadata !1044, i1 false, i1 false, i32 0, i32 0, null, i32 384, i1 false, null, null, i32 0, metadata !48, i32 1472} ; [ DW_TAG_subprogram ]
!1044 = metadata !{i32 786453, i32 0, metadata !"", i32 0, i32 0, i64 0, i64 0, i64 0, i32 0, null, metadata !1045, i32 0, i32 0} ; [ DW_TAG_subroutine_type ]
!1045 = metadata !{null, metadata !1006, metadata !124}
!1046 = metadata !{i32 786478, i32 0, metadata !990, metadata !"ap_int_base", metadata !"ap_int_base", metadata !"", metadata !36, i32 1499, metadata !1047, i1 false, i1 false, i32 0, i32 0, null, i32 256, i1 false, null, null, i32 0, metadata !48, i32 1499} ; [ DW_TAG_subprogram ]
!1047 = metadata !{i32 786453, i32 0, metadata !"", i32 0, i32 0, i64 0, i64 0, i64 0, i32 0, null, metadata !1048, i32 0, i32 0} ; [ DW_TAG_subroutine_type ]
!1048 = metadata !{null, metadata !1006, metadata !128}
!1049 = metadata !{i32 786478, i32 0, metadata !990, metadata !"ap_int_base", metadata !"ap_int_base", metadata !"", metadata !36, i32 1506, metadata !1050, i1 false, i1 false, i32 0, i32 0, null, i32 256, i1 false, null, null, i32 0, metadata !48, i32 1506} ; [ DW_TAG_subprogram ]
!1050 = metadata !{i32 786453, i32 0, metadata !"", i32 0, i32 0, i64 0, i64 0, i64 0, i32 0, null, metadata !1051, i32 0, i32 0} ; [ DW_TAG_subroutine_type ]
!1051 = metadata !{null, metadata !1006, metadata !128, metadata !79}
!1052 = metadata !{i32 786478, i32 0, metadata !990, metadata !"read", metadata !"read", metadata !"_ZNV11ap_int_baseILi24ELb1ELb1EE4readEv", metadata !36, i32 1527, metadata !1053, i1 false, i1 false, i32 0, i32 0, null, i32 256, i1 false, null, null, i32 0, metadata !48, i32 1527} ; [ DW_TAG_subprogram ]
!1053 = metadata !{i32 786453, i32 0, metadata !"", i32 0, i32 0, i64 0, i64 0, i64 0, i32 0, null, metadata !1054, i32 0, i32 0} ; [ DW_TAG_subroutine_type ]
!1054 = metadata !{metadata !990, metadata !1055}
!1055 = metadata !{i32 786447, i32 0, metadata !"", i32 0, i32 0, i64 64, i64 64, i64 0, i32 64, metadata !1056} ; [ DW_TAG_pointer_type ]
!1056 = metadata !{i32 786485, null, metadata !"", null, i32 0, i64 0, i64 0, i64 0, i32 0, metadata !990} ; [ DW_TAG_volatile_type ]
!1057 = metadata !{i32 786478, i32 0, metadata !990, metadata !"write", metadata !"write", metadata !"_ZNV11ap_int_baseILi24ELb1ELb1EE5writeERKS0_", metadata !36, i32 1533, metadata !1058, i1 false, i1 false, i32 0, i32 0, null, i32 256, i1 false, null, null, i32 0, metadata !48, i32 1533} ; [ DW_TAG_subprogram ]
!1058 = metadata !{i32 786453, i32 0, metadata !"", i32 0, i32 0, i64 0, i64 0, i64 0, i32 0, null, metadata !1059, i32 0, i32 0} ; [ DW_TAG_subroutine_type ]
!1059 = metadata !{null, metadata !1055, metadata !1060}
!1060 = metadata !{i32 786448, null, null, null, i32 0, i64 0, i64 0, i64 0, i32 0, metadata !1061} ; [ DW_TAG_reference_type ]
!1061 = metadata !{i32 786470, null, metadata !"", null, i32 0, i64 0, i64 0, i64 0, i32 0, metadata !990} ; [ DW_TAG_const_type ]
!1062 = metadata !{i32 786478, i32 0, metadata !990, metadata !"operator=", metadata !"operator=", metadata !"_ZNV11ap_int_baseILi24ELb1ELb1EEaSERVKS0_", metadata !36, i32 1545, metadata !1063, i1 false, i1 false, i32 0, i32 0, null, i32 256, i1 false, null, null, i32 0, metadata !48, i32 1545} ; [ DW_TAG_subprogram ]
!1063 = metadata !{i32 786453, i32 0, metadata !"", i32 0, i32 0, i64 0, i64 0, i64 0, i32 0, null, metadata !1064, i32 0, i32 0} ; [ DW_TAG_subroutine_type ]
!1064 = metadata !{null, metadata !1055, metadata !1065}
!1065 = metadata !{i32 786448, null, null, null, i32 0, i64 0, i64 0, i64 0, i32 0, metadata !1066} ; [ DW_TAG_reference_type ]
!1066 = metadata !{i32 786470, null, metadata !"", null, i32 0, i64 0, i64 0, i64 0, i32 0, metadata !1056} ; [ DW_TAG_const_type ]
!1067 = metadata !{i32 786478, i32 0, metadata !990, metadata !"operator=", metadata !"operator=", metadata !"_ZNV11ap_int_baseILi24ELb1ELb1EEaSERKS0_", metadata !36, i32 1554, metadata !1058, i1 false, i1 false, i32 0, i32 0, null, i32 256, i1 false, null, null, i32 0, metadata !48, i32 1554} ; [ DW_TAG_subprogram ]
!1068 = metadata !{i32 786478, i32 0, metadata !990, metadata !"operator=", metadata !"operator=", metadata !"_ZN11ap_int_baseILi24ELb1ELb1EEaSERVKS0_", metadata !36, i32 1577, metadata !1069, i1 false, i1 false, i32 0, i32 0, null, i32 256, i1 false, null, null, i32 0, metadata !48, i32 1577} ; [ DW_TAG_subprogram ]
!1069 = metadata !{i32 786453, i32 0, metadata !"", i32 0, i32 0, i64 0, i64 0, i64 0, i32 0, null, metadata !1070, i32 0, i32 0} ; [ DW_TAG_subroutine_type ]
!1070 = metadata !{metadata !989, metadata !1006, metadata !1065}
!1071 = metadata !{i32 786478, i32 0, metadata !990, metadata !"operator=", metadata !"operator=", metadata !"_ZN11ap_int_baseILi24ELb1ELb1EEaSERKS0_", metadata !36, i32 1582, metadata !1072, i1 false, i1 false, i32 0, i32 0, null, i32 256, i1 false, null, null, i32 0, metadata !48, i32 1582} ; [ DW_TAG_subprogram ]
!1072 = metadata !{i32 786453, i32 0, metadata !"", i32 0, i32 0, i64 0, i64 0, i64 0, i32 0, null, metadata !1073, i32 0, i32 0} ; [ DW_TAG_subroutine_type ]
!1073 = metadata !{metadata !989, metadata !1006, metadata !1060}
!1074 = metadata !{i32 786478, i32 0, metadata !990, metadata !"operator=", metadata !"operator=", metadata !"_ZN11ap_int_baseILi24ELb1ELb1EEaSEPKc", metadata !36, i32 1586, metadata !1075, i1 false, i1 false, i32 0, i32 0, null, i32 256, i1 false, null, null, i32 0, metadata !48, i32 1586} ; [ DW_TAG_subprogram ]
!1075 = metadata !{i32 786453, i32 0, metadata !"", i32 0, i32 0, i64 0, i64 0, i64 0, i32 0, null, metadata !1076, i32 0, i32 0} ; [ DW_TAG_subroutine_type ]
!1076 = metadata !{metadata !989, metadata !1006, metadata !128}
!1077 = metadata !{i32 786478, i32 0, metadata !990, metadata !"set", metadata !"set", metadata !"_ZN11ap_int_baseILi24ELb1ELb1EE3setEPKca", metadata !36, i32 1594, metadata !1078, i1 false, i1 false, i32 0, i32 0, null, i32 256, i1 false, null, null, i32 0, metadata !48, i32 1594} ; [ DW_TAG_subprogram ]
!1078 = metadata !{i32 786453, i32 0, metadata !"", i32 0, i32 0, i64 0, i64 0, i64 0, i32 0, null, metadata !1079, i32 0, i32 0} ; [ DW_TAG_subroutine_type ]
!1079 = metadata !{metadata !989, metadata !1006, metadata !128, metadata !79}
!1080 = metadata !{i32 786478, i32 0, metadata !990, metadata !"operator=", metadata !"operator=", metadata !"_ZN11ap_int_baseILi24ELb1ELb1EEaSEa", metadata !36, i32 1608, metadata !1081, i1 false, i1 false, i32 0, i32 0, null, i32 256, i1 false, null, null, i32 0, metadata !48, i32 1608} ; [ DW_TAG_subprogram ]
!1081 = metadata !{i32 786453, i32 0, metadata !"", i32 0, i32 0, i64 0, i64 0, i64 0, i32 0, null, metadata !1082, i32 0, i32 0} ; [ DW_TAG_subroutine_type ]
!1082 = metadata !{metadata !989, metadata !1006, metadata !79}
!1083 = metadata !{i32 786478, i32 0, metadata !990, metadata !"operator=", metadata !"operator=", metadata !"_ZN11ap_int_baseILi24ELb1ELb1EEaSEh", metadata !36, i32 1609, metadata !1084, i1 false, i1 false, i32 0, i32 0, null, i32 256, i1 false, null, null, i32 0, metadata !48, i32 1609} ; [ DW_TAG_subprogram ]
!1084 = metadata !{i32 786453, i32 0, metadata !"", i32 0, i32 0, i64 0, i64 0, i64 0, i32 0, null, metadata !1085, i32 0, i32 0} ; [ DW_TAG_subroutine_type ]
!1085 = metadata !{metadata !989, metadata !1006, metadata !83}
!1086 = metadata !{i32 786478, i32 0, metadata !990, metadata !"operator=", metadata !"operator=", metadata !"_ZN11ap_int_baseILi24ELb1ELb1EEaSEs", metadata !36, i32 1610, metadata !1087, i1 false, i1 false, i32 0, i32 0, null, i32 256, i1 false, null, null, i32 0, metadata !48, i32 1610} ; [ DW_TAG_subprogram ]
!1087 = metadata !{i32 786453, i32 0, metadata !"", i32 0, i32 0, i64 0, i64 0, i64 0, i32 0, null, metadata !1088, i32 0, i32 0} ; [ DW_TAG_subroutine_type ]
!1088 = metadata !{metadata !989, metadata !1006, metadata !87}
!1089 = metadata !{i32 786478, i32 0, metadata !990, metadata !"operator=", metadata !"operator=", metadata !"_ZN11ap_int_baseILi24ELb1ELb1EEaSEt", metadata !36, i32 1611, metadata !1090, i1 false, i1 false, i32 0, i32 0, null, i32 256, i1 false, null, null, i32 0, metadata !48, i32 1611} ; [ DW_TAG_subprogram ]
!1090 = metadata !{i32 786453, i32 0, metadata !"", i32 0, i32 0, i64 0, i64 0, i64 0, i32 0, null, metadata !1091, i32 0, i32 0} ; [ DW_TAG_subroutine_type ]
!1091 = metadata !{metadata !989, metadata !1006, metadata !91}
!1092 = metadata !{i32 786478, i32 0, metadata !990, metadata !"operator=", metadata !"operator=", metadata !"_ZN11ap_int_baseILi24ELb1ELb1EEaSEi", metadata !36, i32 1612, metadata !1093, i1 false, i1 false, i32 0, i32 0, null, i32 256, i1 false, null, null, i32 0, metadata !48, i32 1612} ; [ DW_TAG_subprogram ]
!1093 = metadata !{i32 786453, i32 0, metadata !"", i32 0, i32 0, i64 0, i64 0, i64 0, i32 0, null, metadata !1094, i32 0, i32 0} ; [ DW_TAG_subroutine_type ]
!1094 = metadata !{metadata !989, metadata !1006, metadata !52}
!1095 = metadata !{i32 786478, i32 0, metadata !990, metadata !"operator=", metadata !"operator=", metadata !"_ZN11ap_int_baseILi24ELb1ELb1EEaSEj", metadata !36, i32 1613, metadata !1096, i1 false, i1 false, i32 0, i32 0, null, i32 256, i1 false, null, null, i32 0, metadata !48, i32 1613} ; [ DW_TAG_subprogram ]
!1096 = metadata !{i32 786453, i32 0, metadata !"", i32 0, i32 0, i64 0, i64 0, i64 0, i32 0, null, metadata !1097, i32 0, i32 0} ; [ DW_TAG_subroutine_type ]
!1097 = metadata !{metadata !989, metadata !1006, metadata !98}
!1098 = metadata !{i32 786478, i32 0, metadata !990, metadata !"operator=", metadata !"operator=", metadata !"_ZN11ap_int_baseILi24ELb1ELb1EEaSEx", metadata !36, i32 1614, metadata !1099, i1 false, i1 false, i32 0, i32 0, null, i32 256, i1 false, null, null, i32 0, metadata !48, i32 1614} ; [ DW_TAG_subprogram ]
!1099 = metadata !{i32 786453, i32 0, metadata !"", i32 0, i32 0, i64 0, i64 0, i64 0, i32 0, null, metadata !1100, i32 0, i32 0} ; [ DW_TAG_subroutine_type ]
!1100 = metadata !{metadata !989, metadata !1006, metadata !110}
!1101 = metadata !{i32 786478, i32 0, metadata !990, metadata !"operator=", metadata !"operator=", metadata !"_ZN11ap_int_baseILi24ELb1ELb1EEaSEy", metadata !36, i32 1615, metadata !1102, i1 false, i1 false, i32 0, i32 0, null, i32 256, i1 false, null, null, i32 0, metadata !48, i32 1615} ; [ DW_TAG_subprogram ]
!1102 = metadata !{i32 786453, i32 0, metadata !"", i32 0, i32 0, i64 0, i64 0, i64 0, i32 0, null, metadata !1103, i32 0, i32 0} ; [ DW_TAG_subroutine_type ]
!1103 = metadata !{metadata !989, metadata !1006, metadata !115}
!1104 = metadata !{i32 786478, i32 0, metadata !990, metadata !"operator int", metadata !"operator int", metadata !"_ZNK11ap_int_baseILi24ELb1ELb1EEcviEv", metadata !36, i32 1653, metadata !1105, i1 false, i1 false, i32 0, i32 0, null, i32 256, i1 false, null, null, i32 0, metadata !48, i32 1653} ; [ DW_TAG_subprogram ]
!1105 = metadata !{i32 786453, i32 0, metadata !"", i32 0, i32 0, i64 0, i64 0, i64 0, i32 0, null, metadata !1106, i32 0, i32 0} ; [ DW_TAG_subroutine_type ]
!1106 = metadata !{metadata !1107, metadata !1112}
!1107 = metadata !{i32 786454, metadata !990, metadata !"RetType", metadata !36, i32 1402, i64 0, i64 0, i64 0, i32 0, metadata !1108} ; [ DW_TAG_typedef ]
!1108 = metadata !{i32 786454, metadata !1109, metadata !"Type", metadata !36, i32 1379, i64 0, i64 0, i64 0, i32 0, metadata !52} ; [ DW_TAG_typedef ]
!1109 = metadata !{i32 786434, null, metadata !"retval<3, true>", metadata !36, i32 1378, i64 8, i64 8, i32 0, i32 0, null, metadata !188, i32 0, null, metadata !1110} ; [ DW_TAG_class_type ]
!1110 = metadata !{metadata !1111, metadata !53}
!1111 = metadata !{i32 786480, null, metadata !"_AP_N", metadata !52, i64 3, null, i32 0, i32 0} ; [ DW_TAG_template_value_parameter ]
!1112 = metadata !{i32 786447, i32 0, metadata !"", i32 0, i32 0, i64 64, i64 64, i64 0, i32 64, metadata !1061} ; [ DW_TAG_pointer_type ]
!1113 = metadata !{i32 786478, i32 0, metadata !990, metadata !"to_bool", metadata !"to_bool", metadata !"_ZNK11ap_int_baseILi24ELb1ELb1EE7to_boolEv", metadata !36, i32 1659, metadata !1114, i1 false, i1 false, i32 0, i32 0, null, i32 256, i1 false, null, null, i32 0, metadata !48, i32 1659} ; [ DW_TAG_subprogram ]
!1114 = metadata !{i32 786453, i32 0, metadata !"", i32 0, i32 0, i64 0, i64 0, i64 0, i32 0, null, metadata !1115, i32 0, i32 0} ; [ DW_TAG_subroutine_type ]
!1115 = metadata !{metadata !54, metadata !1112}
!1116 = metadata !{i32 786478, i32 0, metadata !990, metadata !"to_uchar", metadata !"to_uchar", metadata !"_ZNK11ap_int_baseILi24ELb1ELb1EE8to_ucharEv", metadata !36, i32 1660, metadata !1117, i1 false, i1 false, i32 0, i32 0, null, i32 256, i1 false, null, null, i32 0, metadata !48, i32 1660} ; [ DW_TAG_subprogram ]
!1117 = metadata !{i32 786453, i32 0, metadata !"", i32 0, i32 0, i64 0, i64 0, i64 0, i32 0, null, metadata !1118, i32 0, i32 0} ; [ DW_TAG_subroutine_type ]
!1118 = metadata !{metadata !83, metadata !1112}
!1119 = metadata !{i32 786478, i32 0, metadata !990, metadata !"to_char", metadata !"to_char", metadata !"_ZNK11ap_int_baseILi24ELb1ELb1EE7to_charEv", metadata !36, i32 1661, metadata !1120, i1 false, i1 false, i32 0, i32 0, null, i32 256, i1 false, null, null, i32 0, metadata !48, i32 1661} ; [ DW_TAG_subprogram ]
!1120 = metadata !{i32 786453, i32 0, metadata !"", i32 0, i32 0, i64 0, i64 0, i64 0, i32 0, null, metadata !1121, i32 0, i32 0} ; [ DW_TAG_subroutine_type ]
!1121 = metadata !{metadata !79, metadata !1112}
!1122 = metadata !{i32 786478, i32 0, metadata !990, metadata !"to_ushort", metadata !"to_ushort", metadata !"_ZNK11ap_int_baseILi24ELb1ELb1EE9to_ushortEv", metadata !36, i32 1662, metadata !1123, i1 false, i1 false, i32 0, i32 0, null, i32 256, i1 false, null, null, i32 0, metadata !48, i32 1662} ; [ DW_TAG_subprogram ]
!1123 = metadata !{i32 786453, i32 0, metadata !"", i32 0, i32 0, i64 0, i64 0, i64 0, i32 0, null, metadata !1124, i32 0, i32 0} ; [ DW_TAG_subroutine_type ]
!1124 = metadata !{metadata !91, metadata !1112}
!1125 = metadata !{i32 786478, i32 0, metadata !990, metadata !"to_short", metadata !"to_short", metadata !"_ZNK11ap_int_baseILi24ELb1ELb1EE8to_shortEv", metadata !36, i32 1663, metadata !1126, i1 false, i1 false, i32 0, i32 0, null, i32 256, i1 false, null, null, i32 0, metadata !48, i32 1663} ; [ DW_TAG_subprogram ]
!1126 = metadata !{i32 786453, i32 0, metadata !"", i32 0, i32 0, i64 0, i64 0, i64 0, i32 0, null, metadata !1127, i32 0, i32 0} ; [ DW_TAG_subroutine_type ]
!1127 = metadata !{metadata !87, metadata !1112}
!1128 = metadata !{i32 786478, i32 0, metadata !990, metadata !"to_int", metadata !"to_int", metadata !"_ZNK11ap_int_baseILi24ELb1ELb1EE6to_intEv", metadata !36, i32 1664, metadata !1129, i1 false, i1 false, i32 0, i32 0, null, i32 256, i1 false, null, null, i32 0, metadata !48, i32 1664} ; [ DW_TAG_subprogram ]
!1129 = metadata !{i32 786453, i32 0, metadata !"", i32 0, i32 0, i64 0, i64 0, i64 0, i32 0, null, metadata !1130, i32 0, i32 0} ; [ DW_TAG_subroutine_type ]
!1130 = metadata !{metadata !52, metadata !1112}
!1131 = metadata !{i32 786478, i32 0, metadata !990, metadata !"to_uint", metadata !"to_uint", metadata !"_ZNK11ap_int_baseILi24ELb1ELb1EE7to_uintEv", metadata !36, i32 1665, metadata !1132, i1 false, i1 false, i32 0, i32 0, null, i32 256, i1 false, null, null, i32 0, metadata !48, i32 1665} ; [ DW_TAG_subprogram ]
!1132 = metadata !{i32 786453, i32 0, metadata !"", i32 0, i32 0, i64 0, i64 0, i64 0, i32 0, null, metadata !1133, i32 0, i32 0} ; [ DW_TAG_subroutine_type ]
!1133 = metadata !{metadata !98, metadata !1112}
!1134 = metadata !{i32 786478, i32 0, metadata !990, metadata !"to_long", metadata !"to_long", metadata !"_ZNK11ap_int_baseILi24ELb1ELb1EE7to_longEv", metadata !36, i32 1666, metadata !1135, i1 false, i1 false, i32 0, i32 0, null, i32 256, i1 false, null, null, i32 0, metadata !48, i32 1666} ; [ DW_TAG_subprogram ]
!1135 = metadata !{i32 786453, i32 0, metadata !"", i32 0, i32 0, i64 0, i64 0, i64 0, i32 0, null, metadata !1136, i32 0, i32 0} ; [ DW_TAG_subroutine_type ]
!1136 = metadata !{metadata !102, metadata !1112}
!1137 = metadata !{i32 786478, i32 0, metadata !990, metadata !"to_ulong", metadata !"to_ulong", metadata !"_ZNK11ap_int_baseILi24ELb1ELb1EE8to_ulongEv", metadata !36, i32 1667, metadata !1138, i1 false, i1 false, i32 0, i32 0, null, i32 256, i1 false, null, null, i32 0, metadata !48, i32 1667} ; [ DW_TAG_subprogram ]
!1138 = metadata !{i32 786453, i32 0, metadata !"", i32 0, i32 0, i64 0, i64 0, i64 0, i32 0, null, metadata !1139, i32 0, i32 0} ; [ DW_TAG_subroutine_type ]
!1139 = metadata !{metadata !106, metadata !1112}
!1140 = metadata !{i32 786478, i32 0, metadata !990, metadata !"to_int64", metadata !"to_int64", metadata !"_ZNK11ap_int_baseILi24ELb1ELb1EE8to_int64Ev", metadata !36, i32 1668, metadata !1141, i1 false, i1 false, i32 0, i32 0, null, i32 256, i1 false, null, null, i32 0, metadata !48, i32 1668} ; [ DW_TAG_subprogram ]
!1141 = metadata !{i32 786453, i32 0, metadata !"", i32 0, i32 0, i64 0, i64 0, i64 0, i32 0, null, metadata !1142, i32 0, i32 0} ; [ DW_TAG_subroutine_type ]
!1142 = metadata !{metadata !110, metadata !1112}
!1143 = metadata !{i32 786478, i32 0, metadata !990, metadata !"to_uint64", metadata !"to_uint64", metadata !"_ZNK11ap_int_baseILi24ELb1ELb1EE9to_uint64Ev", metadata !36, i32 1669, metadata !1144, i1 false, i1 false, i32 0, i32 0, null, i32 256, i1 false, null, null, i32 0, metadata !48, i32 1669} ; [ DW_TAG_subprogram ]
!1144 = metadata !{i32 786453, i32 0, metadata !"", i32 0, i32 0, i64 0, i64 0, i64 0, i32 0, null, metadata !1145, i32 0, i32 0} ; [ DW_TAG_subroutine_type ]
!1145 = metadata !{metadata !115, metadata !1112}
!1146 = metadata !{i32 786478, i32 0, metadata !990, metadata !"to_double", metadata !"to_double", metadata !"_ZNK11ap_int_baseILi24ELb1ELb1EE9to_doubleEv", metadata !36, i32 1670, metadata !1147, i1 false, i1 false, i32 0, i32 0, null, i32 256, i1 false, null, null, i32 0, metadata !48, i32 1670} ; [ DW_TAG_subprogram ]
!1147 = metadata !{i32 786453, i32 0, metadata !"", i32 0, i32 0, i64 0, i64 0, i64 0, i32 0, null, metadata !1148, i32 0, i32 0} ; [ DW_TAG_subroutine_type ]
!1148 = metadata !{metadata !124, metadata !1112}
